 getic

 Timestamp is 4bdd11d5 (Sun May 02 01:47:01 2010)

 Preferred load address is 00400000

 Start         Length     Name                   Class
 0001:00000000 001a6f52H .text                   CODE
 0001:001a6f60 0000d958H .text$x                 CODE
 0001:001b48c0 00000e32H .text$yc                CODE
 0001:001b5700 000001a7H .text$yd                CODE
 0002:00000000 000008e4H .idata$5                DATA
 0002:000008e4 00000004H .CRT$XCA                DATA
 0002:000008e8 0000000cH .CRT$XCC                DATA
 0002:000008f4 00000014H .CRT$XCL                DATA
 0002:00000908 000000dcH .CRT$XCU                DATA
 0002:000009e4 00000004H .CRT$XCZ                DATA
 0002:000009e8 00000004H .CRT$XIA                DATA
 0002:000009ec 00000014H .CRT$XIC                DATA
 0002:00000a00 00000004H .CRT$XIY                DATA
 0002:00000a04 00000004H .CRT$XIZ                DATA
 0002:00000a08 00000004H .CRT$XPA                DATA
 0002:00000a0c 00000004H .CRT$XPX                DATA
 0002:00000a10 00000004H .CRT$XPXA               DATA
 0002:00000a14 00000004H .CRT$XPZ                DATA
 0002:00000a18 00000004H .CRT$XTA                DATA
 0002:00000a1c 00000004H .CRT$XTZ                DATA
 0002:00000a20 0002c90bH .rdata                  DATA
 0002:0002d32c 000058ccH .rdata$r                DATA
 0002:00032bf8 00000004H .rtc$IAA                DATA
 0002:00032bfc 00000004H .rtc$IZZ                DATA
 0002:00032c00 00000004H .rtc$TAA                DATA
 0002:00032c04 00000004H .rtc$TZZ                DATA
 0002:00032c08 0000ec9cH .xdata$x                DATA
 0002:000418a4 00000000H ATL$__a                 DATA
 0002:000418a4 00000000H ATL$__z                 DATA
 0002:000418a4 00000020H .didat$2                DATA
 0002:000418c4 00000020H .didat$3                DATA
 0002:000418e4 00000010H .didat$4                DATA
 0002:000418f4 0000004eH .didat$6                DATA
 0002:00041944 00000010H .didat$7                DATA
 0002:00041954 000000f0H .idata$2                DATA
 0002:00041a44 00000014H .idata$3                DATA
 0002:00041a58 000008e4H .idata$4                DATA
 0002:0004233c 000024f2H .idata$6                DATA
 0002:0004482e 00000000H .edata                  DATA
 0003:00000000 00005800H .data                   DATA
 0003:00005800 00000010H .didat$5                DATA
 0003:00005820 00007644H .bss                    DATA
 0004:00000000 0000117cH .rsrc$01                DATA
 0004:00001180 000355c0H .rsrc$02                DATA

  Address         Publics by Value              Rva+Base       Lib:Object

 0000:00000000       __except_list              00000000     <absolute>
 0000:00000000       ___safe_se_handler_count   00000000     <absolute>
 0000:00000000       ___safe_se_handler_table   00000000     <absolute>
 0000:00000000       ___ImageBase               00400000     <linker-defined>
 0001:00000000       ??0CBspTree@@QAE@XZ        00401000 f   BspTree.obj
 0001:00000120       ??0MiniBsp@@QAE@H@Z        00401120 f i BspTree.obj
 0001:00000340       ??1MiniBsp@@UAE@XZ         00401340 f i BspTree.obj
 0001:000004a0       ?AddNode@MiniBsp@@MAEXPAVCMiniNode@@@Z 004014a0 f i BspTree.obj
 0001:00000500       ?CreateNode@MiniBsp@@MAEPAVCMiniNode@@K@Z 00401500 f i BspTree.obj
 0001:00000580       ??0CMiniNode@@QAE@PAVMiniBsp@@K@Z 00401580 f i BspTree.obj
 0001:000006c0       ??_ECMiniNode@@UAEPAXI@Z   004016c0 f i BspTree.obj
 0001:000006c0       ??_GCMiniNode@@UAEPAXI@Z   004016c0 f i BspTree.obj
 0001:000006f0       ??_GMiniBsp@@UAEPAXI@Z     004016f0 f i BspTree.obj
 0001:000006f0       ??_EMiniBsp@@UAEPAXI@Z     004016f0 f i BspTree.obj
 0001:00000730       ??1?$vvector@VPoly@@@@QAE@XZ 00401730 f i BspTree.obj
 0001:00000730       ??1?$vector@VPoly@@V?$allocator@VPoly@@@std@@@std@@QAE@XZ 00401730 f i MiniBsp.obj
 0001:000007a0       ?CreateNode@CBspTree@@MAEPAVCMiniNode@@K@Z 004017a0 f i BspTree.obj
 0001:00000880       ??0CLeaf@@QAE@PAVMiniBsp@@K@Z 00401880 f i BspTree.obj
 0001:000009c0       ??1CMiniNode@@UAE@XZ       004019c0 f i BspTree.obj
 0001:000009e0       ??_ECLeaf@@UAEPAXI@Z       004019e0 f i BspTree.obj
 0001:000009e0       ??_GCLeaf@@UAEPAXI@Z       004019e0 f i BspTree.obj
 0001:00000a20       ??1CLeaf@@UAE@XZ           00401a20 f i BspTree.obj
 0001:00000bb0       ?AddNode@CBspTree@@MAEXPAVCMiniNode@@@Z 00401bb0 f i BspTree.obj
 0001:00000c80       ??_GCBspTree@@UAEPAXI@Z    00401c80 f i BspTree.obj
 0001:00000c80       ??_ECBspTree@@UAEPAXI@Z    00401c80 f i BspTree.obj
 0001:00000cb0       ?Clear@CBspTree@@UAEXXZ    00401cb0 f   BspTree.obj
 0001:00000d70       ??1CBspTree@@UAE@XZ        00401d70 f   BspTree.obj
 0001:00000e90       ?Compile@CBspTree@@UAEHAAV?$vvector@VPoly@@@@KHH@Z 00401e90 f   BspTree.obj
 0001:00001120       ?UpdateNodeBB@CBspTree@@MAEXPAVCMiniNode@@AAV?$vvector@VPoly@@@@@Z 00402120 f   BspTree.obj
 0001:00001140       ?UpdateNodeBB@CBspTree@@MAEXPAVCMiniNode@@AAV?$list@VPoly@@V?$allocator@VPoly@@@std@@@std@@@Z 00402140 f   BspTree.obj
 0001:00001160       ?LinkItem@CBspTree@@QAEXPAVSceItem@@H@Z 00402160 f   BspTree.obj
 0001:00001180       ?R_LinkItem@CBspTree@@IAEXHPAVSceItem@@@Z 00402180 f   BspTree.obj
 0001:00001370       ?LinkDetailModel@CBspTree@@QAEXPAV1@H@Z 00402370 f   BspTree.obj
 0001:000013c0       ?R_LinkDetailModel@CBspTree@@IAEXHPAV1@@Z 004023c0 f   BspTree.obj
 0001:00001570       ?Root@MiniBsp@@QAEPAVCMiniNode@@XZ 00402570 f i BspTree.obj
 0001:00001720       ?R_FindLeaf@CBspTree@@QAEHHAAVV3@@@Z 00402720 f   BspTree.obj
 0001:00001900       ?AddUniquePlane@CBspTree@@QAEHAAV?$vvector@VPlane@@@@AAV?$map@HHU?$less@H@std@@V?$allocator@U?$pair@$$CBHH@std@@@2@@std@@@Z 00402900 f   BspTree.obj
 0001:00001b20       ?ReindexPlanes@CBspTree@@QAEXAAV?$map@HHU?$less@H@std@@V?$allocator@U?$pair@$$CBHH@std@@@2@@std@@@Z 00402b20 f   BspTree.obj
 0001:00001fd0       ?CollectPNL@CBspTree@@QAEHAAV?$vvector@PAVPoly@@@@AAV?$vvector@PAVCMiniNode@@@@AAV?$vvector@PAVCLeaf@@@@@Z 00402fd0 f   BspTree.obj
 0001:00002580       ?SegmentIntersect@CBspTree@@QAEHAAVV3@@0HAAUCollPack@@@Z 00403580 f   BspTree.obj
 0001:00002950       ??0Box@@QAE@XZ             00403950 f i BspTree.obj
 0001:000029b0       ?IsTouchesBox@Box@@QAEHABV1@@Z 004039b0 f i BspTree.obj
 0001:00002a60       ?FromSegment@Box@@QAEXABVV3@@0@Z 00403a60 f i BspTree.obj
 0001:00002b40       ??0CollPack@@QAE@XZ        00403b40 f i BspTree.obj
 0001:00002b90       ?R_SegmentIntersect@CBspTree@@IAEHAAVV3@@0HAAUCollPack@@@Z 00403b90 f   BspTree.obj
 0001:00003120       ?SegmentIntersectConvexLeaf@CBspTree@@IAEHPAVCMiniNode@@AAVV3@@1AAUCollPack@@@Z 00404120 f   BspTree.obj
 0001:00003610       ??0V3@@QAE@ABV0@@Z         00404610 f i BspTree.obj
 0001:00003650       ?SegmentIntersectPolygons@CBspTree@@IAEHPAVPoly@@HAAVV3@@1AAUCollPack@@H@Z 00404650 f   BspTree.obj
 0001:00003c90       ?PatchPolys@CBspTree@@IAEXAAV?$vvector@VPoly@@@@0@Z 00404c90 f   BspTree.obj
 0001:00003e10       ?GetMaxExtend@Box@@QBEMXZ  00404e10 f i BspTree.obj
 0001:00004840       ?GetMaxAx@@YA?AVV3@@AAV1@@Z 00405840 f i BspTree.obj
 0001:000049e0       ?Draw2GlTree@CBspTree@@QAEXPAVCZ_ed2View@@KHH@Z 004059e0 f   BspTree.obj
 0001:00004de0       ?Draw_Graph@CBspTree@@IAEXPAVz_ed3View@@@Z 00405de0 f   BspTree.obj
 0001:00004f80       ??0Cfms@baseg@@QAA@PADZZ   00405f80 f i BspTree.obj
 0001:00004fc0       ?DrawPolys@CBspTree@@IAEXPAVPoly@@HKPAVCLR@@PAV?$vvector@PAVPoly@@@@2222@Z 00405fc0 f   BspTree.obj
 0001:00005480       ?Draw_BSP_WithLmapsAndTextures@CBspTree@@IAEXPAVz_ed3View@@AAHHK@Z 00406480 f   BspTree.obj
 0001:00005f20       ?Draw_SelectedLeafByLeaf@CBspTree@@IAEXPAVz_ed3View@@AAHHK@Z 00406f20 f   BspTree.obj
 0001:00006210       ?Draw3DBSPTree@CBspTree@@QAEXPAVz_ed3View@@AAHHK@Z 00407210 f   BspTree.obj
 0001:00006520       ?R_DrawGraph@CBspTree@@IAEXHVV3@@HPAVz_ed3View@@@Z 00407520 f   BspTree.obj
 0001:00006c00       ?Finalize@CBspTree@@UAEXXZ 00407c00 f   BspTree.obj
 0001:00006c30       ?R_CreateLeafClusters@CBspTree@@IAEXH@Z 00407c30 f   BspTree.obj
 0001:00006d30       ?reserve@?$vector@VPoly@@V?$allocator@VPoly@@@std@@@std@@QAEXI@Z 00407d30 f i BspTree.obj
 0001:00007090       ?findelement@?$vvector@VPlane@@@@QAE?AV?$_Vector_iterator@VPlane@@V?$allocator@VPlane@@@std@@@std@@AAVPlane@@@Z 00408090 f i BspTree.obj
 0001:000071a0       ??8Plane@@QAEHABV0@@Z      004081a0 f i BspTree.obj
 0001:000072b0       ?begin@?$vector@PAVScriptItem@@V?$allocator@PAVScriptItem@@@std@@@std@@QAE?AV?$_Vector_iterator@PAVScriptItem@@V?$allocator@PAVScriptItem@@@std@@@2@XZ 004082b0 f i z_ed2Doc.obj
 0001:000072b0       ?begin@?$vector@VPortal@@V?$allocator@VPortal@@@std@@@std@@QAE?AV?$_Vector_iterator@VPortal@@V?$allocator@VPortal@@@std@@@2@XZ 004082b0 f i BspTree.obj
 0001:000072b0       ?begin@?$vector@USPlugIn@CZ_ed2App@@V?$allocator@USPlugIn@CZ_ed2App@@@std@@@std@@QAE?AV?$_Vector_iterator@USPlugIn@CZ_ed2App@@V?$allocator@USPlugIn@CZ_ed2App@@@std@@@2@XZ 004082b0 f i z_edmap.obj
 0001:000072b0       ?begin@?$vector@VV3@@V?$allocator@VV3@@@std@@@std@@QAE?AV?$_Vector_iterator@VV3@@V?$allocator@VV3@@@std@@@2@XZ 004082b0 f i CompilerStream.obj
 0001:000072b0       ?begin@?$vector@PAUSBytes@@V?$allocator@PAUSBytes@@@std@@@std@@QAE?AV?$_Vector_iterator@PAUSBytes@@V?$allocator@PAUSBytes@@@std@@@2@XZ 004082b0 f i Compiler.obj
 0001:000072b0       ?begin@?$vector@PAVCBspTree@@V?$allocator@PAVCBspTree@@@std@@@std@@QAE?AV?$_Vector_iterator@PAVCBspTree@@V?$allocator@PAVCBspTree@@@std@@@2@XZ 004082b0 f i Compiler.obj
 0001:000072b0       ?begin@?$vector@PAVCLeaf@@V?$allocator@PAVCLeaf@@@std@@@std@@QAE?AV?$_Vector_iterator@PAVCLeaf@@V?$allocator@PAVCLeaf@@@std@@@2@XZ 004082b0 f i Compiler.obj
 0001:000072b0       ?begin@?$vector@PAVCMiniNode@@V?$allocator@PAVCMiniNode@@@std@@@std@@QAE?AV?$_Vector_iterator@PAVCMiniNode@@V?$allocator@PAVCMiniNode@@@std@@@2@XZ 004082b0 f i MiniBsp.obj
 0001:000072b0       ?begin@?$vector@VItemCat@@V?$allocator@VItemCat@@@std@@@std@@QAE?AV?$_Vector_iterator@VItemCat@@V?$allocator@VItemCat@@@std@@@2@XZ 004082b0 f i DlgClassItem.obj
 0001:000072b0       ?begin@?$vector@VVtx2@@V?$allocator@VVtx2@@@std@@@std@@QAE?AV?$_Vector_iterator@VVtx2@@V?$allocator@VVtx2@@@std@@@2@XZ 004082b0 f i BspTree.obj
 0001:000072b0       ?begin@?$vector@UPolyEdge@@V?$allocator@UPolyEdge@@@std@@@std@@QAE?AV?$_Vector_iterator@UPolyEdge@@V?$allocator@UPolyEdge@@@std@@@2@XZ 004082b0 f i z_ed2DocDraw.obj
 0001:000072b0       ?begin@?$vector@PAVPoly@@V?$allocator@PAVPoly@@@std@@@std@@QAE?AV?$_Vector_iterator@PAVPoly@@V?$allocator@PAVPoly@@@std@@@2@XZ 004082b0 f i LMProc.obj
 0001:000072b0       ?begin@?$vector@PAUPortalData@@V?$allocator@PAUPortalData@@@std@@@std@@QAE?AV?$_Vector_iterator@PAUPortalData@@V?$allocator@PAUPortalData@@@std@@@2@XZ 004082b0 f i PVSPrc.obj
 0001:000072b0       ?begin@?$vector@PAVTerNode@@V?$allocator@PAVTerNode@@@std@@@std@@QAE?AV?$_Vector_iterator@PAVTerNode@@V?$allocator@PAVTerNode@@@std@@@2@XZ 004082b0 f i TerTree.obj
 0001:000072b0       ?begin@?$vector@PAUHWND__@@V?$allocator@PAUHWND__@@@std@@@std@@QAE?AV?$_Vector_iterator@PAUHWND__@@V?$allocator@PAUHWND__@@@std@@@2@XZ 004082b0 f i VertDlgDlg.obj
 0001:000072b0       ?begin@?$vector@PAVCSoundItem@@V?$allocator@PAVCSoundItem@@@std@@@std@@QAE?AV?$_Vector_iterator@PAVCSoundItem@@V?$allocator@PAVCSoundItem@@@std@@@2@XZ 004082b0 f i Scene.obj
 0001:000072b0       ?begin@?$vector@PAVCLightBulb@@V?$allocator@PAVCLightBulb@@@std@@@std@@QAE?AV?$_Vector_iterator@PAVCLightBulb@@V?$allocator@PAVCLightBulb@@@std@@@2@XZ 004082b0 f i LMProc.obj
 0001:000072b0       ?begin@?$vector@PAVBrush@@V?$allocator@PAVBrush@@@std@@@std@@QAE?AV?$_Vector_iterator@PAVBrush@@V?$allocator@PAVBrush@@@std@@@2@XZ 004082b0 f i DialogEvalDets.obj
 0001:000072b0       ?begin@?$vector@PAULmSizeBuff@@V?$allocator@PAULmSizeBuff@@@std@@@std@@QAE?AV?$_Vector_iterator@PAULmSizeBuff@@V?$allocator@PAULmSizeBuff@@@std@@@2@XZ 004082b0 f i CompilerStream.obj
 0001:000072b0       ?begin@?$vector@PAVV3@@V?$allocator@PAVV3@@@std@@@std@@QAE?AV?$_Vector_iterator@PAVV3@@V?$allocator@PAVV3@@@std@@@2@XZ 004082b0 f i z_ed2View.obj
 0001:000072b0       ?begin@?$vector@PAV?$map@HHU?$less@H@std@@V?$allocator@U?$pair@$$CBHH@std@@@2@@std@@V?$allocator@PAV?$map@HHU?$less@H@std@@V?$allocator@U?$pair@$$CBHH@std@@@2@@std@@@2@@std@@QAE?AV?$_Vector_iterator@PAV?$map@HHU?$less@H@std@@V?$allocator@U?$pair@$$CBHH@std@@@2@@std@@V?$allocator@PAV?$map@HHU?$less@H@std@@V?$allocator@U?$pair@$$CBHH@std@@@2@@std@@@2@@2@XZ 004082b0 f i CompilerStream.obj
 0001:000072b0       ?begin@?$vector@PAVVtx2@@V?$allocator@PAVVtx2@@@std@@@std@@QAE?AV?$_Vector_iterator@PAVVtx2@@V?$allocator@PAVVtx2@@@std@@@2@XZ 004082b0 f i z_ed2Doc.obj
 0001:000072b0       ?begin@?$vector@VCRect@@V?$allocator@VCRect@@@std@@@std@@QAE?AV?$_Vector_iterator@VCRect@@V?$allocator@VCRect@@@std@@@2@XZ 004082b0 f i VertDlgDlg.obj
 0001:000072b0       ?begin@?$vector@PAVCMotion@@V?$allocator@PAVCMotion@@@std@@@std@@QAE?AV?$_Vector_iterator@PAVCMotion@@V?$allocator@PAVCMotion@@@std@@@2@XZ 004082b0 f i z_ed2Doc.obj
 0001:000072b0       ?begin@?$vector@V?$basic_string@DU?$char_traits@D@std@@V?$allocator@D@2@@std@@V?$allocator@V?$basic_string@DU?$char_traits@D@std@@V?$allocator@D@2@@std@@@2@@std@@QAE?AV?$_Vector_iterator@V?$basic_string@DU?$char_traits@D@std@@V?$allocator@D@2@@std@@V?$allocator@V?$basic_string@DU?$char_traits@D@std@@V?$allocator@D@2@@std@@@2@@2@XZ 004082b0 f i LbEditable.obj
 0001:000072b0       ?begin@?$vector@VPoly@@V?$allocator@VPoly@@@std@@@std@@QAE?AV?$_Vector_iterator@VPoly@@V?$allocator@VPoly@@@std@@@2@XZ 004082b0 f i Compiler.obj
 0001:000072b0       ?begin@?$vector@PAVSceItem@@V?$allocator@PAVSceItem@@@std@@@std@@QAE?AV?$_Vector_iterator@PAVSceItem@@V?$allocator@PAVSceItem@@@std@@@2@XZ 004082b0 f i Compiler.obj
 0001:000072b0       ?begin@?$vector@PAVTerLeaf@@V?$allocator@PAVTerLeaf@@@std@@@std@@QAE?AV?$_Vector_iterator@PAVTerLeaf@@V?$allocator@PAVTerLeaf@@@std@@@2@XZ 004082b0 f i Compiler.obj
 0001:000072b0       ?begin@?$vector@PAUGroup@CVertDlgDlg@@V?$allocator@PAUGroup@CVertDlgDlg@@@std@@@std@@QAE?AV?$_Vector_iterator@PAUGroup@CVertDlgDlg@@V?$allocator@PAUGroup@CVertDlgDlg@@@std@@@2@XZ 004082b0 f i VertDlgDlg.obj
 0001:000072b0       ?begin@?$vector@URecord@CUndo@@V?$allocator@URecord@CUndo@@@std@@@std@@QAE?AV?$_Vector_iterator@URecord@CUndo@@V?$allocator@URecord@CUndo@@@std@@@2@XZ 004082b0 f i Undo.obj
 0001:00007310       ??G?$_Vector_iterator@VPlane@@V?$allocator@VPlane@@@std@@@std@@QBEHABV?$_Vector_const_iterator@VPlane@@V?$allocator@VPlane@@@std@@@1@@Z 00408310 f i BspTree.obj
 0001:00007370       ??1?$set@HU?$less@H@std@@V?$allocator@H@2@@std@@QAE@XZ 00408370 f i BspTree.obj
 0001:00007370       ??1?$set@PAVPoly@@U?$less@PAVPoly@@@std@@V?$allocator@PAVPoly@@@3@@std@@QAE@XZ 00408370 f i DialogEvalDets.obj
 0001:00007370       ??1?$set@PAVV3@@U?$less@PAVV3@@@std@@V?$allocator@PAVV3@@@3@@std@@QAE@XZ 00408370 f i z_ed2DocDraw.obj
 0001:00007370       ??1?$_Tree@V?$_Tset_traits@PAVPoly@@U?$less@PAVPoly@@@std@@V?$allocator@PAVPoly@@@3@$0A@@std@@@std@@QAE@XZ 00408370 f i DialogEvalDets.obj
 0001:00007370       ??1?$set@PAVBrush@@U?$less@PAVBrush@@@std@@V?$allocator@PAVBrush@@@3@@std@@QAE@XZ 00408370 f i DialogEvalDets.obj
 0001:00007370       ??1?$_Tree@V?$_Tset_traits@HU?$less@H@std@@V?$allocator@H@2@$0A@@std@@@std@@QAE@XZ 00408370 f i BspTree.obj
 0001:00007370       ??1?$_Tree@V?$_Tset_traits@PAVBrush@@U?$less@PAVBrush@@@std@@V?$allocator@PAVBrush@@@3@$0A@@std@@@std@@QAE@XZ 00408370 f i DialogEvalDets.obj
 0001:00007370       ??1?$_Tree@V?$_Tset_traits@PAVV3@@U?$less@PAVV3@@@std@@V?$allocator@PAVV3@@@3@$0A@@std@@@std@@QAE@XZ 00408370 f i z_ed2DocDraw.obj
 0001:000073f0       ?insert@?$_Tree@V?$_Tset_traits@HU?$less@H@std@@V?$allocator@H@2@$0A@@std@@@std@@QAE?AU?$pair@Viterator@?$_Tree@V?$_Tset_traits@HU?$less@H@std@@V?$allocator@H@2@$0A@@std@@@std@@_N@2@ABH@Z 004083f0 f i BspTree.obj
 0001:00007640       ?find@?$_Tree@V?$_Tset_traits@HU?$less@H@std@@V?$allocator@H@2@$0A@@std@@@std@@QAE?AViterator@12@ABH@Z 00408640 f i BspTree.obj
 0001:00007750       ??0?$vector@VPoly@@V?$allocator@VPoly@@@std@@@std@@QAE@XZ 00408750 f i BspTree.obj
 0001:00007830       ?_Tidy@?$vector@VPoly@@V?$allocator@VPoly@@@std@@@std@@IAEXXZ 00408830 f i BspTree.obj
 0001:00007900       ??0logic_error@std@@QAE@ABV?$basic_string@DU?$char_traits@D@std@@V?$allocator@D@2@@1@@Z 00408900 f i BspTree.obj
 0001:00007990       ?what@logic_error@std@@UBEPBDXZ 00408990 f i BspTree.obj
 0001:000079d0       ??_Elogic_error@std@@UAEPAXI@Z 004089d0 f i BspTree.obj
 0001:000079d0       ??_Glogic_error@std@@UAEPAXI@Z 004089d0 f i BspTree.obj
 0001:00007a20       ??1length_error@std@@UAE@XZ 00408a20 f i BspTree.obj
 0001:00007a60       ??_Elength_error@std@@UAEPAXI@Z 00408a60 f i BspTree.obj
 0001:00007a60       ??_Glength_error@std@@UAEPAXI@Z 00408a60 f i BspTree.obj
 0001:00007ab0       ??0logic_error@std@@QAE@ABV01@@Z 00408ab0 f i BspTree.obj
 0001:00007b40       ??0?$basic_string@DU?$char_traits@D@std@@V?$allocator@D@2@@std@@QAE@PBD@Z 00408b40 f i BspTree.obj
 0001:00007b90       ?assign@?$basic_string@DU?$char_traits@D@std@@V?$allocator@D@2@@std@@QAEAAV12@ABV12@II@Z 00408b90 f i BspTree.obj
 0001:00007cc0       ?_Tidy@?$basic_string@DU?$char_traits@D@std@@V?$allocator@D@2@@std@@IAEX_NI@Z 00408cc0 f i BspTree.obj
 0001:00007d70       ??0?$vector@VPlane@@V?$allocator@VPlane@@@std@@@std@@QAE@XZ 00408d70 f i BspTree.obj
 0001:00007e50       ?_Tidy@?$vector@VPlane@@V?$allocator@VPlane@@@std@@@std@@IAEXXZ 00408e50 f i BspTree.obj
 0001:00007f10       ?_Insert@?$_Tree@V?$_Tset_traits@HU?$less@H@std@@V?$allocator@H@2@$0A@@std@@@std@@IAE?AViterator@12@_NPAU_Node@?$_Tree_nod@V?$_Tset_traits@HU?$less@H@std@@V?$allocator@H@2@$0A@@std@@@2@ABH@Z 00408f10 f i BspTree.obj
 0001:00007f10       ?_Insert@?$_Tree@V?$_Tset_traits@PAVBrush@@U?$less@PAVBrush@@@std@@V?$allocator@PAVBrush@@@3@$0A@@std@@@std@@IAE?AViterator@12@_NPAU_Node@?$_Tree_nod@V?$_Tset_traits@PAVBrush@@U?$less@PAVBrush@@@std@@V?$allocator@PAVBrush@@@3@$0A@@std@@@2@ABQAVBrush@@@Z 00408f10 f i DialogEvalDets.obj
 0001:00007f10       ?_Insert@?$_Tree@V?$_Tset_traits@PAVPoly@@U?$less@PAVPoly@@@std@@V?$allocator@PAVPoly@@@3@$0A@@std@@@std@@IAE?AViterator@12@_NPAU_Node@?$_Tree_nod@V?$_Tset_traits@PAVPoly@@U?$less@PAVPoly@@@std@@V?$allocator@PAVPoly@@@3@$0A@@std@@@2@ABQAVPoly@@@Z 00408f10 f i DialogEvalDets.obj
 0001:00007f10       ?_Insert@?$_Tree@V?$_Tset_traits@PAVV3@@U?$less@PAVV3@@@std@@V?$allocator@PAVV3@@@3@$0A@@std@@@std@@IAE?AViterator@12@_NPAU_Node@?$_Tree_nod@V?$_Tset_traits@PAVV3@@U?$less@PAVV3@@@std@@V?$allocator@PAVV3@@@3@$0A@@std@@@2@ABQAVV3@@@Z 00408f10 f i z_ed2DocDraw.obj
 0001:00007f10       ?_Insert@?$_Tree@V?$_Tset_traits@IU?$less@I@std@@V?$allocator@I@2@$0A@@std@@@std@@IAE?AViterator@12@_NPAU_Node@?$_Tree_nod@V?$_Tset_traits@IU?$less@I@std@@V?$allocator@I@2@$0A@@std@@@2@ABI@Z 00408f10 f i DlgBrshProp.obj
 0001:000082f0       ??0length_error@std@@QAE@ABV01@@Z 004092f0 f i BspTree.obj
 0001:00008320       ?assign@?$basic_string@DU?$char_traits@D@std@@V?$allocator@D@2@@std@@QAEAAV12@PBDI@Z 00409320 f i BspTree.obj
 0001:00008410       ?erase@?$basic_string@DU?$char_traits@D@std@@V?$allocator@D@2@@std@@QAEAAV12@II@Z 00409410 f i BspTree.obj
 0001:00008520       ?_Grow@?$basic_string@DU?$char_traits@D@std@@V?$allocator@D@2@@std@@IAE_NI_N@Z 00409520 f i BspTree.obj
 0001:00008620       ?_Buy@?$vector@PAVPoly@@V?$allocator@PAVPoly@@@std@@@std@@IAE_NI@Z 00409620 f i BspTree.obj
 0001:00008620       ?_Buy@?$vector@PAVBrush@@V?$allocator@PAVBrush@@@std@@@std@@IAE_NI@Z 00409620 f i Compiler.obj
 0001:00008620       ?_Buy@?$vector@PADV?$allocator@PAD@std@@@std@@IAE_NI@Z 00409620 f i Scene.obj
 0001:00008620       ?_Buy@?$vector@PAVCBaseDlg@@V?$allocator@PAVCBaseDlg@@@std@@@std@@IAE_NI@Z 00409620 f i DlgBar.obj
 0001:00008620       ?_Buy@?$vector@PAVCMotion@@V?$allocator@PAVCMotion@@@std@@@std@@IAE_NI@Z 00409620 f i z_ed2Doc.obj
 0001:00008620       ?_Buy@?$vector@PAVCSoundItem@@V?$allocator@PAVCSoundItem@@@std@@@std@@IAE_NI@Z 00409620 f i z_ed2Doc.obj
 0001:00008620       ?_Buy@?$vector@PAUPortalData@@V?$allocator@PAUPortalData@@@std@@@std@@IAE_NI@Z 00409620 f i Compiler.obj
 0001:00008620       ?_Buy@?$vector@PAUHWND__@@V?$allocator@PAUHWND__@@@std@@@std@@IAE_NI@Z 00409620 f i VertDlgDlg.obj
 0001:00008620       ?_Buy@?$vector@PAV?$map@HHU?$less@H@std@@V?$allocator@U?$pair@$$CBHH@std@@@2@@std@@V?$allocator@PAV?$map@HHU?$less@H@std@@V?$allocator@U?$pair@$$CBHH@std@@@2@@std@@@2@@std@@IAE_NI@Z 00409620 f i CompilerStream.obj
 0001:00008620       ?_Buy@?$vector@HV?$allocator@H@std@@@std@@IAE_NI@Z 00409620 f i BspTree.obj
 0001:00008620       ?_Buy@?$vector@PAVVtx2@@V?$allocator@PAVVtx2@@@std@@@std@@IAE_NI@Z 00409620 f i z_ed2Doc.obj
 0001:00008620       ?_Buy@?$vector@PAULmSizeBuff@@V?$allocator@PAULmSizeBuff@@@std@@@std@@IAE_NI@Z 00409620 f i Compiler.obj
 0001:00008620       ?_Buy@?$vector@PAVTerLeaf@@V?$allocator@PAVTerLeaf@@@std@@@std@@IAE_NI@Z 00409620 f i TerTree.obj
 0001:00008620       ?_Buy@?$vector@PAVPlane@@V?$allocator@PAVPlane@@@std@@@std@@IAE_NI@Z 00409620 f i BspTree.obj
 0001:00008620       ?_Buy@?$vector@PAVCBspTree@@V?$allocator@PAVCBspTree@@@std@@@std@@IAE_NI@Z 00409620 f i BspTree.obj
 0001:00008620       ?_Buy@?$vector@PAVCMiniNode@@V?$allocator@PAVCMiniNode@@@std@@@std@@IAE_NI@Z 00409620 f i BspTree.obj
 0001:00008620       ?_Buy@?$vector@PAVV3@@V?$allocator@PAVV3@@@std@@@std@@IAE_NI@Z 00409620 f i z_ed2View.obj
 0001:00008620       ?_Buy@?$vector@PAVScriptItem@@V?$allocator@PAVScriptItem@@@std@@@std@@IAE_NI@Z 00409620 f i z_ed2Doc.obj
 0001:00008620       ?_Buy@?$vector@MV?$allocator@M@std@@@std@@IAE_NI@Z 00409620 f i TerTree.obj
 0001:00008620       ?_Buy@?$vector@PAVSceItem@@V?$allocator@PAVSceItem@@@std@@@std@@IAE_NI@Z 00409620 f i z_ed2Doc.obj
 0001:00008620       ?_Buy@?$vector@PAUGroup@CVertDlgDlg@@V?$allocator@PAUGroup@CVertDlgDlg@@@std@@@std@@IAE_NI@Z 00409620 f i VertDlgDlg.obj
 0001:00008620       ?_Buy@?$vector@VCLR@@V?$allocator@VCLR@@@std@@@std@@IAE_NI@Z 00409620 f i z_ed2DocSave.obj
 0001:00008620       ?_Buy@?$vector@PAVCLeaf@@V?$allocator@PAVCLeaf@@@std@@@std@@IAE_NI@Z 00409620 f i BspTree.obj
 0001:00008620       ?_Buy@?$vector@PAVCLightBulb@@V?$allocator@PAVCLightBulb@@@std@@@std@@IAE_NI@Z 00409620 f i LMProc.obj
 0001:00008620       ?_Buy@?$vector@PAVTerNode@@V?$allocator@PAVTerNode@@@std@@@std@@IAE_NI@Z 00409620 f i TerTree.obj
 0001:00008620       ?_Buy@?$vector@PAUSBytes@@V?$allocator@PAUSBytes@@@std@@@std@@IAE_NI@Z 00409620 f i Compiler.obj
 0001:00008620       ?_Buy@?$vector@KV?$allocator@K@std@@@std@@IAE_NI@Z 00409620 f i CompilerStream.obj
 0001:000086e0       ?push_back@?$vector@VPoly@@V?$allocator@VPoly@@@std@@@std@@QAEXABVPoly@@@Z 004096e0 f i BspTree.obj
 0001:00008800       ?_Buy@?$vector@VPoly@@V?$allocator@VPoly@@@std@@@std@@IAE_NI@Z 00409800 f i BspTree.obj
 0001:000088d0       ?push_back@?$vector@VPlane@@V?$allocator@VPlane@@@std@@@std@@QAEXABVPlane@@@Z 004098d0 f i BspTree.obj
 0001:000089e0       ?_Buy@?$vector@VPlane@@V?$allocator@VPlane@@@std@@@std@@IAE_NI@Z 004099e0 f i BspTree.obj
 0001:00008aa0       ?_Lbound@?$_Tree@V?$_Tmap_traits@HPAVBrush@@U?$less@H@std@@V?$allocator@U?$pair@$$CBHPAVBrush@@@std@@@3@$0A@@std@@@std@@IBEPAU_Node@?$_Tree_nod@V?$_Tmap_traits@HPAVBrush@@U?$less@H@std@@V?$allocator@U?$pair@$$CBHPAVBrush@@@std@@@3@$0A@@std@@@2@ABH@Z 00409aa0 f i z_ed2DocSave.obj
 0001:00008aa0       ?_Lbound@?$_Tree@V?$_Tmap_traits@HHU?$less@H@std@@V?$allocator@U?$pair@$$CBHH@std@@@2@$0A@@std@@@std@@IBEPAU_Node@?$_Tree_nod@V?$_Tmap_traits@HHU?$less@H@std@@V?$allocator@U?$pair@$$CBHH@std@@@2@$0A@@std@@@2@ABH@Z 00409aa0 f i BspTree.obj
 0001:00008b10       ??E?$_Vector_const_iterator@VVtx2@@V?$allocator@VVtx2@@@std@@@std@@QAEAAV01@XZ 00409b10 f i BspTree.obj
 0001:00008b90       ??E?$_Vector_const_iterator@VPlane@@V?$allocator@VPlane@@@std@@@std@@QAEAAV01@XZ 00409b90 f i BspTree.obj
 0001:00008c10       ??0?$_Vector_const_iterator@VVtx2@@V?$allocator@VVtx2@@@std@@@std@@QAE@PAVVtx2@@PBV_Container_base_aux@1@@Z 00409c10 f i CompilerStream.obj
 0001:00008c10       ??0?$_Vector_const_iterator@PAVCSoundItem@@V?$allocator@PAVCSoundItem@@@std@@@std@@QAE@PAPAVCSoundItem@@PBV_Container_base_aux@1@@Z 00409c10 f i CompilerStream.obj
 0001:00008c10       ??0?$_Vector_const_iterator@PAVV3@@V?$allocator@PAVV3@@@std@@@std@@QAE@PAPAVV3@@PBV_Container_base_aux@1@@Z 00409c10 f i z_ed2View.obj
 0001:00008c10       ??0?$_Vector_const_iterator@PAVBrush@@V?$allocator@PAVBrush@@@std@@@std@@QAE@PAPAVBrush@@PBV_Container_base_aux@1@@Z 00409c10 f i Compiler.obj
 0001:00008c10       ??0?$_Vector_const_iterator@PAVCMotion@@V?$allocator@PAVCMotion@@@std@@@std@@QAE@PAPAVCMotion@@PBV_Container_base_aux@1@@Z 00409c10 f i CompilerStream.obj
 0001:00008c10       ??0?$_Vector_const_iterator@UVNT@@V?$allocator@UVNT@@@std@@@std@@QAE@PAUVNT@@PBV_Container_base_aux@1@@Z 00409c10 f i DlgEditor2D.obj
 0001:00008c10       ??0?$_Vector_const_iterator@UNameTypeValue@@V?$allocator@UNameTypeValue@@@std@@@std@@QAE@PAUNameTypeValue@@PBV_Container_base_aux@1@@Z 00409c10 f i CompilerStream.obj
 0001:00008c10       ??0?$_Vector_const_iterator@PAUGroup@CVertDlgDlg@@V?$allocator@PAUGroup@CVertDlgDlg@@@std@@@std@@QAE@PAPAUGroup@CVertDlgDlg@@PBV_Container_base_aux@1@@Z 00409c10 f i VertDlgDlg.obj
 0001:00008c10       ??0?$_Vector_const_iterator@VV3@@V?$allocator@VV3@@@std@@@std@@QAE@PAVV3@@PBV_Container_base_aux@1@@Z 00409c10 f i CompilerStream.obj
 0001:00008c10       ??0?$_Vector_const_iterator@PAVTerLeaf@@V?$allocator@PAVTerLeaf@@@std@@@std@@QAE@PAPAVTerLeaf@@PBV_Container_base_aux@1@@Z 00409c10 f i CompilerStream.obj
 0001:00008c10       ??0?$_Vector_const_iterator@VCLR@@V?$allocator@VCLR@@@std@@@std@@QAE@PAVCLR@@PBV_Container_base_aux@1@@Z 00409c10 f i z_ed2DocSave.obj
 0001:00008c10       ??0?$_Vector_const_iterator@PAVVtx2@@V?$allocator@PAVVtx2@@@std@@@std@@QAE@PAPAVVtx2@@PBV_Container_base_aux@1@@Z 00409c10 f i z_ed2Doc.obj
 0001:00008c10       ??0?$_Vector_const_iterator@PAVPoly@@V?$allocator@PAVPoly@@@std@@@std@@QAE@PAPAVPoly@@PBV_Container_base_aux@1@@Z 00409c10 f i CompilerStream.obj
 0001:00008c10       ??0?$_Vector_const_iterator@PAVScriptItem@@V?$allocator@PAVScriptItem@@@std@@@std@@QAE@PAPAVScriptItem@@PBV_Container_base_aux@1@@Z 00409c10 f i CompilerStream.obj
 0001:00008c10       ??0?$_Vector_const_iterator@PAVCBspTree@@V?$allocator@PAVCBspTree@@@std@@@std@@QAE@PAPAVCBspTree@@PBV_Container_base_aux@1@@Z 00409c10 f i BspTree.obj
 0001:00008c10       ??0?$_Vector_const_iterator@VPoly@@V?$allocator@VPoly@@@std@@@std@@QAE@PAVPoly@@PBV_Container_base_aux@1@@Z 00409c10 f i BspTree.obj
 0001:00008c10       ??0?$_Vector_const_iterator@HV?$allocator@H@std@@@std@@QAE@PAHPBV_Container_base_aux@1@@Z 00409c10 f i Compiler.obj
 0001:00008c10       ??0?$_Vector_const_iterator@PADV?$allocator@PAD@std@@@std@@QAE@PAPADPBV_Container_base_aux@1@@Z 00409c10 f i Scene.obj
 0001:00008c10       ??0?$_Vector_const_iterator@VItemCat@@V?$allocator@VItemCat@@@std@@@std@@QAE@PAVItemCat@@PBV_Container_base_aux@1@@Z 00409c10 f i CompilerStream.obj
 0001:00008c10       ??0?$_Vector_const_iterator@PAVCLightBulb@@V?$allocator@PAVCLightBulb@@@std@@@std@@QAE@PAPAVCLightBulb@@PBV_Container_base_aux@1@@Z 00409c10 f i LMProc.obj
 0001:00008c10       ??0?$_Vector_const_iterator@PAVTerNode@@V?$allocator@PAVTerNode@@@std@@@std@@QAE@PAPAVTerNode@@PBV_Container_base_aux@1@@Z 00409c10 f i CompilerStream.obj
 0001:00008c10       ??0?$_Vector_const_iterator@VPortal@@V?$allocator@VPortal@@@std@@@std@@QAE@PAVPortal@@PBV_Container_base_aux@1@@Z 00409c10 f i Compiler.obj
 0001:00008c10       ??0?$_Vector_const_iterator@PAVCMiniNode@@V?$allocator@PAVCMiniNode@@@std@@@std@@QAE@PAPAVCMiniNode@@PBV_Container_base_aux@1@@Z 00409c10 f i BspTree.obj
 0001:00008c10       ??0?$_Vector_const_iterator@PAUHWND__@@V?$allocator@PAUHWND__@@@std@@@std@@QAE@PAPAUHWND__@@PBV_Container_base_aux@1@@Z 00409c10 f i VertDlgDlg.obj
 0001:00008c10       ??0?$_Vector_const_iterator@PAVCLeaf@@V?$allocator@PAVCLeaf@@@std@@@std@@QAE@PAPAVCLeaf@@PBV_Container_base_aux@1@@Z 00409c10 f i BspTree.obj
 0001:00008c10       ??0?$_Vector_const_iterator@UUV@@V?$allocator@UUV@@@std@@@std@@QAE@PAUUV@@PBV_Container_base_aux@1@@Z 00409c10 f i z_ed2DocSave.obj
 0001:00008c10       ??0?$_Vector_const_iterator@V?$basic_string@DU?$char_traits@D@std@@V?$allocator@D@2@@std@@V?$allocator@V?$basic_string@DU?$char_traits@D@std@@V?$allocator@D@2@@std@@@2@@std@@QAE@PAV?$basic_string@DU?$char_traits@D@std@@V?$allocator@D@2@@1@PBV_Container_base_aux@1@@Z 00409c10 f i CompilerStream.obj
 0001:00008c10       ??0?$_Vector_const_iterator@PAVPlane@@V?$allocator@PAVPlane@@@std@@@std@@QAE@PAPAVPlane@@PBV_Container_base_aux@1@@Z 00409c10 f i MiniBsp.obj
 0001:00008c10       ??0?$_Vector_const_iterator@PAULmSizeBuff@@V?$allocator@PAULmSizeBuff@@@std@@@std@@QAE@PAPAULmSizeBuff@@PBV_Container_base_aux@1@@Z 00409c10 f i CompilerStream.obj
 0001:00008c10       ??0?$_Vector_const_iterator@VCRect@@V?$allocator@VCRect@@@std@@@std@@QAE@PAVCRect@@PBV_Container_base_aux@1@@Z 00409c10 f i VertDlgDlg.obj
 0001:00008c10       ??0?$_Vector_const_iterator@VPlane@@V?$allocator@VPlane@@@std@@@std@@QAE@PAVPlane@@PBV_Container_base_aux@1@@Z 00409c10 f i BspTree.obj
 0001:00008c10       ??0?$_Vector_const_iterator@PAVSceItem@@V?$allocator@PAVSceItem@@@std@@@std@@QAE@PAPAVSceItem@@PBV_Container_base_aux@1@@Z 00409c10 f i CompilerStream.obj
 0001:00008c10       ??0?$_Vector_const_iterator@UXmlFace@@V?$allocator@UXmlFace@@@std@@@std@@QAE@PAUXmlFace@@PBV_Container_base_aux@1@@Z 00409c10 f i z_ed2DocSave.obj
 0001:00008c70       ??E?$_Vector_const_iterator@VPoly@@V?$allocator@VPoly@@@std@@@std@@QAEAAV01@XZ 00409c70 f i BspTree.obj
 0001:00008cf0       ?_Lbound@?$_Tree@V?$_Tset_traits@HU?$less@H@std@@V?$allocator@H@2@$0A@@std@@@std@@IBEPAU_Node@?$_Tree_nod@V?$_Tset_traits@HU?$less@H@std@@V?$allocator@H@2@$0A@@std@@@2@ABH@Z 00409cf0 f i BspTree.obj
 0001:00008d60       ?_Copy@?$basic_string@DU?$char_traits@D@std@@V?$allocator@D@2@@std@@IAEXII@Z 00409d60 f i BspTree.obj
 0001:00008fd0       ?_Inside@?$basic_string@DU?$char_traits@D@std@@V?$allocator@D@2@@std@@IAE_NPBD@Z 00409fd0 f i BspTree.obj
 0001:00009040       ?insert@?$vector@VPoly@@V?$allocator@VPoly@@@std@@@std@@QAE?AV?$_Vector_iterator@VPoly@@V?$allocator@VPoly@@@std@@@2@V?$_Vector_const_iterator@VPoly@@V?$allocator@VPoly@@@std@@@2@ABVPoly@@@Z 0040a040 f i BspTree.obj
 0001:00009180       ?insert@?$vector@VPlane@@V?$allocator@VPlane@@@std@@@std@@QAE?AV?$_Vector_iterator@VPlane@@V?$allocator@VPlane@@@std@@@2@V?$_Vector_const_iterator@VPlane@@V?$allocator@VPlane@@@std@@@2@ABVPlane@@@Z 0040a180 f i BspTree.obj
 0001:000092c0       ?_Lrotate@?$_Tree@V?$_Tmap_traits@HPAVBrush@@U?$less@H@std@@V?$allocator@U?$pair@$$CBHPAVBrush@@@std@@@3@$0A@@std@@@std@@IAEXPAU_Node@?$_Tree_nod@V?$_Tmap_traits@HPAVBrush@@U?$less@H@std@@V?$allocator@U?$pair@$$CBHPAVBrush@@@std@@@3@$0A@@std@@@2@@Z 0040a2c0 f i z_ed2DocSave.obj
 0001:000092c0       ?_Lrotate@?$_Tree@V?$_Tmap_traits@PAVCDialog@@IU?$less@PAVCDialog@@@std@@V?$allocator@U?$pair@QAVCDialog@@I@std@@@3@$0A@@std@@@std@@IAEXPAU_Node@?$_Tree_nod@V?$_Tmap_traits@PAVCDialog@@IU?$less@PAVCDialog@@@std@@V?$allocator@U?$pair@QAVCDialog@@I@std@@@3@$0A@@std@@@2@@Z 0040a2c0 f i TabDlgSel.obj
 0001:000092c0       ?_Lrotate@?$_Tree@V?$_Tmap_traits@PAVBrush@@HU?$less@PAVBrush@@@std@@V?$allocator@U?$pair@QAVBrush@@H@std@@@3@$0A@@std@@@std@@IAEXPAU_Node@?$_Tree_nod@V?$_Tmap_traits@PAVBrush@@HU?$less@PAVBrush@@@std@@V?$allocator@U?$pair@QAVBrush@@H@std@@@3@$0A@@std@@@2@@Z 0040a2c0 f i DlgBar.obj
 0001:000092c0       ?_Lrotate@?$_Tree@V?$_Tmap_traits@HHU?$less@H@std@@V?$allocator@U?$pair@$$CBHH@std@@@2@$0A@@std@@@std@@IAEXPAU_Node@?$_Tree_nod@V?$_Tmap_traits@HHU?$less@H@std@@V?$allocator@U?$pair@$$CBHH@std@@@2@$0A@@std@@@2@@Z 0040a2c0 f i BspTree.obj
 0001:00009370       ?_Rrotate@?$_Tree@V?$_Tmap_traits@PAVCDialog@@IU?$less@PAVCDialog@@@std@@V?$allocator@U?$pair@QAVCDialog@@I@std@@@3@$0A@@std@@@std@@IAEXPAU_Node@?$_Tree_nod@V?$_Tmap_traits@PAVCDialog@@IU?$less@PAVCDialog@@@std@@V?$allocator@U?$pair@QAVCDialog@@I@std@@@3@$0A@@std@@@2@@Z 0040a370 f i TabDlgSel.obj
 0001:00009370       ?_Rrotate@?$_Tree@V?$_Tmap_traits@HHU?$less@H@std@@V?$allocator@U?$pair@$$CBHH@std@@@2@$0A@@std@@@std@@IAEXPAU_Node@?$_Tree_nod@V?$_Tmap_traits@HHU?$less@H@std@@V?$allocator@U?$pair@$$CBHH@std@@@2@$0A@@std@@@2@@Z 0040a370 f i BspTree.obj
 0001:00009370       ?_Rrotate@?$_Tree@V?$_Tmap_traits@PAVBrush@@HU?$less@PAVBrush@@@std@@V?$allocator@U?$pair@QAVBrush@@H@std@@@3@$0A@@std@@@std@@IAEXPAU_Node@?$_Tree_nod@V?$_Tmap_traits@PAVBrush@@HU?$less@PAVBrush@@@std@@V?$allocator@U?$pair@QAVBrush@@H@std@@@3@$0A@@std@@@2@@Z 0040a370 f i DlgBar.obj
 0001:00009370       ?_Rrotate@?$_Tree@V?$_Tmap_traits@HPAVBrush@@U?$less@H@std@@V?$allocator@U?$pair@$$CBHPAVBrush@@@std@@@3@$0A@@std@@@std@@IAEXPAU_Node@?$_Tree_nod@V?$_Tmap_traits@HPAVBrush@@U?$less@H@std@@V?$allocator@U?$pair@$$CBHPAVBrush@@@std@@@3@$0A@@std@@@2@@Z 0040a370 f i z_ed2DocSave.obj
 0001:00009420       ?_Buynode@?$_Tree@V?$_Tmap_traits@HPAVBrush@@U?$less@H@std@@V?$allocator@U?$pair@$$CBHPAVBrush@@@std@@@3@$0A@@std@@@std@@IAEPAU_Node@?$_Tree_nod@V?$_Tmap_traits@HPAVBrush@@U?$less@H@std@@V?$allocator@U?$pair@$$CBHPAVBrush@@@std@@@3@$0A@@std@@@2@PAU342@00ABU?$pair@$$CBHPAVBrush@@@2@D@Z 0040a420 f i z_ed2DocSave.obj
 0001:00009420       ?_Buynode@?$_Tree@V?$_Tmap_traits@PAVBrush@@HU?$less@PAVBrush@@@std@@V?$allocator@U?$pair@QAVBrush@@H@std@@@3@$0A@@std@@@std@@IAEPAU_Node@?$_Tree_nod@V?$_Tmap_traits@PAVBrush@@HU?$less@PAVBrush@@@std@@V?$allocator@U?$pair@QAVBrush@@H@std@@@3@$0A@@std@@@2@PAU342@00ABU?$pair@QAVBrush@@H@2@D@Z 0040a420 f i DlgBar.obj
 0001:00009420       ?_Buynode@?$_Tree@V?$_Tmap_traits@HHU?$less@H@std@@V?$allocator@U?$pair@$$CBHH@std@@@2@$0A@@std@@@std@@IAEPAU_Node@?$_Tree_nod@V?$_Tmap_traits@HHU?$less@H@std@@V?$allocator@U?$pair@$$CBHH@std@@@2@$0A@@std@@@2@PAU342@00ABU?$pair@$$CBHH@2@D@Z 0040a420 f i BspTree.obj
 0001:00009420       ?_Buynode@?$_Tree@V?$_Tmap_traits@PAVCDialog@@IU?$less@PAVCDialog@@@std@@V?$allocator@U?$pair@QAVCDialog@@I@std@@@3@$0A@@std@@@std@@IAEPAU_Node@?$_Tree_nod@V?$_Tmap_traits@PAVCDialog@@IU?$less@PAVCDialog@@@std@@V?$allocator@U?$pair@QAVCDialog@@I@std@@@3@$0A@@std@@@2@PAU342@00ABU?$pair@QAVCDialog@@I@2@D@Z 0040a420 f i TabDlgSel.obj
 0001:00009510       ??1out_of_range@std@@UAE@XZ 0040a510 f i BspTree.obj
 0001:00009550       ??_Eout_of_range@std@@UAEPAXI@Z 0040a550 f i BspTree.obj
 0001:00009550       ??_Gout_of_range@std@@UAEPAXI@Z 0040a550 f i BspTree.obj
 0001:000095a0       ??0out_of_range@std@@QAE@ABV01@@Z 0040a5a0 f i BspTree.obj
 0001:000095d0       ?allocate@?$allocator@U_Node@?$_Tree_nod@V?$_Tset_traits@PAVPoly@@U?$less@PAVPoly@@@std@@V?$allocator@PAVPoly@@@3@$0A@@std@@@std@@@std@@QAEPAU_Node@?$_Tree_nod@V?$_Tset_traits@PAVPoly@@U?$less@PAVPoly@@@std@@V?$allocator@PAVPoly@@@3@$0A@@std@@@2@I@Z 0040a5d0 f i DialogEvalDets.obj
 0001:000095d0       ?allocate@?$allocator@U_Node@?$_Tree_nod@V?$_Tset_traits@IU?$less@I@std@@V?$allocator@I@2@$0A@@std@@@std@@@std@@QAEPAU_Node@?$_Tree_nod@V?$_Tset_traits@IU?$less@I@std@@V?$allocator@I@2@$0A@@std@@@2@I@Z 0040a5d0 f i DlgConsole.obj
 0001:000095d0       ?allocate@?$allocator@U_Node@?$_Tree_nod@V?$_Tset_traits@PAVBrush@@U?$less@PAVBrush@@@std@@V?$allocator@PAVBrush@@@3@$0A@@std@@@std@@@std@@QAEPAU_Node@?$_Tree_nod@V?$_Tset_traits@PAVBrush@@U?$less@PAVBrush@@@std@@V?$allocator@PAVBrush@@@3@$0A@@std@@@2@I@Z 0040a5d0 f i DialogEvalDets.obj
 0001:000095d0       ?allocate@?$allocator@U_Node@?$_Tree_nod@V?$_Tset_traits@PAVV3@@U?$less@PAVV3@@@std@@V?$allocator@PAVV3@@@3@$0A@@std@@@std@@@std@@QAEPAU_Node@?$_Tree_nod@V?$_Tset_traits@PAVV3@@U?$less@PAVV3@@@std@@V?$allocator@PAVV3@@@3@$0A@@std@@@2@I@Z 0040a5d0 f i z_ed2DocDraw.obj
 0001:000095d0       ?allocate@?$allocator@U_Node@?$_Tree_nod@V?$_Tset_traits@HU?$less@H@std@@V?$allocator@H@2@$0A@@std@@@std@@@std@@QAEPAU_Node@?$_Tree_nod@V?$_Tset_traits@HU?$less@H@std@@V?$allocator@H@2@$0A@@std@@@2@I@Z 0040a5d0 f i BspTree.obj
 0001:000095f0       ?_Dec@const_iterator@?$_Tree@V?$_Tset_traits@PAVBrush@@U?$less@PAVBrush@@@std@@V?$allocator@PAVBrush@@@3@$0A@@std@@@std@@QAEXXZ 0040a5f0 f i DialogEvalDets.obj
 0001:000095f0       ?_Dec@const_iterator@?$_Tree@V?$_Tset_traits@PAVV3@@U?$less@PAVV3@@@std@@V?$allocator@PAVV3@@@3@$0A@@std@@@std@@QAEXXZ 0040a5f0 f i z_ed2DocDraw.obj
 0001:000095f0       ?_Dec@const_iterator@?$_Tree@V?$_Tset_traits@PAVPoly@@U?$less@PAVPoly@@@std@@V?$allocator@PAVPoly@@@3@$0A@@std@@@std@@QAEXXZ 0040a5f0 f i DialogEvalDets.obj
 0001:000095f0       ?_Dec@const_iterator@?$_Tree@V?$_Tset_traits@HU?$less@H@std@@V?$allocator@H@2@$0A@@std@@@std@@QAEXXZ 0040a5f0 f i BspTree.obj
 0001:000095f0       ?_Dec@const_iterator@?$_Tree@V?$_Tset_traits@IU?$less@I@std@@V?$allocator@I@2@$0A@@std@@@std@@QAEXXZ 0040a5f0 f i DlgBrshProp.obj
 0001:000096f0       ?allocate@?$allocator@D@std@@QAEPADI@Z 0040a6f0 f i BspTree.obj
 0001:00009710       ?_Insert_n@?$vector@VPoly@@V?$allocator@VPoly@@@std@@@std@@IAEXV?$_Vector_const_iterator@VPoly@@V?$allocator@VPoly@@@std@@@2@IABVPoly@@@Z 0040a710 f i BspTree.obj
 0001:0000a130       ?_Insert_n@?$vector@VPlane@@V?$allocator@VPlane@@@std@@@std@@IAEXV?$_Vector_const_iterator@VPlane@@V?$allocator@VPlane@@@std@@@2@IABVPlane@@@Z 0040b130 f i BspTree.obj
 0001:0000abc0       ??Y?$_Vector_const_iterator@VPlane@@V?$allocator@VPlane@@@std@@@std@@QAEAAV01@H@Z 0040bbc0 f i BspTree.obj
 0001:0000ac80       ??Y?$_Vector_const_iterator@VPoly@@V?$allocator@VPoly@@@std@@@std@@QAEAAV01@H@Z 0040bc80 f i BspTree.obj
 0001:0000ad50       ??$tmin@M@@YAMMM@Z         0040bd50 f i BspTree.obj
 0001:0000ad80       ??$tmax@M@@YAMMM@Z         0040bd80 f i BspTree.obj
 0001:0000adb0       ??$_Allocate@VPoly@@@std@@YAPAVPoly@@IPAV1@@Z 0040bdb0 f i BspTree.obj
 0001:0000ae20       ??1bad_alloc@std@@UAE@XZ   0040be20 f i BspTree.obj
 0001:0000ae40       ??_Gbad_alloc@std@@UAEPAXI@Z 0040be40 f i BspTree.obj
 0001:0000ae40       ??_Ebad_alloc@std@@UAEPAXI@Z 0040be40 f i BspTree.obj
 0001:0000ae80       ??$_Allocate@PAVTerLeaf@@@std@@YAPAPAVTerLeaf@@IPAPAV1@@Z 0040be80 f i TerTree.obj
 0001:0000ae80       ??$_Allocate@PAVSceItem@@@std@@YAPAPAVSceItem@@IPAPAV1@@Z 0040be80 f i z_ed2Doc.obj
 0001:0000ae80       ??$_Allocate@PAULmSizeBuff@@@std@@YAPAPAULmSizeBuff@@IPAPAU1@@Z 0040be80 f i Compiler.obj
 0001:0000ae80       ??$_Allocate@PAUHWND__@@@std@@YAPAPAUHWND__@@IPAPAU1@@Z 0040be80 f i VertDlgDlg.obj
 0001:0000ae80       ??$_Allocate@PAVBrush@@@std@@YAPAPAVBrush@@IPAPAV1@@Z 0040be80 f i Compiler.obj
 0001:0000ae80       ??$_Allocate@PAVCLeaf@@@std@@YAPAPAVCLeaf@@IPAPAV1@@Z 0040be80 f i BspTree.obj
 0001:0000ae80       ??$_Allocate@PAVPlane@@@std@@YAPAPAVPlane@@IPAPAV1@@Z 0040be80 f i BspTree.obj
 0001:0000ae80       ??$_Allocate@V_Aux_cont@std@@@std@@YAPAV_Aux_cont@0@IPAV10@@Z 0040be80 f i BspTree.obj
 0001:0000ae80       ??$_Allocate@M@std@@YAPAMIPAM@Z 0040be80 f i TerTree.obj
 0001:0000ae80       ??$_Allocate@PAUPortalData@@@std@@YAPAPAUPortalData@@IPAPAU1@@Z 0040be80 f i Compiler.obj
 0001:0000ae80       ??$_Allocate@PAVV3@@@std@@YAPAPAVV3@@IPAPAV1@@Z 0040be80 f i z_ed2View.obj
 0001:0000ae80       ??$_Allocate@PAVScriptItem@@@std@@YAPAPAVScriptItem@@IPAPAV1@@Z 0040be80 f i z_ed2Doc.obj
 0001:0000ae80       ??$_Allocate@PAVCBaseDlg@@@std@@YAPAPAVCBaseDlg@@IPAPAV1@@Z 0040be80 f i DlgBar.obj
 0001:0000ae80       ??$_Allocate@K@std@@YAPAKIPAK@Z 0040be80 f i CompilerStream.obj
 0001:0000ae80       ??$_Allocate@PAUSpr@?$TaskClass@VBrush@@@@@std@@YAPAPAUSpr@?$TaskClass@VBrush@@@@IPAPAU12@@Z 0040be80 f i brush.obj
 0001:0000ae80       ??$_Allocate@PAVCMiniNode@@@std@@YAPAPAVCMiniNode@@IPAPAV1@@Z 0040be80 f i BspTree.obj
 0001:0000ae80       ??$_Allocate@PAUSBytes@@@std@@YAPAPAUSBytes@@IPAPAU1@@Z 0040be80 f i Compiler.obj
 0001:0000ae80       ??$_Allocate@PAVCMotion@@@std@@YAPAPAVCMotion@@IPAPAV1@@Z 0040be80 f i z_ed2Doc.obj
 0001:0000ae80       ??$_Allocate@PAVPoly@@@std@@YAPAPAVPoly@@IPAPAV1@@Z 0040be80 f i BspTree.obj
 0001:0000ae80       ??$_Allocate@PAVCSoundItem@@@std@@YAPAPAVCSoundItem@@IPAPAV1@@Z 0040be80 f i z_ed2Doc.obj
 0001:0000ae80       ??$_Allocate@PAVVtx2@@@std@@YAPAPAVVtx2@@IPAPAV1@@Z 0040be80 f i z_ed2Doc.obj
 0001:0000ae80       ??$_Allocate@PAVCLightBulb@@@std@@YAPAPAVCLightBulb@@IPAPAV1@@Z 0040be80 f i LMProc.obj
 0001:0000ae80       ??$_Allocate@PAD@std@@YAPAPADIPAPAD@Z 0040be80 f i Scene.obj
 0001:0000ae80       ??$_Allocate@PAV?$map@HHU?$less@H@std@@V?$allocator@U?$pair@$$CBHH@std@@@2@@std@@@std@@YAPAPAV?$map@HHU?$less@H@std@@V?$allocator@U?$pair@$$CBHH@std@@@2@@0@IPAPAV10@@Z 0040be80 f i CompilerStream.obj
 0001:0000ae80       ??$_Allocate@H@std@@YAPAHIPAH@Z 0040be80 f i BspTree.obj
 0001:0000ae80       ??$_Allocate@PAVCBspTree@@@std@@YAPAPAVCBspTree@@IPAPAV1@@Z 0040be80 f i BspTree.obj
 0001:0000ae80       ??$_Allocate@PAVTerNode@@@std@@YAPAPAVTerNode@@IPAPAV1@@Z 0040be80 f i TerTree.obj
 0001:0000ae80       ??$_Allocate@VCLR@@@std@@YAPAVCLR@@IPAV1@@Z 0040be80 f i z_ed2DocSave.obj
 0001:0000ae80       ??$_Allocate@PAUGroup@CVertDlgDlg@@@std@@YAPAPAUGroup@CVertDlgDlg@@IPAPAU12@@Z 0040be80 f i VertDlgDlg.obj
 0001:0000aee0       ??$_Allocate@U_Node@?$_Tree_nod@V?$_Tset_traits@IU?$less@I@std@@V?$allocator@I@2@$0A@@std@@@std@@@std@@YAPAU_Node@?$_Tree_nod@V?$_Tset_traits@IU?$less@I@std@@V?$allocator@I@2@$0A@@std@@@0@IPAU120@@Z 0040bee0 f i DlgConsole.obj
 0001:0000aee0       ??$_Allocate@U_Node@?$_Tree_nod@V?$_Tset_traits@PAVBrush@@U?$less@PAVBrush@@@std@@V?$allocator@PAVBrush@@@3@$0A@@std@@@std@@@std@@YAPAU_Node@?$_Tree_nod@V?$_Tset_traits@PAVBrush@@U?$less@PAVBrush@@@std@@V?$allocator@PAVBrush@@@3@$0A@@std@@@0@IPAU120@@Z 0040bee0 f i DialogEvalDets.obj
 0001:0000aee0       ??$_Allocate@VPlane@@@std@@YAPAVPlane@@IPAV1@@Z 0040bee0 f i BspTree.obj
 0001:0000aee0       ??$_Allocate@U_Node@?$_Tree_nod@V?$_Tset_traits@HU?$less@H@std@@V?$allocator@H@2@$0A@@std@@@std@@@std@@YAPAU_Node@?$_Tree_nod@V?$_Tset_traits@HU?$less@H@std@@V?$allocator@H@2@$0A@@std@@@0@IPAU120@@Z 0040bee0 f i BspTree.obj
 0001:0000aee0       ??$_Allocate@U_Node@?$_Tree_nod@V?$_Tset_traits@PAVPoly@@U?$less@PAVPoly@@@std@@V?$allocator@PAVPoly@@@3@$0A@@std@@@std@@@std@@YAPAU_Node@?$_Tree_nod@V?$_Tset_traits@PAVPoly@@U?$less@PAVPoly@@@std@@V?$allocator@PAVPoly@@@3@$0A@@std@@@0@IPAU120@@Z 0040bee0 f i DialogEvalDets.obj
 0001:0000aee0       ??$_Allocate@U_Node@?$_Tree_nod@V?$_Tset_traits@PAVV3@@U?$less@PAVV3@@@std@@V?$allocator@PAVV3@@@3@$0A@@std@@@std@@@std@@YAPAU_Node@?$_Tree_nod@V?$_Tset_traits@PAVV3@@U?$less@PAVV3@@@std@@V?$allocator@PAVV3@@@3@$0A@@std@@@0@IPAU120@@Z 0040bee0 f i z_ed2DocDraw.obj
 0001:0000af40       ??$_Allocate@D@std@@YAPADIPAD@Z 0040bf40 f i BspTree.obj
 0001:0000afa0       ??0bad_alloc@std@@QAE@ABV01@@Z 0040bfa0 f i BspTree.obj
 0001:0000afd0       ??$_Unchecked_uninitialized_move@V?$_Vector_iterator@VPoly@@V?$allocator@VPoly@@@std@@@std@@PAVPoly@@V?$allocator@VPoly@@@2@@stdext@@YAPAVPoly@@V?$_Vector_iterator@VPoly@@V?$allocator@VPoly@@@std@@@std@@0PAV1@AAV?$allocator@VPoly@@@3@@Z 0040bfd0 f i BspTree.obj
 0001:0000b050       ??$_Uninit_fill_n@PAVPoly@@IV1@V?$allocator@VPoly@@@std@@@std@@YAXPAVPoly@@IABV1@AAV?$allocator@VPoly@@@0@U_Nonscalar_ptr_iterator_tag@0@U_Range_checked_iterator_tag@0@@Z 0040c050 f i BspTree.obj
 0001:0000b150       ??$_Uninit_fill_n@PAVPlane@@IV1@V?$allocator@VPlane@@@std@@@std@@YAXPAVPlane@@IABV1@AAV?$allocator@VPlane@@@0@U_Nonscalar_ptr_iterator_tag@0@U_Range_checked_iterator_tag@0@@Z 0040c150 f i BspTree.obj
 0001:0000b210       ??$_Unchecked_uninitialized_move@PAVPoly@@PAV1@V?$allocator@VPoly@@@std@@@stdext@@YAPAVPoly@@PAV1@00AAV?$allocator@VPoly@@@std@@@Z 0040c210 f i BspTree.obj
 0001:0000b290       ??$_Move_backward_opt@PAVPoly@@PAV1@Urandom_access_iterator_tag@std@@U_Undefined_move_tag@3@@std@@YAPAVPoly@@PAV1@00Urandom_access_iterator_tag@0@U_Undefined_move_tag@0@U_Range_checked_iterator_tag@0@@Z 0040c290 f i BspTree.obj
 0001:0000b330       ??$_Unchecked_uninitialized_move@PAVPlane@@PAV1@V?$allocator@VPlane@@@std@@@stdext@@YAPAVPlane@@PAV1@00AAV?$allocator@VPlane@@@std@@@Z 0040c330 f i BspTree.obj
 0001:0000b3b0       ??$_Move_backward_opt@PAVPlane@@PAV1@Urandom_access_iterator_tag@std@@U_Undefined_move_tag@3@@std@@YAPAVPlane@@PAV1@00Urandom_access_iterator_tag@0@U_Undefined_move_tag@0@U_Range_checked_iterator_tag@0@@Z 0040c3b0 f i BspTree.obj
 0001:0000b3f0       ??$_Copy_backward_opt@PAVPlane@@PAV1@@std@@YAPAVPlane@@PAV1@00Urandom_access_iterator_tag@0@U_Nonscalar_ptr_iterator_tag@0@U_Range_checked_iterator_tag@0@@Z 0040c3f0 f i BspTree.obj
 0001:0000b490       ??$_Construct@VPlane@@V1@@std@@YAXPAVPlane@@ABV1@@Z 0040c490 f i BspTree.obj
 0001:0000b510       ??$unchecked_uninitialized_copy@PAVPoly@@PAV1@V?$allocator@VPoly@@@std@@@stdext@@YAPAVPoly@@PAV1@00AAV?$allocator@VPoly@@@std@@@Z 0040c510 f i BspTree.obj
 0001:0000b560       ??$unchecked_uninitialized_copy@PAVPlane@@PAV1@V?$allocator@VPlane@@@std@@@stdext@@YAPAVPlane@@PAV1@00AAV?$allocator@VPlane@@@std@@@Z 0040c560 f i BspTree.obj
 0001:0000b5b0       ??$_Uninit_copy@PAVPlane@@PAV1@V?$allocator@VPlane@@@std@@@std@@YAPAVPlane@@PAV1@00AAV?$allocator@VPlane@@@0@U_Nonscalar_ptr_iterator_tag@0@U_Range_checked_iterator_tag@0@@Z 0040c5b0 f i BspTree.obj
 0001:0000b680       ??0Compiler@@QAE@XZ        0040c680 f   Compiler.obj
 0001:0000bb60       ??0Cthread@getae_thread@@QAE@XZ 0040cb60 f i Compiler.obj
 0001:0000bbe0       ??1Cthread@getae_thread@@QAE@XZ 0040cbe0 f i Compiler.obj
 0001:0000bc00       ?Start@Cthread@getae_thread@@UAEHXZ 0040cc00 f i Compiler.obj
 0001:0000bda0       ?Stop@Cthread@getae_thread@@UAEXXZ 0040cda0 f i Compiler.obj
 0001:0000be50       ?Kill@Cthread@getae_thread@@QAEXXZ 0040ce50 f i Compiler.obj
 0001:0000bed0       ?SafeCloseHandlers@Cthread@getae_thread@@IAEXXZ 0040ced0 f i Compiler.obj
 0001:0000bf60       ??1PortalPRC@@QAE@XZ       0040cf60 f i Compiler.obj
 0001:0000bfe0       ??1?$vector@VPortal@@V?$allocator@VPortal@@@std@@@std@@QAE@XZ 0040cfe0 f i PortalPRC.obj
 0001:0000bfe0       ??1?$vvector@VPortal@@@@QAE@XZ 0040cfe0 f i Compiler.obj
 0001:0000c050       ??0PVSPrc@@QAE@XZ          0040d050 f i Compiler.obj
 0001:0000c0d0       ??1PVSPrc@@UAE@XZ          0040d0d0 f i Compiler.obj
 0001:0000c160       ??_EPVSPrc@@UAEPAXI@Z      0040d160 f i Compiler.obj
 0001:0000c160       ??_GPVSPrc@@UAEPAXI@Z      0040d160 f i Compiler.obj
 0001:0000c190       ??1CFlowPath@@UAE@XZ       0040d190 f i Compiler.obj
 0001:0000c210       ??_GCFlowPath@@UAEPAXI@Z   0040d210 f i Compiler.obj
 0001:0000c210       ??_ECFlowPath@@UAEPAXI@Z   0040d210 f i Compiler.obj
 0001:0000c2a0       ??0LMProc@@QAE@XZ          0040d2a0 f i Compiler.obj
 0001:0000c320       ??_GLMProc@@UAEPAXI@Z      0040d320 f i Compiler.obj
 0001:0000c320       ??_ELMProc@@UAEPAXI@Z      0040d320 f i Compiler.obj
 0001:0000c350       ?GetThreadProc@Compiler@@MAEP6GIPAX@ZXZ 0040d350 f i Compiler.obj
 0001:0000c360       ?CompilerThrCallback@Compiler@@KGIPAX@Z 0040d360 f i Compiler.obj
 0001:0000c3b0       ??_ECompiler@@UAEPAXI@Z    0040d3b0 f i Compiler.obj
 0001:0000c3b0       ??_GCompiler@@UAEPAXI@Z    0040d3b0 f i Compiler.obj
 0001:0000c3f0       ??1Compiler@@UAE@XZ        0040d3f0 f i Compiler.obj
 0001:0000c610       ?Compile@Compiler@@QAEHAAVScene@@@Z 0040d610 f   Compiler.obj
 0001:0000cab0       ?EstablishTrigerLinks@Compiler@@AAEXPAVBrush@@H@Z 0040dab0 f   Compiler.obj
 0001:0000cbd0       ?_CheckBrushes@Compiler@@AAEHH@Z 0040dbd0 f   Compiler.obj
 0001:0000cdd0       ?_RecutSelectedBrushes@Compiler@@AAEXXZ 0040ddd0 f   Compiler.obj
 0001:0000cea0       ?GetSelBrushes@CZ_ed2Doc@@QAEPAPAVBrush@@AAH@Z 0040dea0 f i Compiler.obj
 0001:0000cf10       ?MainFoo@Compiler@@IAEIQAX@Z 0040df10 f   Compiler.obj
 0001:0000e330       ?GetExtends@Box@@QBE?AVV3@@XZ 0040f330 f i Compiler.obj
 0001:0000e3b0       ?GetCenter@Box@@QBE?AVV3@@XZ 0040f3b0 f i Compiler.obj
 0001:0000e460       ?CompileTerrain@Compiler@@QAEHXZ 0040f460 f   Compiler.obj
 0001:0000e490       ?PerformHSR@Compiler@@QAEHPAV?$vvector@PAVBrush@@@@@Z 0040f490 f   Compiler.obj
 0001:0000ed60       ??1CWaitCursor@@QAE@XZ     0040fd60 f i Compiler.obj
 0001:0000eef0       ?Union@Compiler@@SAHAAV?$vvector@PAVBrush@@@@AAVBrush@@H@Z 0040fef0 f   Compiler.obj
 0001:0000f820       ?Render@Compiler@@QAEXPAVz_ed3View@@K@Z 00410820 f   Compiler.obj
 0001:0000f8c0       ?PerformESR@Compiler@@AAEHPAV?$vvector@PAVBrush@@@@@Z 004108c0 f   Compiler.obj
 0001:00010b30       ?GetLeaf@PortalPRC@@QAEPAVCLeaf@@H@Z 00411b30 f i Compiler.obj
 0001:00010b90       ?R_FloodBSP@Compiler@@AAEXAAVCBspTree@@AAVPortalPRC@@HPAE@Z 00411b90 f   Compiler.obj
 0001:00010da0       ?LinkDetailsToMainBsp@Compiler@@AAEXXZ 00411da0 f   Compiler.obj
 0001:00011070       ?ZoneAreea@Compiler@@AAEXPAVSceItem@@@Z 00412070 f   Compiler.obj
 0001:000110d0       ?ZoneAreea@Compiler@@AAEXPAVCBspTree@@H@Z 004120d0 f   Compiler.obj
 0001:00011180       ?ZoneMainBSP@Compiler@@AAEXPAVCBspTree@@@Z 00412180 f   Compiler.obj
 0001:000113d0       ?GetZone@Compiler@@QAEPAVBrush@@AAVV3@@@Z 004123d0 f   Compiler.obj
 0001:00011440       ?ContainPoint@Box@@QBEHABVV3@@@Z 00412440 f i Compiler.obj
 0001:000114e0       ?GetZone@Compiler@@QAEPAVBrush@@AAVBox@@PAH@Z 004124e0 f   Compiler.obj
 0001:00011590       ?SortBrushes@Compiler@@AAEXAAV?$vvector@PAVBrush@@@@@Z 00412590 f   Compiler.obj
 0001:00011830       ?_ManuaIntersectZones@Compiler@@AAEXXZ 00412830 f   Compiler.obj
 0001:00011920       ?AutomateZoneVisibility@Compiler@@AAEXPAVCBspTree@@@Z 00412920 f   Compiler.obj
 0001:00011f10       ?PerformLmapCalculation@Compiler@@AAEHPAVCBspTree@@@Z 00412f10 f   Compiler.obj
 0001:00011f80       ?CommitChanges@Compiler@@QAEXXZ 00412f80 f   Compiler.obj
 0001:00012250       ?DoLightMaps@Compiler@@QAEKXZ 00413250 f   Compiler.obj
 0001:000122e0       ?Clear@Compiler@@QAEXXZ    004132e0 f   Compiler.obj
 0001:00012750       ?FromRegistry@Compiler@@QAEXH@Z 00413750 f   Compiler.obj
 0001:00013430       ??0?$CStringT@DV?$StrTraitMFC@DV?$ChTraitsCRT@D@ATL@@@@@ATL@@QAE@XZ 00414430 f i Compiler.obj
 0001:00013490       ?AtlThrowImpl@ATL@@YGXJ@Z  00414490 f i Compiler.obj
 0001:000134b0       ??1?$CStringT@DV?$StrTraitMFC@DV?$ChTraitsCRT@D@ATL@@@@@ATL@@QAE@XZ 004144b0 f i Compiler.obj
 0001:000134d0       ??4?$vector@VPoly@@V?$allocator@VPoly@@@std@@@std@@QAEAAV01@ABV01@@Z 004144d0 f i Compiler.obj
 0001:00013980       ?back@?$vector@PAVSceItem@@V?$allocator@PAVSceItem@@@std@@@std@@QAEAAPAVSceItem@@XZ 00414980 f i z_ed2Doc.obj
 0001:00013980       ?back@?$vector@PAVBrush@@V?$allocator@PAVBrush@@@std@@@std@@QAEAAPAVBrush@@XZ 00414980 f i z_ed2Doc.obj
 0001:00013980       ?back@?$vector@PAVCBspTree@@V?$allocator@PAVCBspTree@@@std@@@std@@QAEAAPAVCBspTree@@XZ 00414980 f i Compiler.obj
 0001:00013980       ?back@?$vector@PAVPoly@@V?$allocator@PAVPoly@@@std@@@std@@QAEAAPAVPoly@@XZ 00414980 f i z_ed2Doc.obj
 0001:00013a00       ??0?$vvector@VPortal@@@@QAE@XZ 00414a00 f i Compiler.obj
 0001:00013a40       ?deleteelements@?$vvector@PAUSBytes@@@@QAEXXZ 00414a40 f i Compiler.obj
 0001:00013b80       ?getindex@?$vvector@PAVCMotion@@@@QAEIAAPAVCMotion@@@Z 00414b80 f i Compiler.obj
 0001:00013c50       ??A?$map@HV?$vector@PAVCLeaf@@V?$allocator@PAVCLeaf@@@std@@@std@@U?$less@H@2@V?$allocator@U?$pair@$$CBHV?$vector@PAVCLeaf@@V?$allocator@PAVCLeaf@@@std@@@std@@@std@@@2@@std@@QAEAAV?$vector@PAVCLeaf@@V?$allocator@PAVCLeaf@@@std@@@1@ABH@Z 00414c50 f i Compiler.obj
 0001:00013e30       ??1?$map@HV?$vector@PAVCLeaf@@V?$allocator@PAVCLeaf@@@std@@@std@@U?$less@H@2@V?$allocator@U?$pair@$$CBHV?$vector@PAVCLeaf@@V?$allocator@PAVCLeaf@@@std@@@std@@@std@@@2@@std@@QAE@XZ 00414e30 f i Compiler.obj
 0001:00013e30       ??1?$_Tree@V?$_Tmap_traits@HV?$vector@PAVCLeaf@@V?$allocator@PAVCLeaf@@@std@@@std@@U?$less@H@2@V?$allocator@U?$pair@$$CBHV?$vector@PAVCLeaf@@V?$allocator@PAVCLeaf@@@std@@@std@@@std@@@2@$0A@@std@@@std@@QAE@XZ 00414e30 f i Compiler.obj
 0001:00013eb0       ??1?$pair@$$CBHV?$vector@PAVCLeaf@@V?$allocator@PAVCLeaf@@@std@@@std@@@std@@QAE@XZ 00414eb0 f i Compiler.obj
 0001:00013f20       ??1?$CSimpleStringT@D$0A@@ATL@@QAE@XZ 00414f20 f i Compiler.obj
 0001:00013f60       ?clear@?$vector@VPoly@@V?$allocator@VPoly@@@std@@@std@@QAEXXZ 00414f60 f i Compiler.obj
 0001:00014050       ?_Tidy@?$vector@VPortal@@V?$allocator@VPortal@@@std@@@std@@IAEXXZ 00415050 f i Compiler.obj
 0001:00014110       ??0?$vector@UFlowNode@@V?$allocator@UFlowNode@@@std@@@std@@QAE@XZ 00415110 f i Compiler.obj
 0001:000141f0       ?_Tidy@?$vector@UFlowNode@@V?$allocator@UFlowNode@@@std@@@std@@IAEXXZ 004151f0 f i Compiler.obj
 0001:000142a0       ??G?$_Vector_iterator@PAVBrush@@V?$allocator@PAVBrush@@@std@@@std@@QBEHABV?$_Vector_const_iterator@PAVBrush@@V?$allocator@PAVBrush@@@std@@@1@@Z 004152a0 f i DialogEvalDets.obj
 0001:000142a0       ??G?$_Vector_iterator@PAVSceItem@@V?$allocator@PAVSceItem@@@std@@@std@@QBEHABV?$_Vector_const_iterator@PAVSceItem@@V?$allocator@PAVSceItem@@@std@@@1@@Z 004152a0 f i z_ed2Doc.obj
 0001:000142a0       ??G?$_Vector_iterator@VCLR@@V?$allocator@VCLR@@@std@@@std@@QBEHABV?$_Vector_const_iterator@VCLR@@V?$allocator@VCLR@@@std@@@1@@Z 004152a0 f i z_ed2DocSave.obj
 0001:000142a0       ??G?$_Vector_iterator@PAVCMotion@@V?$allocator@PAVCMotion@@@std@@@std@@QBEHABV?$_Vector_const_iterator@PAVCMotion@@V?$allocator@PAVCMotion@@@std@@@1@@Z 004152a0 f i Compiler.obj
 0001:000142a0       ??G?$_Vector_iterator@PAVVtx2@@V?$allocator@PAVVtx2@@@std@@@std@@QBEHABV?$_Vector_const_iterator@PAVVtx2@@V?$allocator@PAVVtx2@@@std@@@1@@Z 004152a0 f i z_ed2Doc.obj
 0001:000142a0       ??G?$_Vector_iterator@PAVPoly@@V?$allocator@PAVPoly@@@std@@@std@@QBEHABV?$_Vector_const_iterator@PAVPoly@@V?$allocator@PAVPoly@@@std@@@1@@Z 004152a0 f i DialogEvalDets.obj
 0001:000142f0       ??0?$_Tree@V?$_Tmap_traits@HV?$vector@PAVCLeaf@@V?$allocator@PAVCLeaf@@@std@@@std@@U?$less@H@2@V?$allocator@U?$pair@$$CBHV?$vector@PAVCLeaf@@V?$allocator@PAVCLeaf@@@std@@@std@@@std@@@2@$0A@@std@@@std@@QAE@ABU?$less@H@1@ABV?$allocator@U?$pair@$$CBHV?$vector@PAVCLeaf@@V?$allocator@PAVCLeaf@@@std@@@std@@@std@@@1@@Z 004152f0 f i Compiler.obj
 0001:00014390       ?insert@?$_Tree@V?$_Tmap_traits@HV?$vector@PAVCLeaf@@V?$allocator@PAVCLeaf@@@std@@@std@@U?$less@H@2@V?$allocator@U?$pair@$$CBHV?$vector@PAVCLeaf@@V?$allocator@PAVCLeaf@@@std@@@std@@@std@@@2@$0A@@std@@@std@@QAE?AViterator@12@Vconst_iterator@12@ABU?$pair@$$CBHV?$vector@PAVCLeaf@@V?$allocator@PAVCLeaf@@@std@@@std@@@2@@Z 00415390 f i Compiler.obj
 0001:00014ae0       ?_Tidy@?$_Tree@V?$_Tmap_traits@HV?$vector@PAVCLeaf@@V?$allocator@PAVCLeaf@@@std@@@std@@U?$less@H@2@V?$allocator@U?$pair@$$CBHV?$vector@PAVCLeaf@@V?$allocator@PAVCLeaf@@@std@@@std@@@std@@@2@$0A@@std@@@std@@IAEXXZ 00415ae0 f i Compiler.obj
 0001:00014bf0       ?SetString@?$CSimpleStringT@D$0A@@ATL@@QAEXPBDH@Z 00415bf0 f i Compiler.obj
 0001:00014d20       ?Empty@?$CSimpleStringT@D$0A@@ATL@@QAEXXZ 00415d20 f i Compiler.obj
 0001:00014de0       ?PrepareWrite2@?$CSimpleStringT@D$0A@@ATL@@AAEXH@Z 00415de0 f i Compiler.obj
 0001:00014e80       ?erase@?$vector@VPoly@@V?$allocator@VPoly@@@std@@@std@@QAE?AV?$_Vector_iterator@VPoly@@V?$allocator@VPoly@@@std@@@2@V?$_Vector_const_iterator@VPoly@@V?$allocator@VPoly@@@std@@@2@0@Z 00415e80 f i Compiler.obj
 0001:00014fb0       ??0?$vector@HV?$allocator@H@std@@@std@@QAE@ABV01@@Z 00415fb0 f i z_ed2DocSave.obj
 0001:00014fb0       ??0?$vector@PAVCLeaf@@V?$allocator@PAVCLeaf@@@std@@@std@@QAE@ABV01@@Z 00415fb0 f i Compiler.obj
 0001:00014fb0       ??0?$vector@PAVBrush@@V?$allocator@PAVBrush@@@std@@@std@@QAE@ABV01@@Z 00415fb0 f i z_ed2Doc.obj
 0001:000151b0       ?_Buy@?$vector@UXmlFace@@V?$allocator@UXmlFace@@@std@@@std@@IAE_NI@Z 004161b0 f i z_ed2DocSave.obj
 0001:000151b0       ?_Buy@?$vector@VPortal@@V?$allocator@VPortal@@@std@@@std@@IAE_NI@Z 004161b0 f i Compiler.obj
 0001:00015270       ?_Buy@?$vector@UFlowNode@@V?$allocator@UFlowNode@@@std@@@std@@IAE_NI@Z 00416270 f i Compiler.obj
 0001:00015340       ?insert@?$_Tree@V?$_Tmap_traits@HV?$vector@PAVCLeaf@@V?$allocator@PAVCLeaf@@@std@@@std@@U?$less@H@2@V?$allocator@U?$pair@$$CBHV?$vector@PAVCLeaf@@V?$allocator@PAVCLeaf@@@std@@@std@@@std@@@2@$0A@@std@@@std@@QAE?AU?$pair@Viterator@?$_Tree@V?$_Tmap_traits@HV?$vector@PAVCLeaf@@V?$allocator@PAVCLeaf@@@std@@@std@@U?$less@H@2@V?$allocator@U?$pair@$$CBHV?$vector@PAVCLeaf@@V?$allocator@PAVCLeaf@@@std@@@std@@@std@@@2@$0A@@std@@@std@@_N@2@ABU?$pair@$$CBHV?$vector@PAVCLeaf@@V?$allocator@PAVCLeaf@@@std@@@std@@@2@@Z 00416340 f i Compiler.obj
 0001:00015590       ?erase@?$_Tree@V?$_Tmap_traits@HV?$vector@PAVCLeaf@@V?$allocator@PAVCLeaf@@@std@@@std@@U?$less@H@2@V?$allocator@U?$pair@$$CBHV?$vector@PAVCLeaf@@V?$allocator@PAVCLeaf@@@std@@@std@@@std@@@2@$0A@@std@@@std@@QAE?AViterator@12@Vconst_iterator@12@0@Z 00416590 f i Compiler.obj
 0001:00015790       ?_Init@?$_Tree@V?$_Tmap_traits@HV?$vector@PAVCLeaf@@V?$allocator@PAVCLeaf@@@std@@@std@@U?$less@H@2@V?$allocator@U?$pair@$$CBHV?$vector@PAVCLeaf@@V?$allocator@PAVCLeaf@@@std@@@std@@@std@@@2@$0A@@std@@@std@@IAEXXZ 00416790 f i Compiler.obj
 0001:00015800       ?_Insert@?$_Tree@V?$_Tmap_traits@HV?$vector@PAVCLeaf@@V?$allocator@PAVCLeaf@@@std@@@std@@U?$less@H@2@V?$allocator@U?$pair@$$CBHV?$vector@PAVCLeaf@@V?$allocator@PAVCLeaf@@@std@@@std@@@std@@@2@$0A@@std@@@std@@IAE?AViterator@12@_NPAU_Node@?$_Tree_nod@V?$_Tmap_traits@HV?$vector@PAVCLeaf@@V?$allocator@PAVCLeaf@@@std@@@std@@U?$less@H@2@V?$allocator@U?$pair@$$CBHV?$vector@PAVCLeaf@@V?$allocator@PAVCLeaf@@@std@@@std@@@std@@@2@$0A@@std@@@2@ABU?$pair@$$CBHV?$vector@PAVCLeaf@@V?$allocator@PAVCLeaf@@@std@@@std@@@2@@Z 00416800 f i Compiler.obj
 0001:00015be0       ?_Lbound@?$_Tree@V?$_Tmap_traits@HV?$vector@PAVCLeaf@@V?$allocator@PAVCLeaf@@@std@@@std@@U?$less@H@2@V?$allocator@U?$pair@$$CBHV?$vector@PAVCLeaf@@V?$allocator@PAVCLeaf@@@std@@@std@@@std@@@2@$0A@@std@@@std@@IBEPAU_Node@?$_Tree_nod@V?$_Tmap_traits@HV?$vector@PAVCLeaf@@V?$allocator@PAVCLeaf@@@std@@@std@@U?$less@H@2@V?$allocator@U?$pair@$$CBHV?$vector@PAVCLeaf@@V?$allocator@PAVCLeaf@@@std@@@std@@@std@@@2@$0A@@std@@@2@ABH@Z 00416be0 f i Compiler.obj
 0001:00015c50       ?Append@?$CSimpleStringT@D$0A@@ATL@@QAEXPBDH@Z 00416c50 f i Compiler.obj
 0001:00015db0       ?Fork@?$CSimpleStringT@D$0A@@ATL@@AAEXH@Z 00416db0 f i Compiler.obj
 0001:00015e80       ?ThrowMemoryException@?$CSimpleStringT@D$0A@@ATL@@KAXXZ 00416e80 f i Compiler.obj
 0001:00015e90       ?Reallocate@?$CSimpleStringT@D$0A@@ATL@@AAEXH@Z 00416e90 f i Compiler.obj
 0001:00015f00       ?_Ufill@?$vector@PAVTerLeaf@@V?$allocator@PAVTerLeaf@@@std@@@std@@IAEPAPAVTerLeaf@@PAPAV3@IABQAV3@@Z 00416f00 f i TerTree.obj
 0001:00015f00       ?_Ufill@?$vector@PAUHWND__@@V?$allocator@PAUHWND__@@@std@@@std@@IAEPAPAUHWND__@@PAPAU3@IABQAU3@@Z 00416f00 f i VertDlgDlg.obj
 0001:00015f00       ?_Ufill@?$vector@PAVCLightBulb@@V?$allocator@PAVCLightBulb@@@std@@@std@@IAEPAPAVCLightBulb@@PAPAV3@IABQAV3@@Z 00416f00 f i LMProc.obj
 0001:00015f00       ?_Ufill@?$vector@PAVVtx2@@V?$allocator@PAVVtx2@@@std@@@std@@IAEPAPAVVtx2@@PAPAV3@IABQAV3@@Z 00416f00 f i z_ed2Doc.obj
 0001:00015f00       ?_Ufill@?$vector@KV?$allocator@K@std@@@std@@IAEPAKPAKIABK@Z 00416f00 f i CompilerStream.obj
 0001:00015f00       ?_Ufill@?$vector@PAVSceItem@@V?$allocator@PAVSceItem@@@std@@@std@@IAEPAPAVSceItem@@PAPAV3@IABQAV3@@Z 00416f00 f i z_ed2Doc.obj
 0001:00015f00       ?_Ufill@?$vector@PAVCBspTree@@V?$allocator@PAVCBspTree@@@std@@@std@@IAEPAPAVCBspTree@@PAPAV3@IABQAV3@@Z 00416f00 f i BspTree.obj
 0001:00015f00       ?_Ufill@?$vector@HV?$allocator@H@std@@@std@@IAEPAHPAHIABH@Z 00416f00 f i BspTree.obj
 0001:00015f00       ?_Ufill@?$vector@PAVCMiniNode@@V?$allocator@PAVCMiniNode@@@std@@@std@@IAEPAPAVCMiniNode@@PAPAV3@IABQAV3@@Z 00416f00 f i BspTree.obj
 0001:00015f00       ?_Ufill@?$vector@PAVCMotion@@V?$allocator@PAVCMotion@@@std@@@std@@IAEPAPAVCMotion@@PAPAV3@IABQAV3@@Z 00416f00 f i z_ed2Doc.obj
 0001:00015f00       ?_Ufill@?$vector@PAUGroup@CVertDlgDlg@@V?$allocator@PAUGroup@CVertDlgDlg@@@std@@@std@@IAEPAPAUGroup@CVertDlgDlg@@PAPAU34@IABQAU34@@Z 00416f00 f i VertDlgDlg.obj
 0001:00015f00       ?_Ufill@?$vector@PAVBrush@@V?$allocator@PAVBrush@@@std@@@std@@IAEPAPAVBrush@@PAPAV3@IABQAV3@@Z 00416f00 f i Compiler.obj
 0001:00015f00       ?_Ufill@?$vector@PAVScriptItem@@V?$allocator@PAVScriptItem@@@std@@@std@@IAEPAPAVScriptItem@@PAPAV3@IABQAV3@@Z 00416f00 f i z_ed2DocSave.obj
 0001:00015f00       ?_Ufill@?$vector@PAVV3@@V?$allocator@PAVV3@@@std@@@std@@IAEPAPAVV3@@PAPAV3@IABQAV3@@Z 00416f00 f i z_ed2View.obj
 0001:00015f00       ?_Ufill@?$vector@PAVPoly@@V?$allocator@PAVPoly@@@std@@@std@@IAEPAPAVPoly@@PAPAV3@IABQAV3@@Z 00416f00 f i BspTree.obj
 0001:00015f00       ?_Ufill@?$vector@PAUPortalData@@V?$allocator@PAUPortalData@@@std@@@std@@IAEPAPAUPortalData@@PAPAU3@IABQAU3@@Z 00416f00 f i PVSPrc.obj
 0001:00015f00       ?_Ufill@?$vector@PADV?$allocator@PAD@std@@@std@@IAEPAPADPAPADIABQAD@Z 00416f00 f i Scene.obj
 0001:00015f00       ?_Ufill@?$vector@PAULmSizeBuff@@V?$allocator@PAULmSizeBuff@@@std@@@std@@IAEPAPAULmSizeBuff@@PAPAU3@IABQAU3@@Z 00416f00 f i LMProc.obj
 0001:00015f00       ?_Ufill@?$vector@PAV?$map@HHU?$less@H@std@@V?$allocator@U?$pair@$$CBHH@std@@@2@@std@@V?$allocator@PAV?$map@HHU?$less@H@std@@V?$allocator@U?$pair@$$CBHH@std@@@2@@std@@@2@@std@@IAEPAPAV?$map@HHU?$less@H@std@@V?$allocator@U?$pair@$$CBHH@std@@@2@@2@PAPAV32@IABQAV32@@Z 00416f00 f i CompilerStream.obj
 0001:00015f00       ?_Ufill@?$vector@PAVCLeaf@@V?$allocator@PAVCLeaf@@@std@@@std@@IAEPAPAVCLeaf@@PAPAV3@IABQAV3@@Z 00416f00 f i BspTree.obj
 0001:00015f00       ?_Ufill@?$vector@PAVTerNode@@V?$allocator@PAVTerNode@@@std@@@std@@IAEPAPAVTerNode@@PAPAV3@IABQAV3@@Z 00416f00 f i TerTree.obj
 0001:00015f50       ?erase@?$_Tree@V?$_Tmap_traits@HV?$vector@PAVCLeaf@@V?$allocator@PAVCLeaf@@@std@@@std@@U?$less@H@2@V?$allocator@U?$pair@$$CBHV?$vector@PAVCLeaf@@V?$allocator@PAVCLeaf@@@std@@@std@@@std@@@2@$0A@@std@@@std@@QAE?AViterator@12@Vconst_iterator@12@@Z 00416f50 f i Compiler.obj
 0001:00016560       ?clear@?$_Tree@V?$_Tmap_traits@HV?$vector@PAVCLeaf@@V?$allocator@PAVCLeaf@@@std@@@std@@U?$less@H@2@V?$allocator@U?$pair@$$CBHV?$vector@PAVCLeaf@@V?$allocator@PAVCLeaf@@@std@@@std@@@std@@@2@$0A@@std@@@std@@QAEXXZ 00417560 f i Compiler.obj
 0001:000165c0       ?_Lrotate@?$_Tree@V?$_Tmap_traits@HV?$vector@PAVCLeaf@@V?$allocator@PAVCLeaf@@@std@@@std@@U?$less@H@2@V?$allocator@U?$pair@$$CBHV?$vector@PAVCLeaf@@V?$allocator@PAVCLeaf@@@std@@@std@@@std@@@2@$0A@@std@@@std@@IAEXPAU_Node@?$_Tree_nod@V?$_Tmap_traits@HV?$vector@PAVCLeaf@@V?$allocator@PAVCLeaf@@@std@@@std@@U?$less@H@2@V?$allocator@U?$pair@$$CBHV?$vector@PAVCLeaf@@V?$allocator@PAVCLeaf@@@std@@@std@@@std@@@2@$0A@@std@@@2@@Z 004175c0 f i Compiler.obj
 0001:00016670       ?_Rrotate@?$_Tree@V?$_Tmap_traits@HV?$vector@PAVCLeaf@@V?$allocator@PAVCLeaf@@@std@@@std@@U?$less@H@2@V?$allocator@U?$pair@$$CBHV?$vector@PAVCLeaf@@V?$allocator@PAVCLeaf@@@std@@@std@@@std@@@2@$0A@@std@@@std@@IAEXPAU_Node@?$_Tree_nod@V?$_Tmap_traits@HV?$vector@PAVCLeaf@@V?$allocator@PAVCLeaf@@@std@@@std@@U?$less@H@2@V?$allocator@U?$pair@$$CBHV?$vector@PAVCLeaf@@V?$allocator@PAVCLeaf@@@std@@@std@@@std@@@2@$0A@@std@@@2@@Z 00417670 f i Compiler.obj
 0001:00016720       ?_Buynode@?$_Tree@V?$_Tmap_traits@HV?$vector@PAVCLeaf@@V?$allocator@PAVCLeaf@@@std@@@std@@U?$less@H@2@V?$allocator@U?$pair@$$CBHV?$vector@PAVCLeaf@@V?$allocator@PAVCLeaf@@@std@@@std@@@std@@@2@$0A@@std@@@std@@IAEPAU_Node@?$_Tree_nod@V?$_Tmap_traits@HV?$vector@PAVCLeaf@@V?$allocator@PAVCLeaf@@@std@@@std@@U?$less@H@2@V?$allocator@U?$pair@$$CBHV?$vector@PAVCLeaf@@V?$allocator@PAVCLeaf@@@std@@@std@@@std@@@2@$0A@@std@@@2@XZ 00417720 f i Compiler.obj
 0001:00016870       ?_Buynode@?$_Tree@V?$_Tmap_traits@HV?$vector@PAVCLeaf@@V?$allocator@PAVCLeaf@@@std@@@std@@U?$less@H@2@V?$allocator@U?$pair@$$CBHV?$vector@PAVCLeaf@@V?$allocator@PAVCLeaf@@@std@@@std@@@std@@@2@$0A@@std@@@std@@IAEPAU_Node@?$_Tree_nod@V?$_Tmap_traits@HV?$vector@PAVCLeaf@@V?$allocator@PAVCLeaf@@@std@@@std@@U?$less@H@2@V?$allocator@U?$pair@$$CBHV?$vector@PAVCLeaf@@V?$allocator@PAVCLeaf@@@std@@@std@@@std@@@2@$0A@@std@@@2@PAU342@00ABU?$pair@$$CBHV?$vector@PAVCLeaf@@V?$allocator@PAVCLeaf@@@std@@@std@@@2@D@Z 00417870 f i Compiler.obj
 0001:00016970       ?_Dec@const_iterator@?$_Tree@V?$_Tmap_traits@HV?$vector@PAVCLeaf@@V?$allocator@PAVCLeaf@@@std@@@std@@U?$less@H@2@V?$allocator@U?$pair@$$CBHV?$vector@PAVCLeaf@@V?$allocator@PAVCLeaf@@@std@@@std@@@std@@@2@$0A@@std@@@std@@QAEXXZ 00417970 f i Compiler.obj
 0001:00016a70       ?_Inc@const_iterator@?$_Tree@V?$_Tmap_traits@HV?$vector@PAVCLeaf@@V?$allocator@PAVCLeaf@@@std@@@std@@U?$less@H@2@V?$allocator@U?$pair@$$CBHV?$vector@PAVCLeaf@@V?$allocator@PAVCLeaf@@@std@@@std@@@std@@@2@$0A@@std@@@std@@QAEXXZ 00417a70 f i Compiler.obj
 0001:00016b40       ?_Erase@?$_Tree@V?$_Tmap_traits@HV?$vector@PAVCLeaf@@V?$allocator@PAVCLeaf@@@std@@@std@@U?$less@H@2@V?$allocator@U?$pair@$$CBHV?$vector@PAVCLeaf@@V?$allocator@PAVCLeaf@@@std@@@std@@@std@@@2@$0A@@std@@@std@@IAEXPAU_Node@?$_Tree_nod@V?$_Tmap_traits@HV?$vector@PAVCLeaf@@V?$allocator@PAVCLeaf@@@std@@@std@@U?$less@H@2@V?$allocator@U?$pair@$$CBHV?$vector@PAVCLeaf@@V?$allocator@PAVCLeaf@@@std@@@std@@@std@@@2@$0A@@std@@@2@@Z 00417b40 f i Compiler.obj
 0001:00016ba0       ?allocate@?$allocator@U_Node@?$_Tree_nod@V?$_Tmap_traits@HV?$vector@PAVCLeaf@@V?$allocator@PAVCLeaf@@@std@@@std@@U?$less@H@2@V?$allocator@U?$pair@$$CBHV?$vector@PAVCLeaf@@V?$allocator@PAVCLeaf@@@std@@@std@@@std@@@2@$0A@@std@@@std@@@std@@QAEPAU_Node@?$_Tree_nod@V?$_Tmap_traits@HV?$vector@PAVCLeaf@@V?$allocator@PAVCLeaf@@@std@@@std@@U?$less@H@2@V?$allocator@U?$pair@$$CBHV?$vector@PAVCLeaf@@V?$allocator@PAVCLeaf@@@std@@@std@@@std@@@2@$0A@@std@@@2@I@Z 00417ba0 f i Compiler.obj
 0001:00016bc0       ?Format@?$CStringT@DV?$StrTraitMFC@DV?$ChTraitsCRT@D@ATL@@@@@ATL@@QAAXPBDZZ 00417bc0 f i Compiler.obj
 0001:00016bf0       ??$append@V?$vvector@VPoly@@@@V1@@@YAXAAV?$vvector@VPoly@@@@0@Z 00417bf0 f i Compiler.obj
 0001:00016ce0       ??$unchecked_copy@PAVPoly@@PAV1@@stdext@@YAPAVPoly@@PAV1@00@Z 00417ce0 f i Compiler.obj
 0001:00016d90       ??$_Allocate@UXmlFace@@@std@@YAPAUXmlFace@@IPAU1@@Z 00417d90 f i z_ed2DocSave.obj
 0001:00016d90       ??$_Allocate@VPortal@@@std@@YAPAVPortal@@IPAV1@@Z 00417d90 f i Compiler.obj
 0001:00016df0       ??$_Allocate@UFlowNode@@@std@@YAPAUFlowNode@@IPAU1@@Z 00417df0 f i Compiler.obj
 0001:00016e60       ??$unchecked_copy@PAPAVTerLeaf@@PAPAV1@@stdext@@YAPAPAVTerLeaf@@PAPAV1@00@Z 00417e60 f i TerTree.obj
 0001:00016e60       ??$unchecked_copy@PAPAVCBspTree@@PAPAV1@@stdext@@YAPAPAVCBspTree@@PAPAV1@00@Z 00417e60 f i BspTree.obj
 0001:00016e60       ??$unchecked_copy@PAPAVScriptItem@@PAPAV1@@stdext@@YAPAPAVScriptItem@@PAPAV1@00@Z 00417e60 f i z_ed2Doc.obj
 0001:00016e60       ??$unchecked_copy@PAPAVPlane@@PAPAV1@@stdext@@YAPAPAVPlane@@PAPAV1@00@Z 00417e60 f i MiniBsp.obj
 0001:00016e60       ??$unchecked_copy@PAPAUSBytes@@PAPAU1@@stdext@@YAPAPAUSBytes@@PAPAU1@00@Z 00417e60 f i Compiler.obj
 0001:00016e60       ??$unchecked_copy@PAPAUPortalData@@PAPAU1@@stdext@@YAPAPAUPortalData@@PAPAU1@00@Z 00417e60 f i PVSPrc.obj
 0001:00016e60       ??$unchecked_copy@PAPAVTerNode@@PAPAV1@@stdext@@YAPAPAVTerNode@@PAPAV1@00@Z 00417e60 f i TerTree.obj
 0001:00016e60       ??$unchecked_copy@PAPAVCMiniNode@@PAPAV1@@stdext@@YAPAPAVCMiniNode@@PAPAV1@00@Z 00417e60 f i MiniBsp.obj
 0001:00016e60       ??$unchecked_copy@PAPAVBrush@@PAPAV1@@stdext@@YAPAPAVBrush@@PAPAV1@00@Z 00417e60 f i DialogEvalDets.obj
 0001:00016e60       ??$unchecked_copy@PAPAVCSoundItem@@PAPAV1@@stdext@@YAPAPAVCSoundItem@@PAPAV1@00@Z 00417e60 f i z_ed2Doc.obj
 0001:00016e60       ??$unchecked_copy@PAHPAH@stdext@@YAPAHPAH00@Z 00417e60 f i BspTree.obj
 0001:00016e60       ??$unchecked_copy@PAPAVPoly@@PAPAV1@@stdext@@YAPAPAVPoly@@PAPAV1@00@Z 00417e60 f i LMProc.obj
 0001:00016e60       ??$unchecked_copy@PAPAV?$map@HHU?$less@H@std@@V?$allocator@U?$pair@$$CBHH@std@@@2@@std@@PAPAV12@@stdext@@YAPAPAV?$map@HHU?$less@H@std@@V?$allocator@U?$pair@$$CBHH@std@@@2@@std@@PAPAV12@00@Z 00417e60 f i CompilerStream.obj
 0001:00016e60       ??$unchecked_copy@PAPAULmSizeBuff@@PAPAU1@@stdext@@YAPAPAULmSizeBuff@@PAPAU1@00@Z 00417e60 f i LMProc.obj
 0001:00016e60       ??$unchecked_copy@PAPAVCMotion@@PAPAV1@@stdext@@YAPAPAVCMotion@@PAPAV1@00@Z 00417e60 f i z_ed2Doc.obj
 0001:00016e60       ??$unchecked_copy@PAMPAM@stdext@@YAPAMPAM00@Z 00417e60 f i TerTree.obj
 0001:00016e60       ??$unchecked_copy@PAPAVSceItem@@PAPAV1@@stdext@@YAPAPAVSceItem@@PAPAV1@00@Z 00417e60 f i z_ed2Doc.obj
 0001:00016e60       ??$unchecked_copy@PAPAVVtx2@@PAPAV1@@stdext@@YAPAPAVVtx2@@PAPAV1@00@Z 00417e60 f i z_ed2Doc.obj
 0001:00016e60       ??$unchecked_copy@PAPAVCLeaf@@PAPAV1@@stdext@@YAPAPAVCLeaf@@PAPAV1@00@Z 00417e60 f i BspTree.obj
 0001:00016ee0       ??$_Allocate@U_Node@?$_Tree_nod@V?$_Tmap_traits@HV?$vector@PAVCLeaf@@V?$allocator@PAVCLeaf@@@std@@@std@@U?$less@H@2@V?$allocator@U?$pair@$$CBHV?$vector@PAVCLeaf@@V?$allocator@PAVCLeaf@@@std@@@std@@@std@@@2@$0A@@std@@@std@@@std@@YAPAU_Node@?$_Tree_nod@V?$_Tmap_traits@HV?$vector@PAVCLeaf@@V?$allocator@PAVCLeaf@@@std@@@std@@U?$less@H@2@V?$allocator@U?$pair@$$CBHV?$vector@PAVCLeaf@@V?$allocator@PAVCLeaf@@@std@@@std@@@std@@@2@$0A@@std@@@0@IPAU120@@Z 00417ee0 f i Compiler.obj
 0001:00016f40       ??_G_Node@?$_Tree_nod@V?$_Tmap_traits@HV?$vector@PAVCLeaf@@V?$allocator@PAVCLeaf@@@std@@@std@@U?$less@H@2@V?$allocator@U?$pair@$$CBHV?$vector@PAVCLeaf@@V?$allocator@PAVCLeaf@@@std@@@std@@@std@@@2@$0A@@std@@@std@@QAEPAXI@Z 00417f40 f i Compiler.obj
 0001:00016fd0       ?FormatV@?$CStringT@DV?$StrTraitMFC@DV?$ChTraitsCRT@D@ATL@@@@@ATL@@QAEXPBDPAD@Z 00417fd0 f i Compiler.obj
 0001:000170a0       ??$_Copy_opt@PAVPoly@@PAV1@@std@@YAPAVPoly@@PAV1@00Urandom_access_iterator_tag@0@U_Nonscalar_ptr_iterator_tag@0@U_Range_checked_iterator_tag@0@@Z 004180a0 f i Compiler.obj
 0001:00017120       ?Save@Compiler@@QAEHPBD@Z  00418120 f   CompilerStream.obj
 0001:000174e0       ??1FlStream@@UAE@XZ        004184e0 f i CompilerStream.obj
 0001:00017590       ?Open@FlStream@@QAEHPBD0@Z 00418590 f i CompilerStream.obj
 0001:00017630       ?Close@FlStream@@QAEXXZ    00418630 f i CompilerStream.obj
 0001:000176b0       ??_EFlStream@@UAEPAXI@Z    004186b0 f i CompilerStream.obj
 0001:000176b0       ??_GFlStream@@UAEPAXI@Z    004186b0 f i CompilerStream.obj
 0001:000176f0       ?WriteHeader@Compiler@@AAEXAAVFlStream@@@Z 004186f0 f   CompilerStream.obj
 0001:00017770       ?WriteGameInit@Compiler@@AAEXAAVFlStream@@@Z 00418770 f   CompilerStream.obj
 0001:000177a0       ?WriteImages@Compiler@@AAEXAAVFlStream@@@Z 004187a0 f   CompilerStream.obj
 0001:00017ca0       ?Reset@TexHandler@@QAEXXZ  00418ca0 f i CompilerStream.obj
 0001:00017d00       ?GetPos@FlStream@@QAEKXZ   00418d00 f i CompilerStream.obj
 0001:00017d50       ?Write@FlStream@@QAEHPAXI@Z 00418d50 f i CompilerStream.obj
 0001:00017dd0       ?WriteTexInfo@Compiler@@AAEXAAV?$map@HHU?$less@H@std@@V?$allocator@U?$pair@$$CBHH@std@@@2@@std@@AAVFlStream@@@Z 00418dd0 f   CompilerStream.obj
 0001:00018120       ?WriteScripts@Compiler@@AAEXAAVFlStream@@@Z 00419120 f   CompilerStream.obj
 0001:00018300       ?WriteScriptsData@Compiler@@AAEXAAVFlStream@@@Z 00419300 f   CompilerStream.obj
 0001:00018600       ?Getlength@FlStream@@QAEKXZ 00419600 f i CompilerStream.obj
 0001:000186c0       ?Read@FlStream@@QAEHPAXI@Z 004196c0 f i CompilerStream.obj
 0001:00018740       ?WriteSndInfo@Compiler@@AAEXAAV?$map@HHU?$less@H@std@@V?$allocator@U?$pair@$$CBHH@std@@@2@@std@@AAVFlStream@@@Z 00419740 f   CompilerStream.obj
 0001:00018990       ?WriteSounds@Compiler@@AAEXAAVFlStream@@@Z 00419990 f   CompilerStream.obj
 0001:00018ce0       ??1FileWrap@baseg@@UAE@XZ  00419ce0 f i CompilerStream.obj
 0001:00018d20       ?Open@FileWrap@baseg@@QAEHPBD0@Z 00419d20 f i CompilerStream.obj
 0001:00018de0       ?Getlength@FileWrap@baseg@@QAEKXZ 00419de0 f i CompilerStream.obj
 0001:00018e30       ?WriteLMInfoAndData@Compiler@@AAEXAAVFlStream@@@Z 00419e30 f   CompilerStream.obj
 0001:000194f0       ?WriteV3s@Compiler@@AAEXAAV?$vvector@VV3@@@@AAVFlStream@@K@Z 0041a4f0 f   CompilerStream.obj
 0001:00019620       ?WritePlanes@Compiler@@AAEXAAV?$vvector@VPlane@@@@AAVFlStream@@K@Z 0041a620 f   CompilerStream.obj
 0001:00019770       ?WriteNodes@Compiler@@AAEXAAV?$vvector@PAVCMiniNode@@@@AAVFlStream@@K@Z 0041a770 f   CompilerStream.obj
 0001:000199d0       ??0Box@@QAE@ABV0@@Z        0041a9d0 f i PortalPRC.obj
 0001:000199d0       ??4Box@@QAEAAV0@ABV0@@Z    0041a9d0 f i CompilerStream.obj
 0001:00019a40       ??0_BTF_Node@@QAE@XZ       0041aa40 f i CompilerStream.obj
 0001:00019ab0       ?WriteLeafs@Compiler@@AAEXAAV?$vvector@PAVCLeaf@@@@AAVFlStream@@K@Z 0041aab0 f   CompilerStream.obj
 0001:00019cd0       ?WriteModels@Compiler@@AAEXAAVFlStream@@K@Z 0041acd0 f   CompilerStream.obj
 0001:0001a080       ?WritePortals@Compiler@@AAEXAAVFlStream@@@Z 0041b080 f   CompilerStream.obj
 0001:0001a410       ?WritePvs@Compiler@@AAEXAAVFlStream@@@Z 0041b410 f   CompilerStream.obj
 0001:0001a4a0       ?WritePolys@Compiler@@AAEXAAV?$vvector@PAVPoly@@@@AAV?$map@HHU?$less@H@std@@V?$allocator@U?$pair@$$CBHH@std@@@2@@std@@AAVFlStream@@K@Z 0041b4a0 f   CompilerStream.obj
 0001:0001ad10       ??0_BTF_Poly@@QAE@XZ       0041bd10 f i CompilerStream.obj
 0001:0001adf0       ??0_BTF_Vertex@@QAE@XZ     0041bdf0 f i CompilerStream.obj
 0001:0001ae90       ?WriteBsps@Compiler@@AAEXAAV?$map@HHU?$less@H@std@@V?$allocator@U?$pair@$$CBHH@std@@@2@@std@@AAVFlStream@@@Z 0041be90 f   CompilerStream.obj
 0001:0001b720       ?WriteSceneInfo@Compiler@@AAEXAAVFlStream@@@Z 0041c720 f   CompilerStream.obj
 0001:0001b9c0       ??0BST_SceneInfo@@QAE@XZ   0041c9c0 f i CompilerStream.obj
 0001:0001ba70       ?WriteSkyDomInfo@Compiler@@AAEXAAVFlStream@@@Z 0041ca70 f   CompilerStream.obj
 0001:0001bdf0       ?WritItemsCathegory@Compiler@@AAEXAAVFlStream@@@Z 0041cdf0 f   CompilerStream.obj
 0001:0001c390       ?WriteItemsInfo@Compiler@@AAEXAAV?$map@HHU?$less@H@std@@V?$allocator@U?$pair@$$CBHH@std@@@2@@std@@0AAVFlStream@@@Z 0041d390 f   CompilerStream.obj
 0001:0001cf80       ??0_BTF_Item@@QAE@XZ       0041df80 f i CompilerStream.obj
 0001:0001d030       ?WriteMotions@Compiler@@AAEXAAVFlStream@@@Z 0041e030 f   CompilerStream.obj
 0001:0001d2c0       ??0_BTF_MotionNode@@QAE@XZ 0041e2c0 f i CompilerStream.obj
 0001:0001d310       ?WriteTerrain@Compiler@@AAEXAAVFlStream@@AAV?$map@HHU?$less@H@std@@V?$allocator@U?$pair@$$CBHH@std@@@2@@std@@@Z 0041e310 f   CompilerStream.obj
 0001:0001dfc0       ??0_BTF_Terrain_Tree@@QAE@XZ 0041efc0 f i CompilerStream.obj
 0001:0001e0d0       ?WriteDetails@Compiler@@AAEXAAVFlStream@@@Z 0041f0d0 f   CompilerStream.obj
 0001:0001e2e0       ?WriteTextAsIs@FlStream@@QAEHPBD@Z 0041f2e0 f i CompilerStream.obj
 0001:0001e380       ?KeepSecttions@Compiler@@AAEXKKAAU_BTF_Section@@AAVFlStream@@@Z 0041f380 f   CompilerStream.obj
 0001:0001e3d0       ?Pos@FlStream@@QAEXKK@Z    0041f3d0 f i CompilerStream.obj
 0001:0001e430       ?Export@Compiler@@QAEXPBD@Z 0041f430 f   CompilerStream.obj
 0001:0001f130       ??1?$vvector@V?$basic_string@DU?$char_traits@D@std@@V?$allocator@D@2@@std@@@@QAE@XZ 00420130 f i CompilerStream.obj
 0001:0001f4f0       ?WriteXML@Compiler@@AAEXPBD00AAV?$vvector@V?$basic_string@DU?$char_traits@D@std@@V?$allocator@D@2@@std@@@@ABV?$vvector@K@@@Z 004204f0 f   CompilerStream.obj
 0001:0001f850       ?UpdateServerIndex@Compiler@@AAEXXZ 00420850 f   CompilerStream.obj
 0001:0001fad0       ??1?$vvector@PAUPortalData@@@@QAE@XZ 00420ad0 f i Compiler.obj
 0001:0001fad0       ??1?$vvector@PAVVtx2@@@@QAE@XZ 00420ad0 f i z_ed2Doc.obj
 0001:0001fad0       ??1?$vvector@PAVCMotion@@@@QAE@XZ 00420ad0 f i z_ed2Doc.obj
 0001:0001fad0       ??1?$vvector@PAVPlane@@@@QAE@XZ 00420ad0 f i BspTree.obj
 0001:0001fad0       ??1?$vvector@PAV?$map@HHU?$less@H@std@@V?$allocator@U?$pair@$$CBHH@std@@@2@@std@@@@QAE@XZ 00420ad0 f i CompilerStream.obj
 0001:0001fad0       ??1?$vvector@PAVCBspTree@@@@QAE@XZ 00420ad0 f i BspTree.obj
 0001:0001fad0       ??1?$vvector@PAVBrush@@@@QAE@XZ 00420ad0 f i Compiler.obj
 0001:0001fad0       ??1?$vector@PAVCLeaf@@V?$allocator@PAVCLeaf@@@std@@@std@@QAE@XZ 00420ad0 f i Compiler.obj
 0001:0001fad0       ??1?$vvector@PAVV3@@@@QAE@XZ 00420ad0 f i z_ed2View.obj
 0001:0001fad0       ??1?$vvector@PAVSceItem@@@@QAE@XZ 00420ad0 f i z_ed2Doc.obj
 0001:0001fad0       ??1?$vvector@PAVCSoundItem@@@@QAE@XZ 00420ad0 f i z_ed2Doc.obj
 0001:0001fad0       ??1?$vvector@PAVPoly@@@@QAE@XZ 00420ad0 f i BspTree.obj
 0001:0001fad0       ??1?$vector@PAVV3@@V?$allocator@PAVV3@@@std@@@std@@QAE@XZ 00420ad0 f i z_ed2View.obj
 0001:0001fad0       ??1?$vvector@PAUSBytes@@@@QAE@XZ 00420ad0 f i Compiler.obj
 0001:0001fad0       ??1?$vector@PAVCMiniNode@@V?$allocator@PAVCMiniNode@@@std@@@std@@QAE@XZ 00420ad0 f i CompilerStream.obj
 0001:0001fad0       ??1?$vector@HV?$allocator@H@std@@@std@@QAE@XZ 00420ad0 f i BspTree.obj
 0001:0001fad0       ??1?$vvector@PAVCLightBulb@@@@QAE@XZ 00420ad0 f i LMProc.obj
 0001:0001fad0       ??1?$vvector@K@@QAE@XZ     00420ad0 f i CompilerStream.obj
 0001:0001fad0       ??1?$vvector@PAVScriptItem@@@@QAE@XZ 00420ad0 f i z_ed2Doc.obj
 0001:0001fad0       ??1?$vector@PAVPoly@@V?$allocator@PAVPoly@@@std@@@std@@QAE@XZ 00420ad0 f i CompilerStream.obj
 0001:0001fad0       ??1?$vvector@M@@QAE@XZ     00420ad0 f i TerTree.obj
 0001:0001fad0       ??1?$vvector@PAVCBaseDlg@@@@QAE@XZ 00420ad0 f i DlgBar.obj
 0001:0001fad0       ??1?$vvector@H@@QAE@XZ     00420ad0 f i BspTree.obj
 0001:0001fad0       ??1?$vvector@PAVCMiniNode@@@@QAE@XZ 00420ad0 f i BspTree.obj
 0001:0001fad0       ??1?$vvector@PAVTerLeaf@@@@QAE@XZ 00420ad0 f i TerTree.obj
 0001:0001fad0       ??1?$vector@PAUGroup@CVertDlgDlg@@V?$allocator@PAUGroup@CVertDlgDlg@@@std@@@std@@QAE@XZ 00420ad0 f i VertDlgDlg.obj
 0001:0001fad0       ??1?$vector@PAUHWND__@@V?$allocator@PAUHWND__@@@std@@@std@@QAE@XZ 00420ad0 f i VertDlgDlg.obj
 0001:0001fad0       ??1?$vector@PAVBrush@@V?$allocator@PAVBrush@@@std@@@std@@QAE@XZ 00420ad0 f i Compiler.obj
 0001:0001fad0       ??1?$vector@PAVCLightBulb@@V?$allocator@PAVCLightBulb@@@std@@@std@@QAE@XZ 00420ad0 f i LMProc.obj
 0001:0001fad0       ??1?$vvector@PAVCLeaf@@@@QAE@XZ 00420ad0 f i BspTree.obj
 0001:0001fad0       ??1?$vvector@PAD@@QAE@XZ   00420ad0 f i Scene.obj
 0001:0001fad0       ??1?$vvector@PAVTerNode@@@@QAE@XZ 00420ad0 f i TerTree.obj
 0001:0001fad0       ??1?$vector@PAV?$map@HHU?$less@H@std@@V?$allocator@U?$pair@$$CBHH@std@@@2@@std@@V?$allocator@PAV?$map@HHU?$less@H@std@@V?$allocator@U?$pair@$$CBHH@std@@@2@@std@@@2@@std@@QAE@XZ 00420ad0 f i CompilerStream.obj
 0001:0001fad0       ??1?$vvector@PAULmSizeBuff@@@@QAE@XZ 00420ad0 f i LMProc.obj
 0001:0001fb40       ??A?$vector@VPoly@@V?$allocator@VPoly@@@std@@@std@@QAEAAVPoly@@I@Z 00420b40 f i CompilerStream.obj
 0001:0001fb80       ??1?$vector@VPlane@@V?$allocator@VPlane@@@std@@@std@@QAE@XZ 00420b80 f i CompilerStream.obj
 0001:0001fb80       ??1?$vvector@VPlane@@@@QAE@XZ 00420b80 f i BspTree.obj
 0001:0001fbf0       ??0?$PlugInDll@VIGeticPlug@@@baseg@@QAE@PBD@Z 00420bf0 f i z_ed2DocMk.obj
 0001:0001fbf0       ??0?$PlugInDll@VIBSPFileHook@@@baseg@@QAE@PBD@Z 00420bf0 f i CompilerStream.obj
 0001:0001fc50       ?Free@?$PlugInDll@VIBSPFileHook@@@baseg@@QAEXXZ 00420c50 f i CompilerStream.obj
 0001:0001fc50       ?Free@?$PlugInDll@VIGeticPlug@@@baseg@@QAEXXZ 00420c50 f i z_ed2DocMk.obj
 0001:0001fcd0       ??1?$PlugInDll@VIBSPFileHook@@@baseg@@UAE@XZ 00420cd0 f i CompilerStream.obj
 0001:0001fcd0       ??1?$PlugInDll@VIGeticPlug@@@baseg@@UAE@XZ 00420cd0 f i z_ed2DocMk.obj
 0001:0001fd20       ??1?$map@HPAVBrush@@U?$less@H@std@@V?$allocator@U?$pair@$$CBHPAVBrush@@@std@@@3@@std@@QAE@XZ 00420d20 f i z_ed2DocSave.obj
 0001:0001fd20       ??1?$_Tree@V?$_Tmap_traits@PAVBrush@@HU?$less@PAVBrush@@@std@@V?$allocator@U?$pair@QAVBrush@@H@std@@@3@$0A@@std@@@std@@QAE@XZ 00420d20 f i DlgBar.obj
 0001:0001fd20       ??1?$_Tree@V?$_Tmap_traits@HHU?$less@H@std@@V?$allocator@U?$pair@$$CBHH@std@@@2@$0A@@std@@@std@@QAE@XZ 00420d20 f i CompilerStream.obj
 0001:0001fd20       ??1?$map@PAVBrush@@HU?$less@PAVBrush@@@std@@V?$allocator@U?$pair@QAVBrush@@H@std@@@3@@std@@QAE@XZ 00420d20 f i DlgBar.obj
 0001:0001fd20       ??1?$map@HHU?$less@H@std@@V?$allocator@U?$pair@$$CBHH@std@@@2@@std@@QAE@XZ 00420d20 f i CompilerStream.obj
 0001:0001fda0       ?find@?$_Tree@V?$_Tmap_traits@HHU?$less@H@std@@V?$allocator@U?$pair@$$CBHH@std@@@2@$0A@@std@@@std@@QAE?AViterator@12@ABH@Z 00420da0 f i CompilerStream.obj
 0001:0001feb0       ?deleteelements@?$vvector@PAV?$map@HHU?$less@H@std@@V?$allocator@U?$pair@$$CBHH@std@@@2@@std@@@@QAEXXZ 00420eb0 f i CompilerStream.obj
 0001:00020050       ??9const_iterator@?$_Tree@V?$_Tmap_traits@PAVBrush@@HU?$less@PAVBrush@@@std@@V?$allocator@U?$pair@QAVBrush@@H@std@@@3@$0A@@std@@@std@@QBE_NABV012@@Z 00421050 f i DlgBar.obj
 0001:00020050       ??9?$_Vector_const_iterator@PAVScriptItem@@V?$allocator@PAVScriptItem@@@std@@@std@@QBE_NABV01@@Z 00421050 f i CompilerStream.obj
 0001:00020050       ??9?$_Vector_const_iterator@PAVTerNode@@V?$allocator@PAVTerNode@@@std@@@std@@QBE_NABV01@@Z 00421050 f i TerTree.obj
 0001:00020050       ??9?$_Vector_const_iterator@UPolyEdge@@V?$allocator@UPolyEdge@@@std@@@std@@QBE_NABV01@@Z 00421050 f i z_ed2Doc.obj
 0001:00020050       ??9?$_Vector_const_iterator@PAUSBytes@@V?$allocator@PAUSBytes@@@std@@@std@@QBE_NABV01@@Z 00421050 f i Compiler.obj
 0001:00020050       ??9?$_Vector_const_iterator@VPortal@@V?$allocator@VPortal@@@std@@@std@@QBE_NABV01@@Z 00421050 f i BspTree.obj
 0001:00020050       ??9?$_Vector_const_iterator@PAVSceItem@@V?$allocator@PAVSceItem@@@std@@@std@@QBE_NABV01@@Z 00421050 f i Compiler.obj
 0001:00020050       ??9?$_Vector_const_iterator@UNameTypeValue@@V?$allocator@UNameTypeValue@@@std@@@std@@QBE_NABV01@@Z 00421050 f i CompilerStream.obj
 0001:00020050       ??9?$_Vector_const_iterator@PAVVtx2@@V?$allocator@PAVVtx2@@@std@@@std@@QBE_NABV01@@Z 00421050 f i z_ed2Doc.obj
 0001:00020050       ??9?$_Vector_const_iterator@PAVCBspTree@@V?$allocator@PAVCBspTree@@@std@@@std@@QBE_NABV01@@Z 00421050 f i BspTree.obj
 0001:00020050       ??9?$_Vector_const_iterator@PAUGroup@CVertDlgDlg@@V?$allocator@PAUGroup@CVertDlgDlg@@@std@@@std@@QBE_NABV01@@Z 00421050 f i VertDlgDlg.obj
 0001:00020050       ??9?$_Vector_const_iterator@PAVTerLeaf@@V?$allocator@PAVTerLeaf@@@std@@@std@@QBE_NABV01@@Z 00421050 f i Compiler.obj
 0001:00020050       ??9?$_Vector_const_iterator@PAVPoly@@V?$allocator@PAVPoly@@@std@@@std@@QBE_NABV01@@Z 00421050 f i LMProc.obj
 0001:00020050       ??9?$_Vector_const_iterator@PAVCLightBulb@@V?$allocator@PAVCLightBulb@@@std@@@std@@QBE_NABV01@@Z 00421050 f i LMProc.obj
 0001:00020050       ??9?$_Vector_const_iterator@VItemCat@@V?$allocator@VItemCat@@@std@@@std@@QBE_NABV01@@Z 00421050 f i DlgClassItem.obj
 0001:00020050       ??9const_iterator@?$_Tree@V?$_Tmap_traits@V?$basic_string@DU?$char_traits@D@std@@V?$allocator@D@2@@std@@UTexture@@U?$less@V?$basic_string@DU?$char_traits@D@std@@V?$allocator@D@2@@std@@@2@V?$allocator@U?$pair@$$CBV?$basic_string@DU?$char_traits@D@std@@V?$allocator@D@2@@std@@UTexture@@@std@@@2@$0A@@std@@@std@@QBE_NABV012@@Z 00421050 f i texsys.obj
 0001:00020050       ??9?$_Vector_const_iterator@MV?$allocator@M@std@@@std@@QBE_NABV01@@Z 00421050 f i TerTree.obj
 0001:00020050       ??9?$_Vector_const_iterator@UTexture@@V?$allocator@UTexture@@@std@@@std@@QBE_NABV01@@Z 00421050 f i DlgNewPref.obj
 0001:00020050       ??9?$_Vector_const_iterator@PAUHWND__@@V?$allocator@PAUHWND__@@@std@@@std@@QBE_NABV01@@Z 00421050 f i VertDlgDlg.obj
 0001:00020050       ??9?$_Vector_const_iterator@VVtx2@@V?$allocator@VVtx2@@@std@@@std@@QBE_NABV01@@Z 00421050 f i BspTree.obj
 0001:00020050       ??9?$_Vector_const_iterator@PAVCMotion@@V?$allocator@PAVCMotion@@@std@@@std@@QBE_NABV01@@Z 00421050 f i Compiler.obj
 0001:00020050       ??9const_iterator@?$_Tree@V?$_Tmap_traits@V?$basic_string@DU?$char_traits@D@std@@V?$allocator@D@2@@std@@V12@U?$less@V?$basic_string@DU?$char_traits@D@std@@V?$allocator@D@2@@std@@@2@V?$allocator@U?$pair@$$CBV?$basic_string@DU?$char_traits@D@std@@V?$allocator@D@2@@std@@V12@@std@@@2@$0A@@std@@@std@@QBE_NABV012@@Z 00421050 f i DlgScene.obj
 0001:00020050       ??9?$_Vector_const_iterator@PAVV3@@V?$allocator@PAVV3@@@std@@@std@@QBE_NABV01@@Z 00421050 f i z_ed2View.obj
 0001:00020050       ??9const_iterator@?$_Tree@V?$_Tset_traits@PAVBrush@@U?$less@PAVBrush@@@std@@V?$allocator@PAVBrush@@@3@$0A@@std@@@std@@QBE_NABV012@@Z 00421050 f i DialogEvalDets.obj
 0001:00020050       ??9?$_Vector_const_iterator@URecord@CUndo@@V?$allocator@URecord@CUndo@@@std@@@std@@QBE_NABV01@@Z 00421050 f i Undo.obj
 0001:00020050       ??9?$_Vector_const_iterator@PAVCSoundItem@@V?$allocator@PAVCSoundItem@@@std@@@std@@QBE_NABV01@@Z 00421050 f i CompilerStream.obj
 0001:00020050       ??9?$_Vector_const_iterator@PAUPortalData@@V?$allocator@PAUPortalData@@@std@@@std@@QBE_NABV01@@Z 00421050 f i PVSPrc.obj
 0001:00020050       ??9?$_Vector_const_iterator@PAULmSizeBuff@@V?$allocator@PAULmSizeBuff@@@std@@@std@@QBE_NABV01@@Z 00421050 f i CompilerStream.obj
 0001:00020050       ??9?$_Vector_const_iterator@UVNT@@V?$allocator@UVNT@@@std@@@std@@QBE_NABV01@@Z 00421050 f i Curve_Class.obj
 0001:00020050       ??9?$_Vector_const_iterator@HV?$allocator@H@std@@@std@@QBE_NABV01@@Z 00421050 f i BspTree.obj
 0001:00020050       ??9?$_Vector_const_iterator@VV3@@V?$allocator@VV3@@@std@@@std@@QBE_NABV01@@Z 00421050 f i CompilerStream.obj
 0001:00020050       ??9?$_Vector_const_iterator@PAVCLeaf@@V?$allocator@PAVCLeaf@@@std@@@std@@QBE_NABV01@@Z 00421050 f i BspTree.obj
 0001:00020050       ??9?$_Vector_const_iterator@VPoly@@V?$allocator@VPoly@@@std@@@std@@QBE_NABV01@@Z 00421050 f i BspTree.obj
 0001:00020050       ??9?$_Vector_const_iterator@VCLRNOA@@V?$allocator@VCLRNOA@@@std@@@std@@QBE_NABV01@@Z 00421050 f i LMProc.obj
 0001:00020050       ??9?$_Vector_const_iterator@PAVBrush@@V?$allocator@PAVBrush@@@std@@@std@@QBE_NABV01@@Z 00421050 f i Compiler.obj
 0001:00020050       ??9?$_Vector_const_iterator@VPlane@@V?$allocator@VPlane@@@std@@@std@@QBE_NABV01@@Z 00421050 f i CompilerStream.obj
 0001:00020050       ??9const_iterator@?$_Tree@V?$_Tmap_traits@V?$basic_string@DU?$char_traits@D@std@@V?$allocator@D@2@@std@@U_Plg_Texture@@U?$less@V?$basic_string@DU?$char_traits@D@std@@V?$allocator@D@2@@std@@@2@V?$allocator@U?$pair@$$CBV?$basic_string@DU?$char_traits@D@std@@V?$allocator@D@2@@std@@U_Plg_Texture@@@std@@@2@$0A@@std@@@std@@QBE_NABV012@@Z 00421050 f i z_edmap.obj
 0001:00020050       ??9?$_Vector_const_iterator@PAV?$map@HHU?$less@H@std@@V?$allocator@U?$pair@$$CBHH@std@@@2@@std@@V?$allocator@PAV?$map@HHU?$less@H@std@@V?$allocator@U?$pair@$$CBHH@std@@@2@@std@@@2@@std@@QBE_NABV01@@Z 00421050 f i CompilerStream.obj
 0001:00020050       ??9?$_Vector_const_iterator@V?$basic_string@DU?$char_traits@D@std@@V?$allocator@D@2@@std@@V?$allocator@V?$basic_string@DU?$char_traits@D@std@@V?$allocator@D@2@@std@@@2@@std@@QBE_NABV01@@Z 00421050 f i LbEditable.obj
 0001:00020050       ??9?$_Vector_const_iterator@PAVCMiniNode@@V?$allocator@PAVCMiniNode@@@std@@@std@@QBE_NABV01@@Z 00421050 f i CompilerStream.obj
 0001:00020050       ??9?$_Vector_const_iterator@USPlugIn@CZ_ed2App@@V?$allocator@USPlugIn@CZ_ed2App@@@std@@@std@@QBE_NABV01@@Z 00421050 f i z_edmap.obj
 0001:000200b0       ?find@?$basic_string@DU?$char_traits@D@std@@V?$allocator@D@2@@std@@QBEIPBDII@Z 004210b0 f i CompilerStream.obj
 0001:000201c0       ?reserve@?$vector@VPlane@@V?$allocator@VPlane@@@std@@@std@@QAEXI@Z 004211c0 f i CompilerStream.obj
 0001:00020510       ??0?$vector@V?$vvector@VV3@@@@V?$allocator@V?$vvector@VV3@@@@@std@@@std@@QAE@XZ 00421510 f i DlgEditor2D.obj
 0001:00020510       ??0?$vector@V?$basic_string@DU?$char_traits@D@std@@V?$allocator@D@2@@std@@V?$allocator@V?$basic_string@DU?$char_traits@D@std@@V?$allocator@D@2@@std@@@2@@std@@QAE@XZ 00421510 f i CompilerStream.obj
 0001:00020510       ??0?$vector@UVNT@@V?$allocator@UVNT@@@std@@@std@@QAE@XZ 00421510 f i DlgEditor2D.obj
 0001:000205f0       ?_Tidy@?$vector@V?$basic_string@DU?$char_traits@D@std@@V?$allocator@D@2@@std@@V?$allocator@V?$basic_string@DU?$char_traits@D@std@@V?$allocator@D@2@@std@@@2@@std@@IAEXXZ 004215f0 f i CompilerStream.obj
 0001:000206c0       ??0?$vector@VV3@@V?$allocator@VV3@@@std@@@std@@QAE@XZ 004216c0 f i CompilerStream.obj
 0001:000206c0       ??0?$vector@UPolyEdge@@V?$allocator@UPolyEdge@@@std@@@std@@QAE@XZ 004216c0 f i z_ed2Doc.obj
 0001:000207a0       ?reserve@?$vector@VV3@@V?$allocator@VV3@@@std@@@std@@QAEXI@Z 004217a0 f i CompilerStream.obj
 0001:00020ad0       ?_Buy@?$vector@UPolyEdge@@V?$allocator@UPolyEdge@@@std@@@std@@IAE_NI@Z 00421ad0 f i z_ed2Doc.obj
 0001:00020ad0       ?_Buy@?$vector@VV3@@V?$allocator@VV3@@@std@@@std@@IAE_NI@Z 00421ad0 f i CompilerStream.obj
 0001:00020b90       ?_Tidy@?$vector@UPolyEdge@@V?$allocator@UPolyEdge@@@std@@@std@@IAEXXZ 00421b90 f i z_ed2Doc.obj
 0001:00020b90       ?_Tidy@?$vector@VV3@@V?$allocator@VV3@@@std@@@std@@IAEXXZ 00421b90 f i CompilerStream.obj
 0001:00020c40       ?Load@?$PlugInDll@VIBSPFileHook@@@baseg@@QAEHPBDH@Z 00421c40 f i CompilerStream.obj
 0001:00020c40       ?Load@?$PlugInDll@VIGeticPlug@@@baseg@@QAEHPBDH@Z 00421c40 f i z_ed2DocMk.obj
 0001:00020cd0       ??D?$_Vector_const_iterator@VCRect@@V?$allocator@VCRect@@@std@@@std@@QBEABVCRect@@XZ 00421cd0 f i VertDlgDlg.obj
 0001:00020cd0       ??D?$_Vector_const_iterator@VVtx2@@V?$allocator@VVtx2@@@std@@@std@@QBEABVVtx2@@XZ 00421cd0 f i BspTree.obj
 0001:00020cd0       ??D?$_Vector_const_iterator@PAVCSoundItem@@V?$allocator@PAVCSoundItem@@@std@@@std@@QBEABQAVCSoundItem@@XZ 00421cd0 f i CompilerStream.obj
 0001:00020cd0       ??D?$_Vector_const_iterator@URecord@CUndo@@V?$allocator@URecord@CUndo@@@std@@@std@@QBEABURecord@CUndo@@XZ 00421cd0 f i Undo.obj
 0001:00020cd0       ??D?$_Vector_const_iterator@PAVPoly@@V?$allocator@PAVPoly@@@std@@@std@@QBEABQAVPoly@@XZ 00421cd0 f i CompilerStream.obj
 0001:00020cd0       ??D?$_Vector_const_iterator@UXmlFace@@V?$allocator@UXmlFace@@@std@@@std@@QBEABUXmlFace@@XZ 00421cd0 f i z_ed2DocSave.obj
 0001:00020cd0       ??D?$_Vector_const_iterator@UPolyEdge@@V?$allocator@UPolyEdge@@@std@@@std@@QBEABUPolyEdge@@XZ 00421cd0 f i z_ed2DocDraw.obj
 0001:00020cd0       ??D?$_Vector_const_iterator@PAVCBspTree@@V?$allocator@PAVCBspTree@@@std@@@std@@QBEABQAVCBspTree@@XZ 00421cd0 f i BspTree.obj
 0001:00020cd0       ??D?$_Vector_const_iterator@PAULmSizeBuff@@V?$allocator@PAULmSizeBuff@@@std@@@std@@QBEABQAULmSizeBuff@@XZ 00421cd0 f i CompilerStream.obj
 0001:00020cd0       ??D?$_Vector_const_iterator@PAVCLightBulb@@V?$allocator@PAVCLightBulb@@@std@@@std@@QBEABQAVCLightBulb@@XZ 00421cd0 f i LMProc.obj
 0001:00020cd0       ??D?$_Vector_const_iterator@V?$basic_string@DU?$char_traits@D@std@@V?$allocator@D@2@@std@@V?$allocator@V?$basic_string@DU?$char_traits@D@std@@V?$allocator@D@2@@std@@@2@@std@@QBEABV?$basic_string@DU?$char_traits@D@std@@V?$allocator@D@2@@1@XZ 00421cd0 f i CompilerStream.obj
 0001:00020cd0       ??D?$_Vector_const_iterator@PAVTerLeaf@@V?$allocator@PAVTerLeaf@@@std@@@std@@QBEABQAVTerLeaf@@XZ 00421cd0 f i Compiler.obj
 0001:00020cd0       ??D?$_Vector_const_iterator@USPlugIn@CZ_ed2App@@V?$allocator@USPlugIn@CZ_ed2App@@@std@@@std@@QBEABUSPlugIn@CZ_ed2App@@XZ 00421cd0 f i z_edmap.obj
 0001:00020cd0       ??D?$_Vector_const_iterator@UNameTypeValue@@V?$allocator@UNameTypeValue@@@std@@@std@@QBEABUNameTypeValue@@XZ 00421cd0 f i CompilerStream.obj
 0001:00020cd0       ??D?$_Vector_const_iterator@VPoly@@V?$allocator@VPoly@@@std@@@std@@QBEABVPoly@@XZ 00421cd0 f i BspTree.obj
 0001:00020cd0       ??D?$_Vector_const_iterator@PAVCMotion@@V?$allocator@PAVCMotion@@@std@@@std@@QBEABQAVCMotion@@XZ 00421cd0 f i CompilerStream.obj
 0001:00020cd0       ??D?$_Vector_const_iterator@PADV?$allocator@PAD@std@@@std@@QBEABQADXZ 00421cd0 f i Scene.obj
 0001:00020cd0       ??D?$_Vector_const_iterator@PAUPortalData@@V?$allocator@PAUPortalData@@@std@@@std@@QBEABQAUPortalData@@XZ 00421cd0 f i PVSPrc.obj
 0001:00020cd0       ??D?$_Vector_const_iterator@PAVScriptItem@@V?$allocator@PAVScriptItem@@@std@@@std@@QBEABQAVScriptItem@@XZ 00421cd0 f i CompilerStream.obj
 0001:00020cd0       ??D?$_Vector_const_iterator@VItemCat@@V?$allocator@VItemCat@@@std@@@std@@QBEABVItemCat@@XZ 00421cd0 f i CompilerStream.obj
 0001:00020cd0       ??D?$_Vector_const_iterator@PAVV3@@V?$allocator@PAVV3@@@std@@@std@@QBEABQAVV3@@XZ 00421cd0 f i z_ed2View.obj
 0001:00020cd0       ??D?$_Vector_const_iterator@UVNT@@V?$allocator@UVNT@@@std@@@std@@QBEABUVNT@@XZ 00421cd0 f i DlgEditor2D.obj
 0001:00020cd0       ??D?$_Vector_const_iterator@PAVCLeaf@@V?$allocator@PAVCLeaf@@@std@@@std@@QBEABQAVCLeaf@@XZ 00421cd0 f i BspTree.obj
 0001:00020cd0       ??D?$_Vector_const_iterator@PAVSceItem@@V?$allocator@PAVSceItem@@@std@@@std@@QBEABQAVSceItem@@XZ 00421cd0 f i Compiler.obj
 0001:00020cd0       ??D?$_Vector_const_iterator@UUV@@V?$allocator@UUV@@@std@@@std@@QBEABUUV@@XZ 00421cd0 f i z_ed2DocSave.obj
 0001:00020cd0       ??D?$_Vector_const_iterator@VPortal@@V?$allocator@VPortal@@@std@@@std@@QBEABVPortal@@XZ 00421cd0 f i BspTree.obj
 0001:00020cd0       ??D?$_Vector_const_iterator@VV3@@V?$allocator@VV3@@@std@@@std@@QBEABVV3@@XZ 00421cd0 f i CompilerStream.obj
 0001:00020cd0       ??D?$_Vector_const_iterator@PAUHWND__@@V?$allocator@PAUHWND__@@@std@@@std@@QBEABQAUHWND__@@XZ 00421cd0 f i VertDlgDlg.obj
 0001:00020cd0       ??D?$_Vector_const_iterator@PAVVtx2@@V?$allocator@PAVVtx2@@@std@@@std@@QBEABQAVVtx2@@XZ 00421cd0 f i z_ed2Doc.obj
 0001:00020cd0       ??D?$_Vector_const_iterator@HV?$allocator@H@std@@@std@@QBEABHXZ 00421cd0 f i Compiler.obj
 0001:00020cd0       ??D?$_Vector_const_iterator@PAUGroup@CVertDlgDlg@@V?$allocator@PAUGroup@CVertDlgDlg@@@std@@@std@@QBEABQAUGroup@CVertDlgDlg@@XZ 00421cd0 f i VertDlgDlg.obj
 0001:00020cd0       ??D?$_Vector_const_iterator@PAVTerNode@@V?$allocator@PAVTerNode@@@std@@@std@@QBEABQAVTerNode@@XZ 00421cd0 f i CompilerStream.obj
 0001:00020cd0       ??D?$_Vector_const_iterator@VCLR@@V?$allocator@VCLR@@@std@@@std@@QBEABVCLR@@XZ 00421cd0 f i z_ed2DocSave.obj
 0001:00020cd0       ??D?$_Vector_const_iterator@PAVPlane@@V?$allocator@PAVPlane@@@std@@@std@@QBEABQAVPlane@@XZ 00421cd0 f i MiniBsp.obj
 0001:00020cd0       ??D?$_Vector_const_iterator@PAVCMiniNode@@V?$allocator@PAVCMiniNode@@@std@@@std@@QBEABQAVCMiniNode@@XZ 00421cd0 f i BspTree.obj
 0001:00020cd0       ??D?$_Vector_const_iterator@PAUSBytes@@V?$allocator@PAUSBytes@@@std@@@std@@QBEABQAUSBytes@@XZ 00421cd0 f i Compiler.obj
 0001:00020cd0       ??D?$_Vector_const_iterator@PAV?$map@HHU?$less@H@std@@V?$allocator@U?$pair@$$CBHH@std@@@2@@std@@V?$allocator@PAV?$map@HHU?$less@H@std@@V?$allocator@U?$pair@$$CBHH@std@@@2@@std@@@2@@std@@QBEABQAV?$map@HHU?$less@H@std@@V?$allocator@U?$pair@$$CBHH@std@@@2@@1@XZ 00421cd0 f i CompilerStream.obj
 0001:00020cd0       ??D?$_Vector_const_iterator@PAVBrush@@V?$allocator@PAVBrush@@@std@@@std@@QBEABQAVBrush@@XZ 00421cd0 f i Compiler.obj
 0001:00020cd0       ??D?$_Vector_const_iterator@VPlane@@V?$allocator@VPlane@@@std@@@std@@QBEABVPlane@@XZ 00421cd0 f i BspTree.obj
 0001:00020d40       ?_Tidy@?$vector@PAVVtx2@@V?$allocator@PAVVtx2@@@std@@@std@@IAEXXZ 00421d40 f i z_ed2Doc.obj
 0001:00020d40       ?_Tidy@?$vector@PAVCMotion@@V?$allocator@PAVCMotion@@@std@@@std@@IAEXXZ 00421d40 f i z_ed2Doc.obj
 0001:00020d40       ?_Tidy@?$vector@PAVPlane@@V?$allocator@PAVPlane@@@std@@@std@@IAEXXZ 00421d40 f i BspTree.obj
 0001:00020d40       ?_Tidy@?$vector@PAVPoly@@V?$allocator@PAVPoly@@@std@@@std@@IAEXXZ 00421d40 f i BspTree.obj
 0001:00020d40       ?_Tidy@?$vector@PAVScriptItem@@V?$allocator@PAVScriptItem@@@std@@@std@@IAEXXZ 00421d40 f i z_ed2Doc.obj
 0001:00020d40       ?_Tidy@?$vector@PAUGroup@CVertDlgDlg@@V?$allocator@PAUGroup@CVertDlgDlg@@@std@@@std@@IAEXXZ 00421d40 f i VertDlgDlg.obj
 0001:00020d40       ?_Tidy@?$vector@PAUHWND__@@V?$allocator@PAUHWND__@@@std@@@std@@IAEXXZ 00421d40 f i VertDlgDlg.obj
 0001:00020d40       ?_Tidy@?$vector@PAVTerLeaf@@V?$allocator@PAVTerLeaf@@@std@@@std@@IAEXXZ 00421d40 f i TerTree.obj
 0001:00020d40       ?_Tidy@?$vector@PAVBrush@@V?$allocator@PAVBrush@@@std@@@std@@IAEXXZ 00421d40 f i Compiler.obj
 0001:00020d40       ?_Tidy@?$vector@KV?$allocator@K@std@@@std@@IAEXXZ 00421d40 f i CompilerStream.obj
 0001:00020d40       ?_Tidy@?$vector@PAVCBaseDlg@@V?$allocator@PAVCBaseDlg@@@std@@@std@@IAEXXZ 00421d40 f i DlgBar.obj
 0001:00020d40       ?_Tidy@?$vector@PADV?$allocator@PAD@std@@@std@@IAEXXZ 00421d40 f i Scene.obj
 0001:00020d40       ?_Tidy@?$vector@PAVCMiniNode@@V?$allocator@PAVCMiniNode@@@std@@@std@@IAEXXZ 00421d40 f i BspTree.obj
 0001:00020d40       ?_Tidy@?$vector@PAV?$map@HHU?$less@H@std@@V?$allocator@U?$pair@$$CBHH@std@@@2@@std@@V?$allocator@PAV?$map@HHU?$less@H@std@@V?$allocator@U?$pair@$$CBHH@std@@@2@@std@@@2@@std@@IAEXXZ 00421d40 f i CompilerStream.obj
 0001:00020d40       ?_Tidy@?$vector@PAUPortalData@@V?$allocator@PAUPortalData@@@std@@@std@@IAEXXZ 00421d40 f i Compiler.obj
 0001:00020d40       ?_Tidy@?$vector@PAVCLightBulb@@V?$allocator@PAVCLightBulb@@@std@@@std@@IAEXXZ 00421d40 f i LMProc.obj
 0001:00020d40       ?_Tidy@?$vector@PAVV3@@V?$allocator@PAVV3@@@std@@@std@@IAEXXZ 00421d40 f i z_ed2View.obj
 0001:00020d40       ?_Tidy@?$vector@PAVSceItem@@V?$allocator@PAVSceItem@@@std@@@std@@IAEXXZ 00421d40 f i z_ed2Doc.obj
 0001:00020d40       ?_Tidy@?$vector@PAVCSoundItem@@V?$allocator@PAVCSoundItem@@@std@@@std@@IAEXXZ 00421d40 f i z_ed2Doc.obj
 0001:00020d40       ?_Tidy@?$vector@PAVCLeaf@@V?$allocator@PAVCLeaf@@@std@@@std@@IAEXXZ 00421d40 f i BspTree.obj
 0001:00020d40       ?_Tidy@?$vector@PAULmSizeBuff@@V?$allocator@PAULmSizeBuff@@@std@@@std@@IAEXXZ 00421d40 f i LMProc.obj
 0001:00020d40       ?_Tidy@?$vector@MV?$allocator@M@std@@@std@@IAEXXZ 00421d40 f i TerTree.obj
 0001:00020d40       ?_Tidy@?$vector@PAVCBspTree@@V?$allocator@PAVCBspTree@@@std@@@std@@IAEXXZ 00421d40 f i BspTree.obj
 0001:00020d40       ?_Tidy@?$vector@PAUSBytes@@V?$allocator@PAUSBytes@@@std@@@std@@IAEXXZ 00421d40 f i Compiler.obj
 0001:00020d40       ?_Tidy@?$vector@PAVTerNode@@V?$allocator@PAVTerNode@@@std@@@std@@IAEXXZ 00421d40 f i TerTree.obj
 0001:00020d40       ?_Tidy@?$vector@HV?$allocator@H@std@@@std@@IAEXXZ 00421d40 f i BspTree.obj
 0001:00020dc0       ??8const_iterator@?$_Tree@V?$_Tmap_traits@V?$basic_string@DU?$char_traits@D@std@@V?$allocator@D@2@@std@@U_Plg_Texture@@U?$less@V?$basic_string@DU?$char_traits@D@std@@V?$allocator@D@2@@std@@@2@V?$allocator@U?$pair@$$CBV?$basic_string@DU?$char_traits@D@std@@V?$allocator@D@2@@std@@U_Plg_Texture@@@std@@@2@$0A@@std@@@std@@QBE_NABV012@@Z 00421dc0 f i z_edmap.obj
 0001:00020dc0       ??8const_iterator@?$_Tree@V?$_Tmap_traits@PAVCDialog@@IU?$less@PAVCDialog@@@std@@V?$allocator@U?$pair@QAVCDialog@@I@std@@@3@$0A@@std@@@std@@QBE_NABV012@@Z 00421dc0 f i TabDlgSel.obj
 0001:00020dc0       ??8?$_Vector_const_iterator@PAVCSoundItem@@V?$allocator@PAVCSoundItem@@@std@@@std@@QBE_NABV01@@Z 00421dc0 f i CompilerStream.obj
 0001:00020dc0       ??8const_iterator@?$_Tree@V?$_Tset_traits@PAVBrush@@U?$less@PAVBrush@@@std@@V?$allocator@PAVBrush@@@3@$0A@@std@@@std@@QBE_NABV012@@Z 00421dc0 f i z_ed2Doc.obj
 0001:00020dc0       ??8?$_Vector_const_iterator@PAVScriptItem@@V?$allocator@PAVScriptItem@@@std@@@std@@QBE_NABV01@@Z 00421dc0 f i CompilerStream.obj
 0001:00020dc0       ??8?$_Vector_const_iterator@UNameTypeValue@@V?$allocator@UNameTypeValue@@@std@@@std@@QBE_NABV01@@Z 00421dc0 f i DlgGameItem.obj
 0001:00020dc0       ??8const_iterator@?$_Tree@V?$_Tset_traits@PAVPoly@@U?$less@PAVPoly@@@std@@V?$allocator@PAVPoly@@@3@$0A@@std@@@std@@QBE_NABV012@@Z 00421dc0 f i DialogEvalDets.obj
 0001:00020dc0       ??8?$_Vector_const_iterator@VV3@@V?$allocator@VV3@@@std@@@std@@QBE_NABV01@@Z 00421dc0 f i PortalPRC.obj
 0001:00020dc0       ??8const_iterator@?$_Tree@V?$_Tmap_traits@HV?$vector@PAVCLeaf@@V?$allocator@PAVCLeaf@@@std@@@std@@U?$less@H@2@V?$allocator@U?$pair@$$CBHV?$vector@PAVCLeaf@@V?$allocator@PAVCLeaf@@@std@@@std@@@std@@@2@$0A@@std@@@std@@QBE_NABV012@@Z 00421dc0 f i Compiler.obj
 0001:00020dc0       ??8const_iterator@?$_Tree@V?$_Tmap_traits@PAVBrush@@HU?$less@PAVBrush@@@std@@V?$allocator@U?$pair@QAVBrush@@H@std@@@3@$0A@@std@@@std@@QBE_NABV012@@Z 00421dc0 f i DlgBar.obj
 0001:00020dc0       ??8?$_Vector_const_iterator@VVtx2@@V?$allocator@VVtx2@@@std@@@std@@QBE_NABV01@@Z 00421dc0 f i LMProc.obj
 0001:00020dc0       ??8const_iterator@?$_Tree@V?$_Tmap_traits@V?$basic_string@DU?$char_traits@D@std@@V?$allocator@D@2@@std@@V12@U?$less@V?$basic_string@DU?$char_traits@D@std@@V?$allocator@D@2@@std@@@2@V?$allocator@U?$pair@$$CBV?$basic_string@DU?$char_traits@D@std@@V?$allocator@D@2@@std@@V12@@std@@@2@$0A@@std@@@std@@QBE_NABV012@@Z 00421dc0 f i CompilerStream.obj
 0001:00020dc0       ??8const_iterator@?$_Tree@V?$_Tmap_traits@V?$basic_string@DU?$char_traits@D@std@@V?$allocator@D@2@@std@@PAVCLbDlg@@U?$less@V?$basic_string@DU?$char_traits@D@std@@V?$allocator@D@2@@std@@@2@V?$allocator@U?$pair@$$CBV?$basic_string@DU?$char_traits@D@std@@V?$allocator@D@2@@std@@PAVCLbDlg@@@std@@@2@$0A@@std@@@std@@QBE_NABV012@@Z 00421dc0 f i PrpLb.obj
 0001:00020dc0       ??8?$_Vector_const_iterator@VCLR@@V?$allocator@VCLR@@@std@@@std@@QBE_NABV01@@Z 00421dc0 f i z_ed2DocSave.obj
 0001:00020dc0       ??8?$_Vector_const_iterator@PAVCBspTree@@V?$allocator@PAVCBspTree@@@std@@@std@@QBE_NABV01@@Z 00421dc0 f i Compiler.obj
 0001:00020dc0       ??8?$_Vector_const_iterator@PAUGroup@CVertDlgDlg@@V?$allocator@PAUGroup@CVertDlgDlg@@@std@@@std@@QBE_NABV01@@Z 00421dc0 f i VertDlgDlg.obj
 0001:00020dc0       ??8?$_Vector_const_iterator@VItemCat@@V?$allocator@VItemCat@@@std@@@std@@QBE_NABV01@@Z 00421dc0 f i CompilerStream.obj
 0001:00020dc0       ??8?$_Vector_const_iterator@PAVSceItem@@V?$allocator@PAVSceItem@@@std@@@std@@QBE_NABV01@@Z 00421dc0 f i CompilerStream.obj
 0001:00020dc0       ??8?$_Vector_const_iterator@PAVTerNode@@V?$allocator@PAVTerNode@@@std@@@std@@QBE_NABV01@@Z 00421dc0 f i CompilerStream.obj
 0001:00020dc0       ??8?$_Vector_const_iterator@PAVBrush@@V?$allocator@PAVBrush@@@std@@@std@@QBE_NABV01@@Z 00421dc0 f i Compiler.obj
 0001:00020dc0       ??8const_iterator@?$_Tree@V?$_Tmap_traits@HVV3@@U?$less@H@std@@V?$allocator@U?$pair@$$CBHVV3@@@std@@@3@$0A@@std@@@std@@QBE_NABV012@@Z 00421dc0 f i DlgCompProgress.obj
 0001:00020dc0       ??8?$_Vector_const_iterator@PADV?$allocator@PAD@std@@@std@@QBE_NABV01@@Z 00421dc0 f i Scene.obj
 0001:00020dc0       ??8?$_Vector_const_iterator@PAVCMiniNode@@V?$allocator@PAVCMiniNode@@@std@@@std@@QBE_NABV01@@Z 00421dc0 f i BspTree.obj
 0001:00020dc0       ??8?$_Vector_const_iterator@UXmlFace@@V?$allocator@UXmlFace@@@std@@@std@@QBE_NABV01@@Z 00421dc0 f i z_ed2DocSave.obj
 0001:00020dc0       ??8?$_Vector_const_iterator@VPortal@@V?$allocator@VPortal@@@std@@@std@@QBE_NABV01@@Z 00421dc0 f i Compiler.obj
 0001:00020dc0       ??8?$_Vector_const_iterator@HV?$allocator@H@std@@@std@@QBE_NABV01@@Z 00421dc0 f i z_ed2DocSave.obj
 0001:00020dc0       ??8?$_Vector_const_iterator@UUV@@V?$allocator@UUV@@@std@@@std@@QBE_NABV01@@Z 00421dc0 f i z_ed2DocSave.obj
 0001:00020dc0       ??8?$_Vector_const_iterator@PAVCLightBulb@@V?$allocator@PAVCLightBulb@@@std@@@std@@QBE_NABV01@@Z 00421dc0 f i LMProc.obj
 0001:00020dc0       ??8?$_Vector_const_iterator@PAULmSizeBuff@@V?$allocator@PAULmSizeBuff@@@std@@@std@@QBE_NABV01@@Z 00421dc0 f i CompilerStream.obj
 0001:00020dc0       ??8const_iterator@?$_Tree@V?$_Tmap_traits@HHU?$less@H@std@@V?$allocator@U?$pair@$$CBHH@std@@@2@$0A@@std@@@std@@QBE_NABV012@@Z 00421dc0 f i BspTree.obj
 0001:00020dc0       ??8const_iterator@?$_Tree@V?$_Tmap_traits@V?$basic_string@DU?$char_traits@D@std@@V?$allocator@D@2@@std@@UTexture@@U?$less@V?$basic_string@DU?$char_traits@D@std@@V?$allocator@D@2@@std@@@2@V?$allocator@U?$pair@$$CBV?$basic_string@DU?$char_traits@D@std@@V?$allocator@D@2@@std@@UTexture@@@std@@@2@$0A@@std@@@std@@QBE_NABV012@@Z 00421dc0 f i CompilerStream.obj
 0001:00020dc0       ??8?$_Vector_const_iterator@PAVCLeaf@@V?$allocator@PAVCLeaf@@@std@@@std@@QBE_NABV01@@Z 00421dc0 f i BspTree.obj
 0001:00020dc0       ??8?$_Vector_const_iterator@V?$basic_string@DU?$char_traits@D@std@@V?$allocator@D@2@@std@@V?$allocator@V?$basic_string@DU?$char_traits@D@std@@V?$allocator@D@2@@std@@@2@@std@@QBE_NABV01@@Z 00421dc0 f i CompilerStream.obj
 0001:00020dc0       ??8?$_Vector_const_iterator@PAVVtx2@@V?$allocator@PAVVtx2@@@std@@@std@@QBE_NABV01@@Z 00421dc0 f i z_ed2Doc.obj
 0001:00020dc0       ??8?$_Vector_const_iterator@VPlane@@V?$allocator@VPlane@@@std@@@std@@QBE_NABV01@@Z 00421dc0 f i BspTree.obj
 0001:00020dc0       ??8?$_Vector_const_iterator@PAVPoly@@V?$allocator@PAVPoly@@@std@@@std@@QBE_NABV01@@Z 00421dc0 f i CompilerStream.obj
 0001:00020dc0       ??8const_iterator@?$_Tree@V?$_Tmap_traits@HPAVBrush@@U?$less@H@std@@V?$allocator@U?$pair@$$CBHPAVBrush@@@std@@@3@$0A@@std@@@std@@QBE_NABV012@@Z 00421dc0 f i z_ed2DocSave.obj
 0001:00020dc0       ??8const_iterator@?$_Tree@V?$_Tset_traits@IU?$less@I@std@@V?$allocator@I@2@$0A@@std@@@std@@QBE_NABV012@@Z 00421dc0 f i DlgBrshProp.obj
 0001:00020dc0       ??8?$_Vector_const_iterator@PAVCMotion@@V?$allocator@PAVCMotion@@@std@@@std@@QBE_NABV01@@Z 00421dc0 f i CompilerStream.obj
 0001:00020dc0       ??8?$_Vector_const_iterator@VPoly@@V?$allocator@VPoly@@@std@@@std@@QBE_NABV01@@Z 00421dc0 f i BspTree.obj
 0001:00020e10       ?push_back@?$vector@V?$basic_string@DU?$char_traits@D@std@@V?$allocator@D@2@@std@@V?$allocator@V?$basic_string@DU?$char_traits@D@std@@V?$allocator@D@2@@std@@@2@@std@@QAEXABV?$basic_string@DU?$char_traits@D@std@@V?$allocator@D@2@@2@@Z 00421e10 f i CompilerStream.obj
 0001:00020f20       ?_Buy@?$vector@V?$basic_string@DU?$char_traits@D@std@@V?$allocator@D@2@@std@@V?$allocator@V?$basic_string@DU?$char_traits@D@std@@V?$allocator@D@2@@std@@@2@@std@@IAE_NI@Z 00421f20 f i CompilerStream.obj
 0001:00020f20       ?_Buy@?$vector@UVNT@@V?$allocator@UVNT@@@std@@@std@@IAE_NI@Z 00421f20 f i DlgEditor2D.obj
 0001:00020f20       ?_Buy@?$vector@V?$vvector@VV3@@@@V?$allocator@V?$vvector@VV3@@@@@std@@@std@@IAE_NI@Z 00421f20 f i DlgEditor2D.obj
 0001:00020fe0       ??0const_iterator@?$_Tree@V?$_Tmap_traits@PAVBrush@@HU?$less@PAVBrush@@@std@@V?$allocator@U?$pair@QAVBrush@@H@std@@@3@$0A@@std@@@std@@QAE@PAU_Node@?$_Tree_nod@V?$_Tmap_traits@PAVBrush@@HU?$less@PAVBrush@@@std@@V?$allocator@U?$pair@QAVBrush@@H@std@@@3@$0A@@std@@@2@PBV12@@Z 00421fe0 f i DlgBar.obj
 0001:00020fe0       ??0const_iterator@?$_Tree@V?$_Tmap_traits@V?$basic_string@DU?$char_traits@D@std@@V?$allocator@D@2@@std@@V12@U?$less@V?$basic_string@DU?$char_traits@D@std@@V?$allocator@D@2@@std@@@2@V?$allocator@U?$pair@$$CBV?$basic_string@DU?$char_traits@D@std@@V?$allocator@D@2@@std@@V12@@std@@@2@$0A@@std@@@std@@QAE@PAU_Node@?$_Tree_nod@V?$_Tmap_traits@V?$basic_string@DU?$char_traits@D@std@@V?$allocator@D@2@@std@@V12@U?$less@V?$basic_string@DU?$char_traits@D@std@@V?$allocator@D@2@@std@@@2@V?$allocator@U?$pair@$$CBV?$basic_string@DU?$char_traits@D@std@@V?$allocator@D@2@@std@@V12@@std@@@2@$0A@@std@@@2@PBV12@@Z 00421fe0 f i CompilerStream.obj
 0001:00020fe0       ??0const_iterator@?$_Tree@V?$_Tmap_traits@HVV3@@U?$less@H@std@@V?$allocator@U?$pair@$$CBHVV3@@@std@@@3@$0A@@std@@@std@@QAE@PAU_Node@?$_Tree_nod@V?$_Tmap_traits@HVV3@@U?$less@H@std@@V?$allocator@U?$pair@$$CBHVV3@@@std@@@3@$0A@@std@@@2@PBV12@@Z 00421fe0 f i RepLBox.obj
 0001:00020fe0       ??0const_iterator@?$_Tree@V?$_Tmap_traits@HV?$vector@PAVCLeaf@@V?$allocator@PAVCLeaf@@@std@@@std@@U?$less@H@2@V?$allocator@U?$pair@$$CBHV?$vector@PAVCLeaf@@V?$allocator@PAVCLeaf@@@std@@@std@@@std@@@2@$0A@@std@@@std@@QAE@PAU_Node@?$_Tree_nod@V?$_Tmap_traits@HV?$vector@PAVCLeaf@@V?$allocator@PAVCLeaf@@@std@@@std@@U?$less@H@2@V?$allocator@U?$pair@$$CBHV?$vector@PAVCLeaf@@V?$allocator@PAVCLeaf@@@std@@@std@@@std@@@2@$0A@@std@@@2@PBV12@@Z 00421fe0 f i Compiler.obj
 0001:00020fe0       ??0const_iterator@?$_Tree@V?$_Tmap_traits@V?$basic_string@DU?$char_traits@D@std@@V?$allocator@D@2@@std@@PAVCLbDlg@@U?$less@V?$basic_string@DU?$char_traits@D@std@@V?$allocator@D@2@@std@@@2@V?$allocator@U?$pair@$$CBV?$basic_string@DU?$char_traits@D@std@@V?$allocator@D@2@@std@@PAVCLbDlg@@@std@@@2@$0A@@std@@@std@@QAE@PAU_Node@?$_Tree_nod@V?$_Tmap_traits@V?$basic_string@DU?$char_traits@D@std@@V?$allocator@D@2@@std@@PAVCLbDlg@@U?$less@V?$basic_string@DU?$char_traits@D@std@@V?$allocator@D@2@@std@@@2@V?$allocator@U?$pair@$$CBV?$basic_string@DU?$char_traits@D@std@@V?$allocator@D@2@@std@@PAVCLbDlg@@@std@@@2@$0A@@std@@@2@PBV12@@Z 00421fe0 f i PrpLb.obj
 0001:00020fe0       ??0const_iterator@?$_Tree@V?$_Tset_traits@HU?$less@H@std@@V?$allocator@H@2@$0A@@std@@@std@@QAE@PAU_Node@?$_Tree_nod@V?$_Tset_traits@HU?$less@H@std@@V?$allocator@H@2@$0A@@std@@@2@PBV12@@Z 00421fe0 f i BspTree.obj
 0001:00020fe0       ??0const_iterator@?$_Tree@V?$_Tset_traits@PAVBrush@@U?$less@PAVBrush@@@std@@V?$allocator@PAVBrush@@@3@$0A@@std@@@std@@QAE@PAU_Node@?$_Tree_nod@V?$_Tset_traits@PAVBrush@@U?$less@PAVBrush@@@std@@V?$allocator@PAVBrush@@@3@$0A@@std@@@2@PBV12@@Z 00421fe0 f i DialogEvalDets.obj
 0001:00020fe0       ??0const_iterator@?$_Tree@V?$_Tmap_traits@HHU?$less@H@std@@V?$allocator@U?$pair@$$CBHH@std@@@2@$0A@@std@@@std@@QAE@PAU_Node@?$_Tree_nod@V?$_Tmap_traits@HHU?$less@H@std@@V?$allocator@U?$pair@$$CBHH@std@@@2@$0A@@std@@@2@PBV12@@Z 00421fe0 f i BspTree.obj
 0001:00020fe0       ??0const_iterator@?$_Tree@V?$_Tset_traits@PAVPoly@@U?$less@PAVPoly@@@std@@V?$allocator@PAVPoly@@@3@$0A@@std@@@std@@QAE@PAU_Node@?$_Tree_nod@V?$_Tset_traits@PAVPoly@@U?$less@PAVPoly@@@std@@V?$allocator@PAVPoly@@@3@$0A@@std@@@2@PBV12@@Z 00421fe0 f i DialogEvalDets.obj
 0001:00020fe0       ??0const_iterator@?$_Tree@V?$_Tmap_traits@V?$basic_string@DU?$char_traits@D@std@@V?$allocator@D@2@@std@@UTexture@@U?$less@V?$basic_string@DU?$char_traits@D@std@@V?$allocator@D@2@@std@@@2@V?$allocator@U?$pair@$$CBV?$basic_string@DU?$char_traits@D@std@@V?$allocator@D@2@@std@@UTexture@@@std@@@2@$0A@@std@@@std@@QAE@PAU_Node@?$_Tree_nod@V?$_Tmap_traits@V?$basic_string@DU?$char_traits@D@std@@V?$allocator@D@2@@std@@UTexture@@U?$less@V?$basic_string@DU?$char_traits@D@std@@V?$allocator@D@2@@std@@@2@V?$allocator@U?$pair@$$CBV?$basic_string@DU?$char_traits@D@std@@V?$allocator@D@2@@std@@UTexture@@@std@@@2@$0A@@std@@@2@PBV12@@Z 00421fe0 f i CompilerStream.obj
 0001:00020fe0       ??0const_iterator@?$_Tree@V?$_Tset_traits@PAVV3@@U?$less@PAVV3@@@std@@V?$allocator@PAVV3@@@3@$0A@@std@@@std@@QAE@PAU_Node@?$_Tree_nod@V?$_Tset_traits@PAVV3@@U?$less@PAVV3@@@std@@V?$allocator@PAVV3@@@3@$0A@@std@@@2@PBV12@@Z 00421fe0 f i z_ed2DocDraw.obj
 0001:00020fe0       ??0const_iterator@?$_Tree@V?$_Tmap_traits@V?$basic_string@DU?$char_traits@D@std@@V?$allocator@D@2@@std@@U_Plg_Texture@@U?$less@V?$basic_string@DU?$char_traits@D@std@@V?$allocator@D@2@@std@@@2@V?$allocator@U?$pair@$$CBV?$basic_string@DU?$char_traits@D@std@@V?$allocator@D@2@@std@@U_Plg_Texture@@@std@@@2@$0A@@std@@@std@@QAE@PAU_Node@?$_Tree_nod@V?$_Tmap_traits@V?$basic_string@DU?$char_traits@D@std@@V?$allocator@D@2@@std@@U_Plg_Texture@@U?$less@V?$basic_string@DU?$char_traits@D@std@@V?$allocator@D@2@@std@@@2@V?$allocator@U?$pair@$$CBV?$basic_string@DU?$char_traits@D@std@@V?$allocator@D@2@@std@@U_Plg_Texture@@@std@@@2@$0A@@std@@@2@PBV12@@Z 00421fe0 f i z_edmap.obj
 0001:00020fe0       ??0const_iterator@?$_Tree@V?$_Tmap_traits@HPAVBrush@@U?$less@H@std@@V?$allocator@U?$pair@$$CBHPAVBrush@@@std@@@3@$0A@@std@@@std@@QAE@PAU_Node@?$_Tree_nod@V?$_Tmap_traits@HPAVBrush@@U?$less@H@std@@V?$allocator@U?$pair@$$CBHPAVBrush@@@std@@@3@$0A@@std@@@2@PBV12@@Z 00421fe0 f i z_ed2DocSave.obj
 0001:00020fe0       ??0const_iterator@?$_Tree@V?$_Tset_traits@IU?$less@I@std@@V?$allocator@I@2@$0A@@std@@@std@@QAE@PAU_Node@?$_Tree_nod@V?$_Tset_traits@IU?$less@I@std@@V?$allocator@I@2@$0A@@std@@@2@PBV12@@Z 00421fe0 f i DlgBrshProp.obj
 0001:00020fe0       ??0const_iterator@?$_Tree@V?$_Tmap_traits@PAVCDialog@@IU?$less@PAVCDialog@@@std@@V?$allocator@U?$pair@QAVCDialog@@I@std@@@3@$0A@@std@@@std@@QAE@PAU_Node@?$_Tree_nod@V?$_Tmap_traits@PAVCDialog@@IU?$less@PAVCDialog@@@std@@V?$allocator@U?$pair@QAVCDialog@@I@std@@@3@$0A@@std@@@2@PBV12@@Z 00421fe0 f i TabDlgSel.obj
 0001:00021020       ??E?$_Vector_const_iterator@VV3@@V?$allocator@VV3@@@std@@@std@@QAEAAV01@XZ 00422020 f i CompilerStream.obj
 0001:00021020       ??E?$_Vector_const_iterator@UPolyEdge@@V?$allocator@UPolyEdge@@@std@@@std@@QAEAAV01@XZ 00422020 f i z_ed2DocDraw.obj
 0001:000210a0       ??E?$_Vector_const_iterator@PAVPoly@@V?$allocator@PAVPoly@@@std@@@std@@QAEAAV01@XZ 004220a0 f i CompilerStream.obj
 0001:000210a0       ??E?$_Vector_const_iterator@PAVSceItem@@V?$allocator@PAVSceItem@@@std@@@std@@QAEAAV01@XZ 004220a0 f i Compiler.obj
 0001:000210a0       ??E?$_Vector_const_iterator@PADV?$allocator@PAD@std@@@std@@QAEAAV01@XZ 004220a0 f i Scene.obj
 0001:000210a0       ??E?$_Vector_const_iterator@PAVBrush@@V?$allocator@PAVBrush@@@std@@@std@@QAEAAV01@XZ 004220a0 f i Compiler.obj
 0001:000210a0       ??E?$_Vector_const_iterator@PAUHWND__@@V?$allocator@PAUHWND__@@@std@@@std@@QAEAAV01@XZ 004220a0 f i VertDlgDlg.obj
 0001:000210a0       ??E?$_Vector_const_iterator@PAVCLightBulb@@V?$allocator@PAVCLightBulb@@@std@@@std@@QAEAAV01@XZ 004220a0 f i LMProc.obj
 0001:000210a0       ??E?$_Vector_const_iterator@PAV?$map@HHU?$less@H@std@@V?$allocator@U?$pair@$$CBHH@std@@@2@@std@@V?$allocator@PAV?$map@HHU?$less@H@std@@V?$allocator@U?$pair@$$CBHH@std@@@2@@std@@@2@@std@@QAEAAV01@XZ 004220a0 f i CompilerStream.obj
 0001:000210a0       ??E?$_Vector_const_iterator@PAVCMiniNode@@V?$allocator@PAVCMiniNode@@@std@@@std@@QAEAAV01@XZ 004220a0 f i BspTree.obj
 0001:000210a0       ??E?$_Vector_const_iterator@PAVCMotion@@V?$allocator@PAVCMotion@@@std@@@std@@QAEAAV01@XZ 004220a0 f i CompilerStream.obj
 0001:000210a0       ??E?$_Vector_const_iterator@PAVTerLeaf@@V?$allocator@PAVTerLeaf@@@std@@@std@@QAEAAV01@XZ 004220a0 f i Compiler.obj
 0001:000210a0       ??E?$_Vector_const_iterator@PAVTerNode@@V?$allocator@PAVTerNode@@@std@@@std@@QAEAAV01@XZ 004220a0 f i CompilerStream.obj
 0001:000210a0       ??E?$_Vector_const_iterator@PAUGroup@CVertDlgDlg@@V?$allocator@PAUGroup@CVertDlgDlg@@@std@@@std@@QAEAAV01@XZ 004220a0 f i VertDlgDlg.obj
 0001:000210a0       ??E?$_Vector_const_iterator@PAVV3@@V?$allocator@PAVV3@@@std@@@std@@QAEAAV01@XZ 004220a0 f i z_ed2View.obj
 0001:000210a0       ??E?$_Vector_const_iterator@PAVScriptItem@@V?$allocator@PAVScriptItem@@@std@@@std@@QAEAAV01@XZ 004220a0 f i CompilerStream.obj
 0001:000210a0       ??E?$_Vector_const_iterator@PAUSBytes@@V?$allocator@PAUSBytes@@@std@@@std@@QAEAAV01@XZ 004220a0 f i Compiler.obj
 0001:000210a0       ??E?$_Vector_const_iterator@PAVCLeaf@@V?$allocator@PAVCLeaf@@@std@@@std@@QAEAAV01@XZ 004220a0 f i BspTree.obj
 0001:000210a0       ??E?$_Vector_const_iterator@PAUPortalData@@V?$allocator@PAUPortalData@@@std@@@std@@QAEAAV01@XZ 004220a0 f i PVSPrc.obj
 0001:000210a0       ??E?$_Vector_const_iterator@PAULmSizeBuff@@V?$allocator@PAULmSizeBuff@@@std@@@std@@QAEAAV01@XZ 004220a0 f i CompilerStream.obj
 0001:000210a0       ??E?$_Vector_const_iterator@PAVVtx2@@V?$allocator@PAVVtx2@@@std@@@std@@QAEAAV01@XZ 004220a0 f i z_ed2Doc.obj
 0001:000210a0       ??E?$_Vector_const_iterator@VCLR@@V?$allocator@VCLR@@@std@@@std@@QAEAAV01@XZ 004220a0 f i z_ed2DocSave.obj
 0001:000210a0       ??E?$_Vector_const_iterator@HV?$allocator@H@std@@@std@@QAEAAV01@XZ 004220a0 f i Compiler.obj
 0001:000210a0       ??E?$_Vector_const_iterator@PAVCBspTree@@V?$allocator@PAVCBspTree@@@std@@@std@@QAEAAV01@XZ 004220a0 f i BspTree.obj
 0001:000210a0       ??E?$_Vector_const_iterator@PAVCSoundItem@@V?$allocator@PAVCSoundItem@@@std@@@std@@QAEAAV01@XZ 004220a0 f i CompilerStream.obj
 0001:00021120       ??E?$_Vector_const_iterator@VItemCat@@V?$allocator@VItemCat@@@std@@@std@@QAEAAV01@XZ 00422120 f i CompilerStream.obj
 0001:000211a0       ?clear@?$vector@PAUPortalData@@V?$allocator@PAUPortalData@@@std@@@std@@QAEXXZ 004221a0 f i PVSPrc.obj
 0001:000211a0       ?clear@?$vector@PAVCLeaf@@V?$allocator@PAVCLeaf@@@std@@@std@@QAEXXZ 004221a0 f i BspTree.obj
 0001:000211a0       ?clear@?$vector@PAVVtx2@@V?$allocator@PAVVtx2@@@std@@@std@@QAEXXZ 004221a0 f i z_ed2Doc.obj
 0001:000211a0       ?clear@?$vector@PAVCMotion@@V?$allocator@PAVCMotion@@@std@@@std@@QAEXXZ 004221a0 f i z_ed2Doc.obj
 0001:000211a0       ?clear@?$vector@PAVBrush@@V?$allocator@PAVBrush@@@std@@@std@@QAEXXZ 004221a0 f i DialogEvalDets.obj
 0001:000211a0       ?clear@?$vector@HV?$allocator@H@std@@@std@@QAEXXZ 004221a0 f i BspTree.obj
 0001:000211a0       ?clear@?$vector@PAVScriptItem@@V?$allocator@PAVScriptItem@@@std@@@std@@QAEXXZ 004221a0 f i z_ed2Doc.obj
 0001:000211a0       ?clear@?$vector@PAV?$map@HHU?$less@H@std@@V?$allocator@U?$pair@$$CBHH@std@@@2@@std@@V?$allocator@PAV?$map@HHU?$less@H@std@@V?$allocator@U?$pair@$$CBHH@std@@@2@@std@@@2@@std@@QAEXXZ 004221a0 f i CompilerStream.obj
 0001:000211a0       ?clear@?$vector@PAUSBytes@@V?$allocator@PAUSBytes@@@std@@@std@@QAEXXZ 004221a0 f i Compiler.obj
 0001:000211a0       ?clear@?$vector@PAVCSoundItem@@V?$allocator@PAVCSoundItem@@@std@@@std@@QAEXXZ 004221a0 f i z_ed2Doc.obj
 0001:000211a0       ?clear@?$vector@PAVSceItem@@V?$allocator@PAVSceItem@@@std@@@std@@QAEXXZ 004221a0 f i z_ed2Doc.obj
 0001:000211a0       ?clear@?$vector@PAVPoly@@V?$allocator@PAVPoly@@@std@@@std@@QAEXXZ 004221a0 f i LMProc.obj
 0001:000211a0       ?clear@?$vector@PAVCBspTree@@V?$allocator@PAVCBspTree@@@std@@@std@@QAEXXZ 004221a0 f i BspTree.obj
 0001:000211a0       ?clear@?$vector@PAULmSizeBuff@@V?$allocator@PAULmSizeBuff@@@std@@@std@@QAEXXZ 004221a0 f i LMProc.obj
 0001:000211a0       ?clear@?$vector@PAVTerLeaf@@V?$allocator@PAVTerLeaf@@@std@@@std@@QAEXXZ 004221a0 f i TerTree.obj
 0001:000211a0       ?clear@?$vector@MV?$allocator@M@std@@@std@@QAEXXZ 004221a0 f i TerTree.obj
 0001:000211a0       ?clear@?$vector@PAVTerNode@@V?$allocator@PAVTerNode@@@std@@@std@@QAEXXZ 004221a0 f i TerTree.obj
 0001:000211a0       ?clear@?$vector@PAVCMiniNode@@V?$allocator@PAVCMiniNode@@@std@@@std@@QAEXXZ 004221a0 f i MiniBsp.obj
 0001:00021270       ??E?$_Vector_const_iterator@UNameTypeValue@@V?$allocator@UNameTypeValue@@@std@@@std@@QAEAAV01@XZ 00422270 f i CompilerStream.obj
 0001:000212f0       ?insert@?$vector@V?$basic_string@DU?$char_traits@D@std@@V?$allocator@D@2@@std@@V?$allocator@V?$basic_string@DU?$char_traits@D@std@@V?$allocator@D@2@@std@@@2@@std@@QAE?AV?$_Vector_iterator@V?$basic_string@DU?$char_traits@D@std@@V?$allocator@D@2@@std@@V?$allocator@V?$basic_string@DU?$char_traits@D@std@@V?$allocator@D@2@@std@@@2@@2@V?$_Vector_const_iterator@V?$basic_string@DU?$char_traits@D@std@@V?$allocator@D@2@@std@@V?$allocator@V?$basic_string@DU?$char_traits@D@std@@V?$allocator@D@2@@std@@@2@@2@ABV?$basic_string@DU?$char_traits@D@std@@V?$allocator@D@2@@2@@Z 004222f0 f i CompilerStream.obj
 0001:00021430       ?_Inc@const_iterator@?$_Tree@V?$_Tmap_traits@V?$basic_string@DU?$char_traits@D@std@@V?$allocator@D@2@@std@@UTexture@@U?$less@V?$basic_string@DU?$char_traits@D@std@@V?$allocator@D@2@@std@@@2@V?$allocator@U?$pair@$$CBV?$basic_string@DU?$char_traits@D@std@@V?$allocator@D@2@@std@@UTexture@@@std@@@2@$0A@@std@@@std@@QAEXXZ 00422430 f i CompilerStream.obj
 0001:00021500       ?erase@?$vector@PAV?$map@HHU?$less@H@std@@V?$allocator@U?$pair@$$CBHH@std@@@2@@std@@V?$allocator@PAV?$map@HHU?$less@H@std@@V?$allocator@U?$pair@$$CBHH@std@@@2@@std@@@2@@std@@QAE?AV?$_Vector_iterator@PAV?$map@HHU?$less@H@std@@V?$allocator@U?$pair@$$CBHH@std@@@2@@std@@V?$allocator@PAV?$map@HHU?$less@H@std@@V?$allocator@U?$pair@$$CBHH@std@@@2@@std@@@2@@2@V?$_Vector_const_iterator@PAV?$map@HHU?$less@H@std@@V?$allocator@U?$pair@$$CBHH@std@@@2@@std@@V?$allocator@PAV?$map@HHU?$less@H@std@@V?$allocator@U?$pair@$$CBHH@std@@@2@@std@@@2@@2@0@Z 00422500 f i CompilerStream.obj
 0001:00021500       ?erase@?$vector@PAVVtx2@@V?$allocator@PAVVtx2@@@std@@@std@@QAE?AV?$_Vector_iterator@PAVVtx2@@V?$allocator@PAVVtx2@@@std@@@2@V?$_Vector_const_iterator@PAVVtx2@@V?$allocator@PAVVtx2@@@std@@@2@0@Z 00422500 f i z_ed2Doc.obj
 0001:00021500       ?erase@?$vector@PAUPortalData@@V?$allocator@PAUPortalData@@@std@@@std@@QAE?AV?$_Vector_iterator@PAUPortalData@@V?$allocator@PAUPortalData@@@std@@@2@V?$_Vector_const_iterator@PAUPortalData@@V?$allocator@PAUPortalData@@@std@@@2@0@Z 00422500 f i PVSPrc.obj
 0001:00021500       ?erase@?$vector@PAVScriptItem@@V?$allocator@PAVScriptItem@@@std@@@std@@QAE?AV?$_Vector_iterator@PAVScriptItem@@V?$allocator@PAVScriptItem@@@std@@@2@V?$_Vector_const_iterator@PAVScriptItem@@V?$allocator@PAVScriptItem@@@std@@@2@0@Z 00422500 f i z_ed2Doc.obj
 0001:00021500       ?erase@?$vector@MV?$allocator@M@std@@@std@@QAE?AV?$_Vector_iterator@MV?$allocator@M@std@@@2@V?$_Vector_const_iterator@MV?$allocator@M@std@@@2@0@Z 00422500 f i TerTree.obj
 0001:00021500       ?erase@?$vector@PAVTerNode@@V?$allocator@PAVTerNode@@@std@@@std@@QAE?AV?$_Vector_iterator@PAVTerNode@@V?$allocator@PAVTerNode@@@std@@@2@V?$_Vector_const_iterator@PAVTerNode@@V?$allocator@PAVTerNode@@@std@@@2@0@Z 00422500 f i TerTree.obj
 0001:00021500       ?erase@?$vector@HV?$allocator@H@std@@@std@@QAE?AV?$_Vector_iterator@HV?$allocator@H@std@@@2@V?$_Vector_const_iterator@HV?$allocator@H@std@@@2@0@Z 00422500 f i BspTree.obj
 0001:00021500       ?erase@?$vector@PAVCLeaf@@V?$allocator@PAVCLeaf@@@std@@@std@@QAE?AV?$_Vector_iterator@PAVCLeaf@@V?$allocator@PAVCLeaf@@@std@@@2@V?$_Vector_const_iterator@PAVCLeaf@@V?$allocator@PAVCLeaf@@@std@@@2@0@Z 00422500 f i BspTree.obj
 0001:00021500       ?erase@?$vector@PAVSceItem@@V?$allocator@PAVSceItem@@@std@@@std@@QAE?AV?$_Vector_iterator@PAVSceItem@@V?$allocator@PAVSceItem@@@std@@@2@V?$_Vector_const_iterator@PAVSceItem@@V?$allocator@PAVSceItem@@@std@@@2@0@Z 00422500 f i z_ed2Doc.obj
 0001:00021500       ?erase@?$vector@PAVCMiniNode@@V?$allocator@PAVCMiniNode@@@std@@@std@@QAE?AV?$_Vector_iterator@PAVCMiniNode@@V?$allocator@PAVCMiniNode@@@std@@@2@V?$_Vector_const_iterator@PAVCMiniNode@@V?$allocator@PAVCMiniNode@@@std@@@2@0@Z 00422500 f i MiniBsp.obj
 0001:00021500       ?erase@?$vector@PAVBrush@@V?$allocator@PAVBrush@@@std@@@std@@QAE?AV?$_Vector_iterator@PAVBrush@@V?$allocator@PAVBrush@@@std@@@2@V?$_Vector_const_iterator@PAVBrush@@V?$allocator@PAVBrush@@@std@@@2@0@Z 00422500 f i DialogEvalDets.obj
 0001:00021500       ?erase@?$vector@PAVCBspTree@@V?$allocator@PAVCBspTree@@@std@@@std@@QAE?AV?$_Vector_iterator@PAVCBspTree@@V?$allocator@PAVCBspTree@@@std@@@2@V?$_Vector_const_iterator@PAVCBspTree@@V?$allocator@PAVCBspTree@@@std@@@2@0@Z 00422500 f i BspTree.obj
 0001:00021500       ?erase@?$vector@PAVTerLeaf@@V?$allocator@PAVTerLeaf@@@std@@@std@@QAE?AV?$_Vector_iterator@PAVTerLeaf@@V?$allocator@PAVTerLeaf@@@std@@@2@V?$_Vector_const_iterator@PAVTerLeaf@@V?$allocator@PAVTerLeaf@@@std@@@2@0@Z 00422500 f i TerTree.obj
 0001:00021500       ?erase@?$vector@PAVPoly@@V?$allocator@PAVPoly@@@std@@@std@@QAE?AV?$_Vector_iterator@PAVPoly@@V?$allocator@PAVPoly@@@std@@@2@V?$_Vector_const_iterator@PAVPoly@@V?$allocator@PAVPoly@@@std@@@2@0@Z 00422500 f i LMProc.obj
 0001:00021500       ?erase@?$vector@PAVCSoundItem@@V?$allocator@PAVCSoundItem@@@std@@@std@@QAE?AV?$_Vector_iterator@PAVCSoundItem@@V?$allocator@PAVCSoundItem@@@std@@@2@V?$_Vector_const_iterator@PAVCSoundItem@@V?$allocator@PAVCSoundItem@@@std@@@2@0@Z 00422500 f i z_ed2Doc.obj
 0001:00021500       ?erase@?$vector@PAULmSizeBuff@@V?$allocator@PAULmSizeBuff@@@std@@@std@@QAE?AV?$_Vector_iterator@PAULmSizeBuff@@V?$allocator@PAULmSizeBuff@@@std@@@2@V?$_Vector_const_iterator@PAULmSizeBuff@@V?$allocator@PAULmSizeBuff@@@std@@@2@0@Z 00422500 f i LMProc.obj
 0001:00021500       ?erase@?$vector@PAUSBytes@@V?$allocator@PAUSBytes@@@std@@@std@@QAE?AV?$_Vector_iterator@PAUSBytes@@V?$allocator@PAUSBytes@@@std@@@2@V?$_Vector_const_iterator@PAUSBytes@@V?$allocator@PAUSBytes@@@std@@@2@0@Z 00422500 f i Compiler.obj
 0001:00021500       ?erase@?$vector@PAVCMotion@@V?$allocator@PAVCMotion@@@std@@@std@@QAE?AV?$_Vector_iterator@PAVCMotion@@V?$allocator@PAVCMotion@@@std@@@2@V?$_Vector_const_iterator@PAVCMotion@@V?$allocator@PAVCMotion@@@std@@@2@0@Z 00422500 f i z_ed2Doc.obj
 0001:000215f0       ?_Inc@const_iterator@?$_Tree@V?$_Tmap_traits@V?$basic_string@DU?$char_traits@D@std@@V?$allocator@D@2@@std@@V12@U?$less@V?$basic_string@DU?$char_traits@D@std@@V?$allocator@D@2@@std@@@2@V?$allocator@U?$pair@$$CBV?$basic_string@DU?$char_traits@D@std@@V?$allocator@D@2@@std@@V12@@std@@@2@$0A@@std@@@std@@QAEXXZ 004225f0 f i CompilerStream.obj
 0001:000216c0       ?_Insert_n@?$vector@V?$basic_string@DU?$char_traits@D@std@@V?$allocator@D@2@@std@@V?$allocator@V?$basic_string@DU?$char_traits@D@std@@V?$allocator@D@2@@std@@@2@@std@@IAEXV?$_Vector_const_iterator@V?$basic_string@DU?$char_traits@D@std@@V?$allocator@D@2@@std@@V?$allocator@V?$basic_string@DU?$char_traits@D@std@@V?$allocator@D@2@@std@@@2@@2@IABV?$basic_string@DU?$char_traits@D@std@@V?$allocator@D@2@@2@@Z 004226c0 f i CompilerStream.obj
 0001:00022110       ??$Write@VV3@@@FlStream@@QAEHAAVV3@@PBD@Z 00423110 f i CompilerStream.obj
 0001:00022110       ??$Write@U_BTF_Section@@@FlStream@@QAEHAAU_BTF_Section@@PBD@Z 00423110 f i CompilerStream.obj
 0001:000221b0       ??$Write@U_BTF_Header@@@FlStream@@QAEHAAU_BTF_Header@@PBD@Z 004231b0 f i CompilerStream.obj
 0001:00022260       ??$Write@U_BTF_TextureRGB@@@FlStream@@QAEHAAU_BTF_TextureRGB@@PBD@Z 00423260 f i CompilerStream.obj
 0001:00022300       ??$Write@U_BTF_Vertex@@@FlStream@@QAEHAAU_BTF_Vertex@@PBD@Z 00423300 f i CompilerStream.obj
 0001:00022300       ??$Write@U_BTF_TextureInfo@@@FlStream@@QAEHAAU_BTF_TextureInfo@@PBD@Z 00423300 f i CompilerStream.obj
 0001:00022300       ??$Write@U_BTF_SndFile@@@FlStream@@QAEHAAU_BTF_SndFile@@PBD@Z 00423300 f i CompilerStream.obj
 0001:00022300       ??$Write@U_BTF_MotionNode@@@FlStream@@QAEHAAU_BTF_MotionNode@@PBD@Z 00423300 f i CompilerStream.obj
 0001:000223a0       ??$Write@U_BTF_ScrInfo@@@FlStream@@QAEHAAU_BTF_ScrInfo@@PBD@Z 004233a0 f i CompilerStream.obj
 0001:000223a0       ??$Write@U_BTF_Details@@@FlStream@@QAEHAAU_BTF_Details@@PBD@Z 004233a0 f i CompilerStream.obj
 0001:000223a0       ??$Write@U_BTF_SkyDom@@@FlStream@@QAEHAAU_BTF_SkyDom@@PBD@Z 004233a0 f i CompilerStream.obj
 0001:00022440       ??$Write@U_BTF_SndInfo@@@FlStream@@QAEHAAU_BTF_SndInfo@@PBD@Z 00423440 f i CompilerStream.obj
 0001:000224e0       ??$Write@U_BTF_Node@@@FlStream@@QAEHAAU_BTF_Node@@PBD@Z 004234e0 f i CompilerStream.obj
 0001:00022580       ??$Write@U_BTF_Leaf@@@FlStream@@QAEHAAU_BTF_Leaf@@PBD@Z 00423580 f i CompilerStream.obj
 0001:00022620       ??$Write@U_BTF_ModelInfo@@@FlStream@@QAEHAAU_BTF_ModelInfo@@PBD@Z 00423620 f i CompilerStream.obj
 0001:000226d0       ??$Write@U_BTF_Portal@@@FlStream@@QAEHAAU_BTF_Portal@@PBD@Z 004236d0 f i CompilerStream.obj
 0001:00022770       ??$Write@U_BTF_Poly@@@FlStream@@QAEHAAU_BTF_Poly@@PBD@Z 00423770 f i CompilerStream.obj
 0001:00022820       ??$Write@UBST_SceneInfo@@@FlStream@@QAEHAAUBST_SceneInfo@@PBD@Z 00423820 f i CompilerStream.obj
 0001:000228d0       ??$Write@J@FlStream@@QAEHAAJPBD@Z 004238d0 f i CompilerStream.obj
 0001:000228d0       ??$Write@H@FlStream@@QAEHAAHPBD@Z 004238d0 f i CompilerStream.obj
 0001:00022970       ??$Write@U_BTF_ItemCat@@@FlStream@@QAEHAAU_BTF_ItemCat@@PBD@Z 00423970 f i CompilerStream.obj
 0001:00022a20       ??$Write@U_BTF_Item@@@FlStream@@QAEHAAU_BTF_Item@@PBD@Z 00423a20 f i CompilerStream.obj
 0001:00022ad0       ??$Write@U_BTF_Motion@@@FlStream@@QAEHAAU_BTF_Motion@@PBD@Z 00423ad0 f i CompilerStream.obj
 0001:00022ad0       ??$Write@U_BTF_LmapInfo@@@FlStream@@QAEHAAU_BTF_LmapInfo@@PBD@Z 00423ad0 f i CompilerStream.obj
 0001:00022ad0       ??$Write@U_BTF_Plane@@@FlStream@@QAEHAAU_BTF_Plane@@PBD@Z 00423ad0 f i CompilerStream.obj
 0001:00022b70       ??$Write@U_BTF_Terrain_Tree@@@FlStream@@QAEHAAU_BTF_Terrain_Tree@@PBD@Z 00423b70 f i CompilerStream.obj
 0001:00022c20       ??$Write@U_BTF_Terrain_Node@@@FlStream@@QAEHAAU_BTF_Terrain_Node@@PBD@Z 00423c20 f i CompilerStream.obj
 0001:00022cc0       ??$Write@U_BTF_Terrain_Leaf@@@FlStream@@QAEHAAU_BTF_Terrain_Leaf@@PBD@Z 00423cc0 f i CompilerStream.obj
 0001:00022d60       ??$_Allocate@UPolyEdge@@@std@@YAPAUPolyEdge@@IPAU1@@Z 00423d60 f i z_ed2Doc.obj
 0001:00022d60       ??$_Allocate@VV3@@@std@@YAPAVV3@@IPAV1@@Z 00423d60 f i CompilerStream.obj
 0001:00022dc0       ??$_Allocate@UVNT@@@std@@YAPAUVNT@@IPAU1@@Z 00423dc0 f i Curve_Class.obj
 0001:00022dc0       ??$_Allocate@V?$vvector@VV3@@@@@std@@YAPAV?$vvector@VV3@@@@IPAV1@@Z 00423dc0 f i DlgEditor2D.obj
 0001:00022dc0       ??$_Allocate@V?$basic_string@DU?$char_traits@D@std@@V?$allocator@D@2@@std@@@std@@YAPAV?$basic_string@DU?$char_traits@D@std@@V?$allocator@D@2@@0@IPAV10@@Z 00423dc0 f i CompilerStream.obj
 0001:00022e20       ??$_Unchecked_move_backward@PAV?$basic_string@DU?$char_traits@D@std@@V?$allocator@D@2@@std@@PAV12@@stdext@@YAPAV?$basic_string@DU?$char_traits@D@std@@V?$allocator@D@2@@std@@PAV12@00@Z 00423e20 f i CompilerStream.obj
 0001:00022ee0       ??$_Unchecked_uninitialized_move@V?$_Vector_iterator@VPlane@@V?$allocator@VPlane@@@std@@@std@@PAVPlane@@V?$allocator@VPlane@@@2@@stdext@@YAPAVPlane@@V?$_Vector_iterator@VPlane@@V?$allocator@VPlane@@@std@@@std@@0PAV1@AAV?$allocator@VPlane@@@3@@Z 00423ee0 f i CompilerStream.obj
 0001:00022f60       ??$_Unchecked_uninitialized_move@V?$_Vector_iterator@VV3@@V?$allocator@VV3@@@std@@@std@@PAVV3@@V?$allocator@VV3@@@2@@stdext@@YAPAVV3@@V?$_Vector_iterator@VV3@@V?$allocator@VV3@@@std@@@std@@0PAV1@AAV?$allocator@VV3@@@3@@Z 00423f60 f i CompilerStream.obj
 0001:00022fe0       ??$_Uninit_fill_n@PAV?$basic_string@DU?$char_traits@D@std@@V?$allocator@D@2@@std@@IV12@V?$allocator@V?$basic_string@DU?$char_traits@D@std@@V?$allocator@D@2@@std@@@2@@std@@YAXPAV?$basic_string@DU?$char_traits@D@std@@V?$allocator@D@2@@0@IABV10@AAV?$allocator@V?$basic_string@DU?$char_traits@D@std@@V?$allocator@D@2@@std@@@0@U_Nonscalar_ptr_iterator_tag@0@U_Range_checked_iterator_tag@0@@Z 00423fe0 f i CompilerStream.obj
 0001:000230b0       ??$_Uninit_move@PAV?$basic_string@DU?$char_traits@D@std@@V?$allocator@D@2@@std@@PAV12@V?$allocator@V?$basic_string@DU?$char_traits@D@std@@V?$allocator@D@2@@std@@@2@@std@@YAPAV?$basic_string@DU?$char_traits@D@std@@V?$allocator@D@2@@0@PAV10@00AAV?$allocator@V?$basic_string@DU?$char_traits@D@std@@V?$allocator@D@2@@std@@@0@U_Swap_move_tag@0@U_Range_checked_iterator_tag@0@@Z 004240b0 f i CompilerStream.obj
 0001:000231d0       ??$_Construct@V?$basic_string@DU?$char_traits@D@std@@V?$allocator@D@2@@std@@V12@@std@@YAXPAV?$basic_string@DU?$char_traits@D@std@@V?$allocator@D@2@@0@ABV10@@Z 004241d0 f i CompilerStream.obj
 0001:00023270       ?swap@?$basic_string@DU?$char_traits@D@std@@V?$allocator@D@2@@std@@QAEXAAV12@@Z 00424270 f i CompilerStream.obj
 0001:000233f0       ??1LMProc@@UAE@XZ          004243f0 f   LMProc.obj
 0001:000234e0       ?_GatherSamePolys@LMProc@@AAEXAAV?$vvector@VPoly@@@@AAV?$_Vector_iterator@VPoly@@V?$allocator@VPoly@@@std@@@std@@AAV?$vvector@PAVPoly@@@@AAVBox@@@Z 004244e0 f   LMProc.obj
 0001:000236c0       ?Union@Box@@QAEXABV1@@Z    004246c0 f i LMProc.obj
 0001:000237a0       ?Calculate@LMProc@@QAEHPAVScene@@AAV?$vvector@PAVCBspTree@@@@@Z 004247a0 f   LMProc.obj
 0001:000242a0       ?Calculate@LMProc@@AAEHPAVScene@@PAVCBspTree@@1AAV?$vvector@PAVCLightBulb@@@@@Z 004252a0 f   LMProc.obj
 0001:00024a20       ?Reset@Box@@QAEXXZ         00425a20 f i LMProc.obj
 0001:00024aa0       ??0LmSizeBuff@@QAE@HHHHH@Z 00425aa0 f i LMProc.obj
 0001:00024d20       ?NTC_Clear@LMProc@@QAEXXZ  00425d20 f   LMProc.obj
 0001:00024d90       ?BuildLmapEdges@LMProc@@AAEXMAAVV3@@AAUUV@@1000@Z 00425d90 f   LMProc.obj
 0001:00025020       ?CalcMinMaxUVs@LMProc@@AAEXAAV?$vvector@PAVPoly@@@@AAUUV@@1@Z 00426020 f   LMProc.obj
 0001:00025180       ?NTC_BuildLmaps@LMProc@@QAEXPAVCBspTree@@@Z 00426180 f   LMProc.obj
 0001:000254e0       ?NTC_BuildLmaps@LMProc@@QAEXPAVTerTree@@@Z 004264e0 f   LMProc.obj
 0001:00025850       ?CalcBmpDims@LMProc@@AAE?AUtagSIZE@@ABUUV@@@Z 00426850 f   LMProc.obj
 0001:00025930       ?GouraudShade@LMProc@@AAEXAAV?$vvector@PAVPoly@@@@AAV?$vvector@PAVCLightBulb@@@@@Z 00426930 f   LMProc.obj
 0001:00026660       ?IsTouchesSphere@Box@@QAEHAAVV3@@M@Z 00427660 f i LMProc.obj
 0001:00026710       ?GetLmapBytes@LMProc@@QAEHPBDAAULmSizeBuff@@@Z 00427710 f   LMProc.obj
 0001:00026810       ??4LmSizeBuff@@QAEAAU0@ABU0@@Z 00427810 f i LMProc.obj
 0001:00026920       ?CalculateTtLm@LMProc@@AAEXAAVTerTree@@AAV?$vvector@PAVCLightBulb@@@@@Z 00427920 f   LMProc.obj
 0001:00027250       ?Texs@CBigTerrain@@QAEAAU0@XZ 00428250 f i LMProc.obj
 0001:000272b0       ?_YolTtLight@LMProc@@AAEHAAVTerTree@@HHABVV3@@11PAVCLRNOA@@HAAV?$vvector@PAVCLightBulb@@@@@Z 004282b0 f   LMProc.obj
 0001:00027550       ?_GetLumColor@LMProc@@AAEHAAVV3@@0ABV2@AAV?$vvector@PAVCLightBulb@@@@@Z 00428550 f   LMProc.obj
 0001:000280f0       ?_RoundToClosestPow2@LMProc@@AAEHAAUtagSIZE@@H@Z 004290f0 f   LMProc.obj
 0001:00028270       ??3@YAXPAX0@Z              00429270 f   BspTree.obj
 0001:00028280       ?CalcLMapOnPolysConst@LMProc@@AAEXAAV?$vvector@PAVPoly@@@@AAV?$vvector@PAVCLightBulb@@@@H@Z 00429280 f   LMProc.obj
 0001:0002a2f0       ?at@?$vector@PAVPoly@@V?$allocator@PAVPoly@@@std@@@std@@QAEAAPAVPoly@@I@Z 0042b2f0 f i LMProc.obj
 0001:0002a390       ?deleteelements@?$vvector@PAULmSizeBuff@@@@QAEXXZ 0042b390 f i LMProc.obj
 0001:0002a4d0       ?clear@?$vector@VCLRNOA@@V?$allocator@VCLRNOA@@@std@@@std@@QAEXXZ 0042b4d0 f i LMProc.obj
 0001:0002a5c0       ?push_back@?$vector@VCLRNOA@@V?$allocator@VCLRNOA@@@std@@@std@@QAEXABVCLRNOA@@@Z 0042b5c0 f i LMProc.obj
 0001:0002a6d0       ?erase@?$vector@VCLRNOA@@V?$allocator@VCLRNOA@@@std@@@std@@QAE?AV?$_Vector_iterator@VCLRNOA@@V?$allocator@VCLRNOA@@@std@@@2@V?$_Vector_const_iterator@VCLRNOA@@V?$allocator@VCLRNOA@@@std@@@2@0@Z 0042b6d0 f i LMProc.obj
 0001:0002a7d0       ?insert@?$vector@VCLRNOA@@V?$allocator@VCLRNOA@@@std@@@std@@QAE?AV?$_Vector_iterator@VCLRNOA@@V?$allocator@VCLRNOA@@@std@@@2@V?$_Vector_const_iterator@VCLRNOA@@V?$allocator@VCLRNOA@@@std@@@2@ABVCLRNOA@@@Z 0042b7d0 f i LMProc.obj
 0001:0002a910       ?_Insert_n@?$vector@VCLRNOA@@V?$allocator@VCLRNOA@@@std@@@std@@IAEXV?$_Vector_const_iterator@VCLRNOA@@V?$allocator@VCLRNOA@@@std@@@2@IABVCLRNOA@@@Z 0042b910 f i LMProc.obj
 0001:0002b180       ??Y?$_Vector_const_iterator@VCLRNOA@@V?$allocator@VCLRNOA@@@std@@@std@@QAEAAV01@H@Z 0042c180 f i LMProc.obj
 0001:0002b240       ??$element@E@@YAPAEPAEHHH@Z 0042c240 f i LMProc.obj
 0001:0002b260       ??$element@VCLRNOA@@@@YAPAVCLRNOA@@PAV0@HHH@Z 0042c260 f i LMProc.obj
 0001:0002b280       ??$unchecked_copy@PAVCLRNOA@@PAV1@@stdext@@YAPAVCLRNOA@@PAV1@00@Z 0042c280 f i LMProc.obj
 0001:0002b320       ??$_Unchecked_move_backward@PAVCLRNOA@@PAV1@@stdext@@YAPAVCLRNOA@@PAV1@00@Z 0042c320 f i LMProc.obj
 0001:0002b370       ??$_Allocate@VCLRNOA@@@std@@YAPAVCLRNOA@@IPAV1@@Z 0042c370 f i LMProc.obj
 0001:0002b3d0       ??$_Uninit_fill_n@PAVCLRNOA@@IV1@V?$allocator@VCLRNOA@@@std@@@std@@YAXPAVCLRNOA@@IABV1@AAV?$allocator@VCLRNOA@@@0@U_Nonscalar_ptr_iterator_tag@0@U_Range_checked_iterator_tag@0@@Z 0042c3d0 f i LMProc.obj
 0001:0002b4a0       ??$_Unchecked_uninitialized_move@PAVCLRNOA@@PAV1@V?$allocator@VCLRNOA@@@std@@@stdext@@YAPAVCLRNOA@@PAV1@00AAV?$allocator@VCLRNOA@@@std@@@Z 0042c4a0 f i LMProc.obj
 0001:0002b520       ??$_Move_backward_opt@PAVCLRNOA@@PAV1@Urandom_access_iterator_tag@std@@U_Undefined_move_tag@3@@std@@YAPAVCLRNOA@@PAV1@00Urandom_access_iterator_tag@0@U_Undefined_move_tag@0@U_Range_checked_iterator_tag@0@@Z 0042c520 f i LMProc.obj
 0001:0002b5c0       ??$unchecked_uninitialized_copy@PAVCLRNOA@@PAV1@V?$allocator@VCLRNOA@@@std@@@stdext@@YAPAVCLRNOA@@PAV1@00AAV?$allocator@VCLRNOA@@@std@@@Z 0042c5c0 f i LMProc.obj
 0001:0002b610       ??$_Uninit_copy@PAVCLRNOA@@PAV1@V?$allocator@VCLRNOA@@@std@@@std@@YAPAVCLRNOA@@PAV1@00AAV?$allocator@VCLRNOA@@@0@U_Nonscalar_ptr_iterator_tag@0@U_Range_checked_iterator_tag@0@@Z 0042c610 f i LMProc.obj
 0001:0002b6f0       ?Back@CMiniNode@@QAEPAV1@XZ 0042c6f0 f   MiniBsp.obj
 0001:0002b750       ?Front@CMiniNode@@QAEPAV1@XZ 0042c750 f   MiniBsp.obj
 0001:0002b7b0       ?Parent@CMiniNode@@QAEPAV1@XZ 0042c7b0 f   MiniBsp.obj
 0001:0002b810       ?Compile@MiniBsp@@UAEHAAV?$vvector@VPoly@@@@KHH@Z 0042c810 f   MiniBsp.obj
 0001:0002c320       ?MakeRoot@MiniBsp@@IAEXXZ  0042d320 f i MiniBsp.obj
 0001:0002c3b0       ?R_TerrainCompile@MiniBsp@@IAEXHAAV?$list@VPoly@@V?$allocator@VPoly@@@std@@@std@@@Z 0042d3b0 f   MiniBsp.obj
 0001:0002c8b0       ?_FormConvex@MiniBsp@@IAEHAAV?$list@VPoly@@V?$allocator@VPoly@@@std@@@std@@@Z 0042d8b0 f   MiniBsp.obj
 0001:0002ca90       ?R_Compile@MiniBsp@@IAEXHAAV?$list@VPoly@@V?$allocator@VPoly@@@std@@@std@@@Z 0042da90 f   MiniBsp.obj
 0001:0002d170       ?FindPLane@MiniBsp@@IAEHAAVPlane@@@Z 0042e170 f   MiniBsp.obj
 0001:0002d300       ?GetBestSplitter@MiniBsp@@IAEHAAV?$list@VPoly@@V?$allocator@VPoly@@@std@@@std@@PAVPoly@@@Z 0042e300 f   MiniBsp.obj
 0001:0002db70       ?BuildPlaneArray@MiniBsp@@IAEXAAV?$list@VPoly@@V?$allocator@VPoly@@@std@@@std@@K@Z 0042eb70 f   MiniBsp.obj
 0001:0002de70       ?ClipBrPolys@MiniBsp@@QAEXAAV?$vvector@VPoly@@@@0HHH@Z 0042ee70 f   MiniBsp.obj
 0001:0002e040       ?R_ClipPolyList@MiniBsp@@IAEXHAAV?$vvector@VPoly@@@@0@Z 0042f040 f   MiniBsp.obj
 0001:0002f010       ?collect@@YAXHAAV?$vvector@PAVPoly@@@@AAV?$vvector@VPoly@@@@@Z 00430010 f   MiniBsp.obj
 0001:0002f130       ?RepairSplits@MiniBsp@@IAEXAAV?$vvector@VPoly@@@@0@Z 00430130 f   MiniBsp.obj
 0001:0002f5c0       ?AddUniqueVertexes@MiniBsp@@QAEHAAV?$vvector@VV3@@@@@Z 004305c0 f   MiniBsp.obj
 0001:0002f9b0       ?PartitionCSGTerrain@MiniBsp@@IAEXPAVCMiniNode@@AAV?$list@VPoly@@V?$allocator@VPoly@@@std@@@std@@11@Z 004309b0 f   MiniBsp.obj
 0001:000300b0       ?Partition@MiniBsp@@IAEHPAVCMiniNode@@AAV?$list@VPoly@@V?$allocator@VPoly@@@std@@@std@@11@Z 004310b0 f   MiniBsp.obj
 0001:00030760       ?GetCSGTerOptimSpliterPlane@MiniBsp@@IAE?AVPlane@@AAV?$list@VPoly@@V?$allocator@VPoly@@@std@@@std@@H@Z 00431760 f   MiniBsp.obj
 0001:00030a60       ??0Plane@@QAE@ABVV3@@0@Z   00431a60 f i MiniBsp.obj
 0001:00030ad0       ??0Box@@QAE@AAVV3@@0@Z     00431ad0 f i MiniBsp.obj
 0001:00030b50       ?AddPoint@Box@@QAEXAAVV3@@@Z 00431b50 f i MiniBsp.obj
 0001:00030c30       ?FindCsgTerrSplitterPlane@MiniBsp@@IAEXAAV?$list@VPoly@@V?$allocator@VPoly@@@std@@@std@@PAVCMiniNode@@@Z 00431c30 f   MiniBsp.obj
 0001:00030da0       ?UpdateNodeBB@MiniBsp@@MAEXPAVCMiniNode@@AAV?$list@VPoly@@V?$allocator@VPoly@@@std@@@std@@@Z 00431da0 f   MiniBsp.obj
 0001:00030eb0       ?UpdateNodeBB@MiniBsp@@MAEXPAVCMiniNode@@AAV?$vvector@VPoly@@@@@Z 00431eb0 f   MiniBsp.obj
 0001:00030fc0       ?Clear@MiniBsp@@UAEXXZ     00431fc0 f   MiniBsp.obj
 0001:000310a0       ?BuildDummyBSP@MiniBsp@@IAEHAAV?$vvector@VPoly@@@@@Z 004320a0 f   MiniBsp.obj
 0001:00031210       ?_CheckSafeStack@MiniBsp@@IAEHH@Z 00432210 f   MiniBsp.obj
 0001:000312e0       ?AllSpliters@MiniBsp@@IAEHAAV?$list@VPoly@@V?$allocator@VPoly@@@std@@@std@@@Z 004322e0 f   MiniBsp.obj
 0001:000313c0       ?at@?$vector@VPoly@@V?$allocator@VPoly@@@std@@@std@@QAEAAVPoly@@I@Z 004323c0 f i MiniBsp.obj
 0001:00031460       ??0?$list@VPoly@@V?$allocator@VPoly@@@std@@@std@@QAE@XZ 00432460 f i MiniBsp.obj
 0001:000314e0       ??1?$list@VPoly@@V?$allocator@VPoly@@@std@@@std@@QAE@XZ 004324e0 f i MiniBsp.obj
 0001:00031570       ?begin@?$list@VPoly@@V?$allocator@VPoly@@@std@@@std@@QAE?AV?$_Iterator@$00@12@XZ 00432570 f i MiniBsp.obj
 0001:000315d0       ?back@?$list@VPoly@@V?$allocator@VPoly@@@std@@@std@@QAEAAVPoly@@XZ 004325d0 f i MiniBsp.obj
 0001:00031630       ?pop_back@?$list@VPoly@@V?$allocator@VPoly@@@std@@@std@@QAEXXZ 00432630 f i MiniBsp.obj
 0001:000316a0       ?clear@?$list@VPoly@@V?$allocator@VPoly@@@std@@@std@@QAEXXZ 004326a0 f i MiniBsp.obj
 0001:00031740       ??A?$vector@PAVCMiniNode@@V?$allocator@PAVCMiniNode@@@std@@@std@@QAEAAPAVCMiniNode@@I@Z 00432740 f i MiniBsp.obj
 0001:00031740       ??A?$vector@PAVCLeaf@@V?$allocator@PAVCLeaf@@@std@@@std@@QAEAAPAVCLeaf@@I@Z 00432740 f i Compiler.obj
 0001:00031740       ??A?$vector@PAVPoly@@V?$allocator@PAVPoly@@@std@@@std@@QAEAAPAVPoly@@I@Z 00432740 f i z_ed2View.obj
 0001:00031740       ??A?$vector@HV?$allocator@H@std@@@std@@QAEAAHI@Z 00432740 f i PortalPRC.obj
 0001:00031740       ??A?$vector@PAVBrush@@V?$allocator@PAVBrush@@@std@@@std@@QAEAAPAVBrush@@I@Z 00432740 f i DlgTextures.obj
 0001:00031780       ??A?$vector@VPlane@@V?$allocator@VPlane@@@std@@@std@@QAEAAVPlane@@I@Z 00432780 f i MiniBsp.obj
 0001:000317c0       ??G?$_Vector_iterator@VV3@@V?$allocator@VV3@@@std@@@std@@QBEHABV?$_Vector_const_iterator@VV3@@V?$allocator@VV3@@@std@@@1@@Z 004327c0 f i MiniBsp.obj
 0001:00031820       ??8?$_Const_iterator@$00@?$list@VPoly@@V?$allocator@VPoly@@@std@@@std@@QBE_NABV012@@Z 00432820 f i MiniBsp.obj
 0001:00031880       ??9?$_Const_iterator@$00@?$list@VPoly@@V?$allocator@VPoly@@@std@@@std@@QBE_NABV012@@Z 00432880 f i MiniBsp.obj
 0001:000318f0       ?erase@?$vector@VPoly@@V?$allocator@VPoly@@@std@@@std@@QAE?AV?$_Vector_iterator@VPoly@@V?$allocator@VPoly@@@std@@@2@V?$_Vector_const_iterator@VPoly@@V?$allocator@VPoly@@@std@@@2@@Z 004328f0 f i MiniBsp.obj
 0001:000319e0       ?_Insert@?$list@VPoly@@V?$allocator@VPoly@@@std@@@std@@QAEXV?$_Const_iterator@$00@12@ABVPoly@@@Z 004329e0 f i MiniBsp.obj
 0001:00031a40       ?erase@?$list@VPoly@@V?$allocator@VPoly@@@std@@@std@@QAE?AV?$_Iterator@$00@12@V?$_Const_iterator@$00@12@@Z 00432a40 f i MiniBsp.obj
 0001:00031b20       ?_Buynode@?$list@VPoly@@V?$allocator@VPoly@@@std@@@std@@IAEPAU_Node@?$_List_nod@VPoly@@V?$allocator@VPoly@@@std@@@2@XZ 00432b20 f i MiniBsp.obj
 0001:00031c20       ?_Tidy@?$list@VPoly@@V?$allocator@VPoly@@@std@@@std@@IAEXXZ 00432c20 f i MiniBsp.obj
 0001:00031c60       ?clear@?$vector@VPlane@@V?$allocator@VPlane@@@std@@@std@@QAEXXZ 00432c60 f i MiniBsp.obj
 0001:00031d50       ??F?$_Vector_const_iterator@VPoly@@V?$allocator@VPoly@@@std@@@std@@QAEAAV01@XZ 00432d50 f i MiniBsp.obj
 0001:00031dd0       ??D?$_Const_iterator@$00@?$list@VPoly@@V?$allocator@VPoly@@@std@@@std@@QBEABVPoly@@XZ 00432dd0 f i MiniBsp.obj
 0001:00031e60       ?_Buynode@?$list@VPoly@@V?$allocator@VPoly@@@std@@@std@@IAEPAU_Node@?$_List_nod@VPoly@@V?$allocator@VPoly@@@std@@@2@PAU342@0ABVPoly@@@Z 00432e60 f i MiniBsp.obj
 0001:00031fa0       ?_Incsize@?$list@VPoly@@V?$allocator@VPoly@@@std@@@std@@IAEXI@Z 00432fa0 f i MiniBsp.obj
 0001:00032080       ??0?$_Deque_val@USpr@?$TaskClass@VBrush@@@@V?$allocator@USpr@?$TaskClass@VBrush@@@@@std@@@std@@IAE@V?$allocator@USpr@?$TaskClass@VBrush@@@@@1@@Z 00433080 f i z_edmap.obj
 0001:00032080       ??0?$_List_ptr@VPoly@@V?$allocator@VPoly@@@std@@@std@@IAE@V?$allocator@VPoly@@@1@@Z 00433080 f i MiniBsp.obj
 0001:00032130       ?allocate@?$allocator@U_Node@?$_List_nod@VPoly@@V?$allocator@VPoly@@@std@@@std@@@std@@QAEPAU_Node@?$_List_nod@VPoly@@V?$allocator@VPoly@@@std@@@2@I@Z 00433130 f i MiniBsp.obj
 0001:00032150       ?erase@?$vector@VPlane@@V?$allocator@VPlane@@@std@@@std@@QAE?AV?$_Vector_iterator@VPlane@@V?$allocator@VPlane@@@std@@@2@V?$_Vector_const_iterator@VPlane@@V?$allocator@VPlane@@@std@@@2@0@Z 00433150 f i MiniBsp.obj
 0001:000322b0       ?push_back@?$vector@VV3@@V?$allocator@VV3@@@std@@@std@@QAEXABVV3@@@Z 004332b0 f i MiniBsp.obj
 0001:000323c0       ??0?$_Const_iterator@$00@?$list@VPoly@@V?$allocator@VPoly@@@std@@@std@@QAE@PAU_Node@?$_List_nod@VPoly@@V?$allocator@VPoly@@@std@@@2@PBV12@@Z 004333c0 f i MiniBsp.obj
 0001:00032410       ??E?$_Const_iterator@$00@?$list@VPoly@@V?$allocator@VPoly@@@std@@@std@@QAEAAV012@XZ 00433410 f i MiniBsp.obj
 0001:000324a0       ??F?$_Const_iterator@$00@?$list@VPoly@@V?$allocator@VPoly@@@std@@@std@@QAEAAV012@XZ 004334a0 f i MiniBsp.obj
 0001:00032530       ?insert@?$vector@VV3@@V?$allocator@VV3@@@std@@@std@@QAE?AV?$_Vector_iterator@VV3@@V?$allocator@VV3@@@std@@@2@V?$_Vector_const_iterator@VV3@@V?$allocator@VV3@@@std@@@2@ABVV3@@@Z 00433530 f i MiniBsp.obj
 0001:00032670       ?_Insert_n@?$vector@VV3@@V?$allocator@VV3@@@std@@@std@@IAEXV?$_Vector_const_iterator@VV3@@V?$allocator@VV3@@@std@@@2@IABVV3@@@Z 00433670 f i MiniBsp.obj
 0001:00032f80       ??$sort@U?$greater@VPoly@@@std@@@?$list@VPoly@@V?$allocator@VPoly@@@std@@@std@@QAEXU?$greater@VPoly@@@1@@Z 00433f80 f i MiniBsp.obj
 0001:00033350       ??$append@V?$list@VPoly@@V?$allocator@VPoly@@@std@@@std@@V12@@@YAXAAV?$list@VPoly@@V?$allocator@VPoly@@@std@@@std@@0@Z 00434350 f i MiniBsp.obj
 0001:00033460       ??$tmax@K@@YAKKK@Z         00434460 f i MiniBsp.obj
 0001:00033490       ??$_Allocate@U_Node@?$_List_nod@VPoly@@V?$allocator@VPoly@@@std@@@std@@@std@@YAPAU_Node@?$_List_nod@VPoly@@V?$allocator@VPoly@@@std@@@0@IPAU120@@Z 00434490 f i MiniBsp.obj
 0001:00033500       ??0?$list@VPoly@@V?$allocator@VPoly@@@std@@@std@@QAE@ABV?$allocator@VPoly@@@1@@Z 00434500 f i MiniBsp.obj
 0001:00033590       ?swap@?$list@VPoly@@V?$allocator@VPoly@@@std@@@std@@QAEXAAV12@@Z 00434590 f i MiniBsp.obj
 0001:00033810       ?splice@?$list@VPoly@@V?$allocator@VPoly@@@std@@@std@@QAEXV?$_Const_iterator@$00@12@AAV12@@Z 00434810 f i MiniBsp.obj
 0001:00033910       ?_Splice@?$list@VPoly@@V?$allocator@VPoly@@@std@@@std@@QAEXV?$_Const_iterator@$00@12@AAV12@00I_N@Z 00434910 f i MiniBsp.obj
 0001:00033ab0       ?erase@?$list@VPoly@@V?$allocator@VPoly@@@std@@@std@@QAE?AV?$_Iterator@$00@12@V?$_Const_iterator@$00@12@0@Z 00434ab0 f i MiniBsp.obj
 0001:00033cb0       ?splice@?$list@VPoly@@V?$allocator@VPoly@@@std@@@std@@QAEXV?$_Const_iterator@$00@12@AAV12@00@Z 00434cb0 f i MiniBsp.obj
 0001:00033fe0       ??0?$basic_string@DU?$char_traits@D@std@@V?$allocator@D@2@@std@@QAE@ABV01@@Z 00434fe0 f i MiniBsp.obj
 0001:00034020       ??$merge@U?$greater@VPoly@@@std@@@?$list@VPoly@@V?$allocator@VPoly@@@std@@@std@@QAEXAAV01@U?$greater@VPoly@@@1@@Z 00435020 f i MiniBsp.obj
 0001:00034240       ??$_Find@PAVV3@@V1@@std@@YAPAVV3@@PAV1@0ABV1@@Z 00435240 f i MiniBsp.obj
 0001:000343d0       ??$unchecked_uninitialized_copy@PAVV3@@PAV1@V?$allocator@VV3@@@std@@@stdext@@YAPAVV3@@PAV1@00AAV?$allocator@VV3@@@std@@@Z 004353d0 f i MiniBsp.obj
 0001:00034420       ??$_Copy_opt@PAVPlane@@PAV1@@std@@YAPAVPlane@@PAV1@00Urandom_access_iterator_tag@0@U_Nonscalar_ptr_iterator_tag@0@U_Range_checked_iterator_tag@0@@Z 00435420 f i MiniBsp.obj
 0001:000344c0       ??$_Uninit_fill_n@PAVV3@@IV1@V?$allocator@VV3@@@std@@@std@@YAXPAVV3@@IABV1@AAV?$allocator@VV3@@@0@U_Nonscalar_ptr_iterator_tag@0@U_Range_checked_iterator_tag@0@@Z 004354c0 f i MiniBsp.obj
 0001:000345b0       ??$_Unchecked_uninitialized_move@PAVV3@@PAV1@V?$allocator@VV3@@@std@@@stdext@@YAPAVV3@@PAV1@00AAV?$allocator@VV3@@@std@@@Z 004355b0 f i MiniBsp.obj
 0001:00034630       ??$_Move_backward_opt@PAVV3@@PAV1@Urandom_access_iterator_tag@std@@U_Undefined_move_tag@3@@std@@YAPAVV3@@PAV1@00Urandom_access_iterator_tag@0@U_Undefined_move_tag@0@U_Range_checked_iterator_tag@0@@Z 00435630 f i MiniBsp.obj
 0001:00034670       ??$_Copy_backward_opt@PAVV3@@PAV1@@std@@YAPAVV3@@PAV1@00Urandom_access_iterator_tag@0@U_Nonscalar_ptr_iterator_tag@0@U_Range_checked_iterator_tag@0@@Z 00435670 f i MiniBsp.obj
 0001:00034700       ??$_Insert@V?$_Const_iterator@$00@?$list@VPoly@@V?$allocator@VPoly@@@std@@@std@@@?$list@VPoly@@V?$allocator@VPoly@@@std@@@std@@QAEXV?$_Const_iterator@$00@01@00Uforward_iterator_tag@1@@Z 00435700 f i MiniBsp.obj
 0001:00034850       ?MergeNarowLeafs@PortalPRC@@QAEXXZ 00435850 f   PortalMerge.obj
 0001:00034d30       ?GetMinExtend@Box@@QAEMXZ  00435d30 f i PortalMerge.obj
 0001:00034da0       ?MergeLeafs@PortalPRC@@AAEXPAVCLeaf@@0AAVPortal@@@Z 00435da0 f   PortalMerge.obj
 0001:00035050       ?erase@?$vector@VPortal@@V?$allocator@VPortal@@@std@@@std@@QAE?AV?$_Vector_iterator@VPortal@@V?$allocator@VPortal@@@std@@@2@V?$_Vector_const_iterator@VPortal@@V?$allocator@VPortal@@@std@@@2@@Z 00436050 f i PortalMerge.obj
 0001:00035130       ??F?$_Vector_const_iterator@VPortal@@V?$allocator@VPortal@@@std@@@std@@QAEAAV01@XZ 00436130 f i PortalMerge.obj
 0001:000351b0       ??$unchecked_copy@PAVPortal@@PAV1@@stdext@@YAPAVPortal@@PAV1@00@Z 004361b0 f i PortalMerge.obj
 0001:00035250       ??4Portal@@QAEAAV0@ABV0@@Z 00436250 f i PortalMerge.obj
 0001:00035390       ??4?$vector@VV3@@V?$allocator@VV3@@@std@@@std@@QAEAAV01@ABV01@@Z 00436390 f i PortalMerge.obj
 0001:000357f0       ?clear@?$vector@VV3@@V?$allocator@VV3@@@std@@@std@@QAEXXZ 004367f0 f i PortalMerge.obj
 0001:000358e0       ?erase@?$vector@VV3@@V?$allocator@VV3@@@std@@@std@@QAE?AV?$_Vector_iterator@VV3@@V?$allocator@VV3@@@std@@@2@V?$_Vector_const_iterator@VV3@@V?$allocator@VV3@@@std@@@2@0@Z 004368e0 f i PortalMerge.obj
 0001:00035a20       ??$unchecked_copy@PAVV3@@PAV1@@stdext@@YAPAVV3@@PAV1@00@Z 00436a20 f i PortalMerge.obj
 0001:00035a70       ??$_Copy_opt@PAVV3@@PAV1@@std@@YAPAVV3@@PAV1@00Urandom_access_iterator_tag@0@U_Nonscalar_ptr_iterator_tag@0@U_Range_checked_iterator_tag@0@@Z 00436a70 f i PortalMerge.obj
 0001:00035b00       ?Split@Portal@@QAEXAAVPlane@@AAV1@1@Z 00436b00 f   PortalPRC.obj
 0001:000365c0       ?CopyProps@Portal@@QAEXAAV1@@Z 004375c0 f i PortalPRC.obj
 0001:000366b0       ?Clear@PortalPRC@@QAEXXZ   004376b0 f   PortalPRC.obj
 0001:000366f0       ?Process@PortalPRC@@QAEHAAVCBspTree@@H@Z 004376f0 f   PortalPRC.obj
 0001:00036780       ?BuildPortals@PortalPRC@@AAEHXZ 00437780 f   PortalPRC.obj
 0001:00036d50       ??0Portal@@QAE@PAVPortalPRC@@@Z 00437d50 f i PortalPRC.obj
 0001:00036e90       ??1Portal@@UAE@XZ          00437e90 f i PortalPRC.obj
 0001:00036f70       ??_EPortal@@UAEPAXI@Z      00437f70 f i PortalPRC.obj
 0001:00036f70       ??_GPortal@@UAEPAXI@Z      00437f70 f i PortalPRC.obj
 0001:00036fa0       ?CalculateInitialPortal@PortalPRC@@AAEHAAVPortal@@PAVCMiniNode@@@Z 00437fa0 f   PortalPRC.obj
 0001:00037f40       ?GetMinAx@@YA?AVV3@@AAV1@@Z 00438f40 f i PortalPRC.obj
 0001:00038060       ?ClipWithLeafSides@PortalPRC@@AAEXPAVCLeaf@@AAVPortal@@@Z 00439060 f   PortalPRC.obj
 0001:000382c0       ??0Portal@@QAE@XZ          004392c0 f i PortalPRC.obj
 0001:000383d0       ??0Portal@@QAE@ABV0@@Z     004393d0 f i PortalPRC.obj
 0001:00038590       ?R_ClipPortal@PortalPRC@@AAEXHAAVPortal@@AAV?$vvector@VPortal@@@@@Z 00439590 f   PortalPRC.obj
 0001:00038cd0       ?Classify@Portal@@QAE?AW4_REL_POS@@AAVPlane@@@Z 00439cd0 f i PortalPRC.obj
 0001:00038ea0       ?CleanObsolettePortals@PortalPRC@@AAEHAAV?$vvector@VPortal@@@@@Z 00439ea0 f   PortalPRC.obj
 0001:00039380       ?AdjustVxOrder@Portal@@QAEXXZ 0043a380 f i PortalPRC.obj
 0001:00039a10       ?PortalHasDuplicate@PortalPRC@@AAEHV?$_Vector_iterator@VPortal@@V?$allocator@VPortal@@@std@@@std@@AAV?$vvector@VPortal@@@@@Z 0043aa10 f   PortalPRC.obj
 0001:00039c50       ?DuplicatePortals@PortalPRC@@AAEHAAV?$vvector@VPortal@@@@0@Z 0043ac50 f   PortalPRC.obj
 0001:0003a6d0       ?Reverse@Portal@@QAEXXZ    0043b6d0 f i PortalPRC.obj
 0001:0003a750       ?AddPortal@PortalPRC@@AAEXAAVPortal@@@Z 0043b750 f i PortalPRC.obj
 0001:0003a7a0       ?Render@PortalPRC@@QAEXPAVz_ed3View@@@Z 0043b7a0 f   PortalPRC.obj
 0001:0003b0f0       ?ReduceVertexes@PortalPRC@@AAEXAAV?$vvector@VPortal@@@@@Z 0043c0f0 f   PortalPRC.obj
 0001:0003b400       ?CutPortalWithNodeBox@PortalPRC@@AAEXAAVPortal@@AAVBox@@H@Z 0043c400 f   PortalPRC.obj
 0001:0003bd60       ??0Plane@@QAE@XZ           0043cd60 f i PortalPRC.obj
 0001:0003bda0       ?R_CutPortalWithLeafs@PortalPRC@@AAEXAAVPortal@@PAVCMiniNode@@@Z 0043cda0 f   PortalPRC.obj
 0001:0003bf70       ?GetCorners@Box@@QAEPAVV3@@PAV2@@Z 0043cf70 f i PortalPRC.obj
 0001:0003c150       ?CutPortalWithParents@PortalPRC@@AAEXAAVPortal@@PAVCMiniNode@@@Z 0043d150 f   PortalPRC.obj
 0001:0003c3b0       ?TestExteriorPortals@PortalPRC@@AAEHXZ 0043d3b0 f   PortalPRC.obj
 0001:0003ce80       ??0Vtx2@@QAE@AAVV3@@@Z     0043de80 f i PortalPRC.obj
 0001:0003cef0       ??0Vtx@@QAE@XZ             0043def0 f i PortalPRC.obj
 0001:0003cfa0       ?CleanProcFlag@PortalPRC@@AAEXAAV?$vvector@VPortal@@@@@Z 0043dfa0 f   PortalPRC.obj
 0001:0003d070       ?clear@?$vvector@VV3@@@@QAEXXZ 0043e070 f i PortalPRC.obj
 0001:0003d0a0       ?reverse@?$vvector@VV3@@@@QAEXXZ 0043e0a0 f i PortalPRC.obj
 0001:0003d250       ?back@?$vector@VV3@@V?$allocator@VV3@@@std@@@std@@QAEAAVV3@@XZ 0043e250 f i PortalPRC.obj
 0001:0003d2d0       ?reserve@?$vector@VPortal@@V?$allocator@VPortal@@@std@@@std@@QAEXI@Z 0043e2d0 f i PortalPRC.obj
 0001:0003d610       ??0?$vector@VV3@@V?$allocator@VV3@@@std@@@std@@QAE@ABV01@@Z 0043e610 f i PortalPRC.obj
 0001:0003d880       ?push_back@?$vector@VPortal@@V?$allocator@VPortal@@@std@@@std@@QAEXABVPortal@@@Z 0043e880 f i PortalPRC.obj
 0001:0003d990       ?clear@?$vector@VPortal@@V?$allocator@VPortal@@@std@@@std@@QAEXXZ 0043e990 f i PortalPRC.obj
 0001:0003da80       ?push_back@?$vector@VVtx2@@V?$allocator@VVtx2@@@std@@@std@@QAEXABVVtx2@@@Z 0043ea80 f i PortalPRC.obj
 0001:0003db90       ?insert@?$vector@VPortal@@V?$allocator@VPortal@@@std@@@std@@QAE?AV?$_Vector_iterator@VPortal@@V?$allocator@VPortal@@@std@@@2@V?$_Vector_const_iterator@VPortal@@V?$allocator@VPortal@@@std@@@2@ABVPortal@@@Z 0043eb90 f i PortalPRC.obj
 0001:0003dcc0       ?erase@?$vector@VPortal@@V?$allocator@VPortal@@@std@@@std@@QAE?AV?$_Vector_iterator@VPortal@@V?$allocator@VPortal@@@std@@@2@V?$_Vector_const_iterator@VPortal@@V?$allocator@VPortal@@@std@@@2@0@Z 0043ecc0 f i PortalPRC.obj
 0001:0003dde0       ?insert@?$vector@VVtx2@@V?$allocator@VVtx2@@@std@@@std@@QAE?AV?$_Vector_iterator@VVtx2@@V?$allocator@VVtx2@@@std@@@2@V?$_Vector_const_iterator@VVtx2@@V?$allocator@VVtx2@@@std@@@2@ABVVtx2@@@Z 0043ede0 f i PortalPRC.obj
 0001:0003df20       ??F?$_Vector_const_iterator@VV3@@V?$allocator@VV3@@@std@@@std@@QAEAAV01@XZ 0043ef20 f i PortalPRC.obj
 0001:0003dfa0       ?_Insert_n@?$vector@VPortal@@V?$allocator@VPortal@@@std@@@std@@IAEXV?$_Vector_const_iterator@VPortal@@V?$allocator@VPortal@@@std@@@2@IABVPortal@@@Z 0043efa0 f i PortalPRC.obj
 0001:0003e990       ?_Insert_n@?$vector@VVtx2@@V?$allocator@VVtx2@@@std@@@std@@IAEXV?$_Vector_const_iterator@VVtx2@@V?$allocator@VVtx2@@@std@@@2@IABVVtx2@@@Z 0043f990 f i PortalPRC.obj
 0001:0003f330       ??0Vtx2@@QAE@ABV0@@Z       00440330 f i PortalPRC.obj
 0001:0003f390       ??0Vtx@@QAE@ABU0@@Z        00440390 f i PortalPRC.obj
 0001:0003f520       ??Y?$_Vector_const_iterator@VVtx2@@V?$allocator@VVtx2@@@std@@@std@@QAEAAV01@H@Z 00440520 f i PortalPRC.obj
 0001:0003f5e0       ??$append@V?$vvector@VPortal@@@@V1@@@YAXAAV?$vvector@VPortal@@@@0@Z 004405e0 f i PortalPRC.obj
 0001:0003f6c0       ??$_Unchecked_move_backward@PAVPortal@@PAV1@@stdext@@YAPAVPortal@@PAV1@00@Z 004406c0 f i PortalPRC.obj
 0001:0003f710       ??$_Allocate@VVtx2@@@std@@YAPAVVtx2@@IPAV1@@Z 00440710 f i PortalPRC.obj
 0001:0003f770       ??$_Unchecked_uninitialized_move@V?$_Vector_iterator@VPortal@@V?$allocator@VPortal@@@std@@@std@@PAVPortal@@V?$allocator@VPortal@@@2@@stdext@@YAPAVPortal@@V?$_Vector_iterator@VPortal@@V?$allocator@VPortal@@@std@@@std@@0PAV1@AAV?$allocator@VPortal@@@3@@Z 00440770 f i PortalPRC.obj
 0001:0003f7f0       ??$_Uninit_fill_n@PAVPortal@@IV1@V?$allocator@VPortal@@@std@@@std@@YAXPAVPortal@@IABV1@AAV?$allocator@VPortal@@@0@U_Nonscalar_ptr_iterator_tag@0@U_Range_checked_iterator_tag@0@@Z 004407f0 f i PortalPRC.obj
 0001:0003f8e0       ??$_Uninit_fill_n@PAVVtx2@@IV1@V?$allocator@VVtx2@@@std@@@std@@YAXPAVVtx2@@IABV1@AAV?$allocator@VVtx2@@@0@U_Nonscalar_ptr_iterator_tag@0@U_Range_checked_iterator_tag@0@@Z 004408e0 f i PortalPRC.obj
 0001:0003f9d0       ??$_Move_backward_opt@PAVPortal@@PAV1@Urandom_access_iterator_tag@std@@U_Undefined_move_tag@3@@std@@YAPAVPortal@@PAV1@00Urandom_access_iterator_tag@0@U_Undefined_move_tag@0@U_Range_checked_iterator_tag@0@@Z 004409d0 f i PortalPRC.obj
 0001:0003fa60       ??$_Unchecked_uninitialized_move@PAVVtx2@@PAV1@V?$allocator@VVtx2@@@std@@@stdext@@YAPAVVtx2@@PAV1@00AAV?$allocator@VVtx2@@@std@@@Z 00440a60 f i PortalPRC.obj
 0001:0003fae0       ??$_Fill@PAVVtx2@@V1@@std@@YAXPAVVtx2@@0ABV1@@Z 00440ae0 f i PortalPRC.obj
 0001:0003fc30       ??$_Move_backward_opt@PAVVtx2@@PAV1@Urandom_access_iterator_tag@std@@U_Undefined_move_tag@3@@std@@YAPAVVtx2@@PAV1@00Urandom_access_iterator_tag@0@U_Undefined_move_tag@0@U_Range_checked_iterator_tag@0@@Z 00440c30 f i PortalPRC.obj
 0001:0003fca0       ??$_Equal@V?$_Vector_iterator@VV3@@V?$allocator@VV3@@@std@@@std@@U?$iterator@Urandom_access_iterator_tag@std@@VV3@@HPAV3@AAV3@@2@@?$_Revranit@V?$_Vector_iterator@VV3@@V?$allocator@VV3@@@std@@@std@@U?$iterator@Urandom_access_iterator_tag@std@@VV3@@HPAV3@AAV3@@2@@std@@QBE_NABV01@@Z 00440ca0 f i PortalPRC.obj
 0001:0003fd00       ??$_Uninit_copy@PBVV3@@PAV1@V?$allocator@VV3@@@std@@@std@@YAPAVV3@@PBV1@0PAV1@AAV?$allocator@VV3@@@0@U_Nonscalar_ptr_iterator_tag@0@U_Range_checked_iterator_tag@0@@Z 00440d00 f i PortalPRC.obj
 0001:0003fd00       ??$_Uninit_copy@PAVV3@@PAV1@V?$allocator@VV3@@@std@@@std@@YAPAVV3@@PAV1@00AAV?$allocator@VV3@@@0@U_Nonscalar_ptr_iterator_tag@0@U_Range_checked_iterator_tag@0@@Z 00440d00 f i CompilerStream.obj
 0001:0003fdf0       ??$unchecked_uninitialized_copy@PAVPortal@@PAV1@V?$allocator@VPortal@@@std@@@stdext@@YAPAVPortal@@PAV1@00AAV?$allocator@VPortal@@@std@@@Z 00440df0 f i PortalPRC.obj
 0001:0003fe40       ??$unchecked_uninitialized_copy@PAVVtx2@@PAV1@V?$allocator@VVtx2@@@std@@@stdext@@YAPAVVtx2@@PAV1@00AAV?$allocator@VVtx2@@@std@@@Z 00440e40 f i PortalPRC.obj
 0001:0003fe90       ??$_Copy_backward_opt@PAVVtx2@@PAV1@Uforward_iterator_tag@std@@@std@@YAPAVVtx2@@PAV1@00Uforward_iterator_tag@0@U_Nonscalar_ptr_iterator_tag@0@U_Range_checked_iterator_tag@0@@Z 00440e90 f i PortalPRC.obj
 0001:0003ffe0       ??$_Uninit_copy@PAVPortal@@PAV1@V?$allocator@VPortal@@@std@@@std@@YAPAVPortal@@PAV1@00AAV?$allocator@VPortal@@@0@U_Nonscalar_ptr_iterator_tag@0@U_Range_checked_iterator_tag@0@@Z 00440fe0 f i PortalPRC.obj
 0001:000400e0       ??$_Uninit_copy@PAVVtx2@@PAV1@V?$allocator@VVtx2@@@std@@@std@@YAPAVVtx2@@PAV1@00AAV?$allocator@VVtx2@@@0@U_Nonscalar_ptr_iterator_tag@0@U_Range_checked_iterator_tag@0@@Z 004410e0 f i PortalPRC.obj
 0001:000401e0       ?AllocBitsRoundByLong@@YAHH@Z 004411e0 f   PVSPrc.obj
 0001:00040210       ?Process@PVSPrc@@QAEHPAVCBspTree@@PAVPortalPRC@@@Z 00441210 f   PVSPrc.obj
 0001:00040480       ?CompletteOnBack@@YAHAAVPlane@@AAVPortal@@@Z 00441480 f   PVSPrc.obj
 0001:00040610       ?CompletteOnFront@@YAHAAVPlane@@AAVPortal@@@Z 00441610 f   PVSPrc.obj
 0001:000407a0       ?InitalPortalVis@PVSPrc@@AAEHAAV?$vvector@VPortal@@@@@Z 004417a0 f   PVSPrc.obj
 0001:00040cc0       ??0CBitArray@baseg@@QAE@H@Z 00441cc0 f i PVSPrc.obj
 0001:00040d40       ??_ECBitArray@baseg@@UAEPAXI@Z 00441d40 f i PVSPrc.obj
 0001:00040d40       ??_GCBitArray@baseg@@UAEPAXI@Z 00441d40 f i PVSPrc.obj
 0001:00040d90       ?R_PortalFlood@PVSPrc@@AAEXAAVPortal@@PAEH@Z 00441d90 f   PVSPrc.obj
 0001:00041060       ?PerformPVS@PVSPrc@@AAEXAAVPortal@@AAV?$vvector@VPortal@@@@PAE@Z 00442060 f   PVSPrc.obj
 0001:00041190       ?GaterLeafsVis@PVSPrc@@AAEXXZ 00442190 f   PVSPrc.obj
 0001:00041690       ??1CBitArray@baseg@@UAE@XZ 00442690 f i PVSPrc.obj
 0001:000416c0       ?Reset@CBitArray@baseg@@QAEXH@Z 004426c0 f i PVSPrc.obj
 0001:000417e0       ?PortalSeesPortal@PVSPrc@@AAEHAAVPortal@@0@Z 004427e0 f   PVSPrc.obj
 0001:00041e70       ?Clear@PVSPrc@@QAEXXZ      00442e70 f   PVSPrc.obj
 0001:00041eb0       ?deleteelements@?$vvector@PAUPortalData@@@@QAEXXZ 00442eb0 f i PVSPrc.obj
 0001:00042000       ??$unchecked_fill_n@PAPAVScriptItem@@IPAV1@@stdext@@YAXPAPAVScriptItem@@IABQAV1@@Z 00443000 f i z_ed2DocSave.obj
 0001:00042000       ??$unchecked_fill_n@PAPAVTerLeaf@@IPAV1@@stdext@@YAXPAPAVTerLeaf@@IABQAV1@@Z 00443000 f i TerTree.obj
 0001:00042000       ??$unchecked_fill_n@PAPAVCBspTree@@IPAV1@@stdext@@YAXPAPAVCBspTree@@IABQAV1@@Z 00443000 f i BspTree.obj
 0001:00042000       ??$unchecked_fill_n@PAPAVV3@@IPAV1@@stdext@@YAXPAPAVV3@@IABQAV1@@Z 00443000 f i z_ed2View.obj
 0001:00042000       ??$unchecked_fill_n@PAPADIPAD@stdext@@YAXPAPADIABQAD@Z 00443000 f i Scene.obj
 0001:00042000       ??$unchecked_fill_n@PAPAUSpr@?$TaskClass@VBrush@@@@IPAU12@@stdext@@YAXPAPAUSpr@?$TaskClass@VBrush@@@@IABQAU12@@Z 00443000 f i brush.obj
 0001:00042000       ??$unchecked_fill_n@PAPAVCLightBulb@@IPAV1@@stdext@@YAXPAPAVCLightBulb@@IABQAV1@@Z 00443000 f i LMProc.obj
 0001:00042000       ??$unchecked_fill_n@PAPAUPortalData@@IPAU1@@stdext@@YAXPAPAUPortalData@@IABQAU1@@Z 00443000 f i PVSPrc.obj
 0001:00042000       ??$unchecked_fill_n@PAPAVBrush@@IPAV1@@stdext@@YAXPAPAVBrush@@IABQAV1@@Z 00443000 f i Compiler.obj
 0001:00042000       ??$unchecked_fill_n@PAPAVTerNode@@IPAV1@@stdext@@YAXPAPAVTerNode@@IABQAV1@@Z 00443000 f i TerTree.obj
 0001:00042000       ??$unchecked_fill_n@PAPAUHWND__@@IPAU1@@stdext@@YAXPAPAUHWND__@@IABQAU1@@Z 00443000 f i VertDlgDlg.obj
 0001:00042000       ??$unchecked_fill_n@PAKIK@stdext@@YAXPAKIABK@Z 00443000 f i CompilerStream.obj
 0001:00042000       ??$unchecked_fill_n@PAPAVCMiniNode@@IPAV1@@stdext@@YAXPAPAVCMiniNode@@IABQAV1@@Z 00443000 f i BspTree.obj
 0001:00042000       ??$unchecked_fill_n@PAPAVVtx2@@IPAV1@@stdext@@YAXPAPAVVtx2@@IABQAV1@@Z 00443000 f i z_ed2Doc.obj
 0001:00042000       ??$unchecked_fill_n@PAPAULmSizeBuff@@IPAU1@@stdext@@YAXPAPAULmSizeBuff@@IABQAU1@@Z 00443000 f i LMProc.obj
 0001:00042000       ??$unchecked_fill_n@PAPAVCLeaf@@IPAV1@@stdext@@YAXPAPAVCLeaf@@IABQAV1@@Z 00443000 f i BspTree.obj
 0001:00042000       ??$unchecked_fill_n@PAPAV?$map@HHU?$less@H@std@@V?$allocator@U?$pair@$$CBHH@std@@@2@@std@@IPAV12@@stdext@@YAXPAPAV?$map@HHU?$less@H@std@@V?$allocator@U?$pair@$$CBHH@std@@@2@@std@@IABQAV12@@Z 00443000 f i CompilerStream.obj
 0001:00042000       ??$unchecked_fill_n@PAPAVPoly@@IPAV1@@stdext@@YAXPAPAVPoly@@IABQAV1@@Z 00443000 f i BspTree.obj
 0001:00042000       ??$unchecked_fill_n@PAPAVCMotion@@IPAV1@@stdext@@YAXPAPAVCMotion@@IABQAV1@@Z 00443000 f i z_ed2Doc.obj
 0001:00042000       ??$unchecked_fill_n@PAPAUGroup@CVertDlgDlg@@IPAU12@@stdext@@YAXPAPAUGroup@CVertDlgDlg@@IABQAU12@@Z 00443000 f i VertDlgDlg.obj
 0001:00042000       ??$unchecked_fill_n@PAHIH@stdext@@YAXPAHIABH@Z 00443000 f i BspTree.obj
 0001:00042000       ??$unchecked_fill_n@PAPAVSceItem@@IPAV1@@stdext@@YAXPAPAVSceItem@@IABQAV1@@Z 00443000 f i z_ed2Doc.obj
 0001:00042070       ??0TerTree@@QAE@XZ         00443070 f   TerTree.obj
 0001:000421c0       ??_GTerTree@@UAEPAXI@Z     004431c0 f i TerTree.obj
 0001:000421c0       ??_ETerTree@@UAEPAXI@Z     004431c0 f i TerTree.obj
 0001:000421f0       ??1?$vvector@VCLRNOA@@@@QAE@XZ 004431f0 f i TerTree.obj
 0001:00042260       ??1TerTree@@UAE@XZ         00443260 f   TerTree.obj
 0001:000423b0       ?Clear@TerTree@@UAEXXZ     004433b0 f   TerTree.obj
 0001:00042450       ?Compile@TerTree@@QAEHPAVCBigTerrain@@@Z 00443450 f   TerTree.obj
 0001:000427a0       ?_R_Compile@TerTree@@IAEHPAVTerNode@@ABUtagSIZE@@1ABVV3@@2AAH@Z 004437a0 f   TerTree.obj
 0001:00042fb0       ?Expand@Box@@QAEXM@Z       00443fb0 f i TerTree.obj
 0001:00043030       ??0TerLeaf@@QAE@XZ         00444030 f i TerTree.obj
 0001:00043130       ??1TerLeaf@@QAE@XZ         00444130 f   TerTree.obj
 0001:00043190       ?Render@TerTree@@QAEXH@Z   00444190 f   TerTree.obj
 0001:000431e0       ?_RenderLeaf@TerTree@@IAEXPBVTerLeaf@@HHHAAVCLR@@H@Z 004441e0 f   TerTree.obj
 0001:00043a00       ?_R_Render@TerTree@@IAEXABVV3@@HH@Z 00444a00 f   TerTree.obj
 0001:00043ea0       ?deleteelements@?$vvector@PAVTerLeaf@@@@QAEXXZ 00444ea0 f i TerTree.obj
 0001:00043fd0       ?deleteelements@?$vvector@PAVTerNode@@@@QAEXXZ 00444fd0 f i TerTree.obj
 0001:000440f0       ?reserve@?$vector@VCLRNOA@@V?$allocator@VCLRNOA@@@std@@@std@@QAEXI@Z 004450f0 f i TerTree.obj
 0001:00044420       ??0?$vector@KV?$allocator@K@std@@@std@@QAE@XZ 00445420 f i CompilerStream.obj
 0001:00044420       ??0?$vector@PAVVtx2@@V?$allocator@PAVVtx2@@@std@@@std@@QAE@XZ 00445420 f i z_ed2Doc.obj
 0001:00044420       ??0?$vector@PAVScriptItem@@V?$allocator@PAVScriptItem@@@std@@@std@@QAE@XZ 00445420 f i z_ed2Doc.obj
 0001:00044420       ??0?$vector@PAVCLeaf@@V?$allocator@PAVCLeaf@@@std@@@std@@QAE@XZ 00445420 f i BspTree.obj
 0001:00044420       ??0?$vector@PAVCMotion@@V?$allocator@PAVCMotion@@@std@@@std@@QAE@XZ 00445420 f i z_ed2Doc.obj
 0001:00044420       ??0?$vector@PAUPortalData@@V?$allocator@PAUPortalData@@@std@@@std@@QAE@XZ 00445420 f i Compiler.obj
 0001:00044420       ??0?$vector@PAVBrush@@V?$allocator@PAVBrush@@@std@@@std@@QAE@XZ 00445420 f i Compiler.obj
 0001:00044420       ??0?$vector@PAUHWND__@@V?$allocator@PAUHWND__@@@std@@@std@@QAE@XZ 00445420 f i VertDlgDlg.obj
 0001:00044420       ??0?$vector@PAVCMiniNode@@V?$allocator@PAVCMiniNode@@@std@@@std@@QAE@XZ 00445420 f i BspTree.obj
 0001:00044420       ??0?$vector@MV?$allocator@M@std@@@std@@QAE@XZ 00445420 f i TerTree.obj
 0001:00044420       ??0?$vector@PAVTerLeaf@@V?$allocator@PAVTerLeaf@@@std@@@std@@QAE@XZ 00445420 f i TerTree.obj
 0001:00044420       ??0?$vector@PAULmSizeBuff@@V?$allocator@PAULmSizeBuff@@@std@@@std@@QAE@XZ 00445420 f i Compiler.obj
 0001:00044420       ??0?$vector@PAVSceItem@@V?$allocator@PAVSceItem@@@std@@@std@@QAE@XZ 00445420 f i z_ed2Doc.obj
 0001:00044420       ??0?$vector@PAVCBspTree@@V?$allocator@PAVCBspTree@@@std@@@std@@QAE@XZ 00445420 f i BspTree.obj
 0001:00044420       ??0?$vector@PAVCSoundItem@@V?$allocator@PAVCSoundItem@@@std@@@std@@QAE@XZ 00445420 f i z_ed2Doc.obj
 0001:00044420       ??0?$vector@PAVCLightBulb@@V?$allocator@PAVCLightBulb@@@std@@@std@@QAE@XZ 00445420 f i LMProc.obj
 0001:00044420       ??0?$vector@PAV?$map@HHU?$less@H@std@@V?$allocator@U?$pair@$$CBHH@std@@@2@@std@@V?$allocator@PAV?$map@HHU?$less@H@std@@V?$allocator@U?$pair@$$CBHH@std@@@2@@std@@@2@@std@@QAE@XZ 00445420 f i CompilerStream.obj
 0001:00044420       ??0?$vector@PAUGroup@CVertDlgDlg@@V?$allocator@PAUGroup@CVertDlgDlg@@@std@@@std@@QAE@XZ 00445420 f i VertDlgDlg.obj
 0001:00044420       ??0?$vector@HV?$allocator@H@std@@@std@@QAE@XZ 00445420 f i BspTree.obj
 0001:00044420       ??0?$vector@PAVPlane@@V?$allocator@PAVPlane@@@std@@@std@@QAE@XZ 00445420 f i BspTree.obj
 0001:00044420       ??0?$vector@PAUSBytes@@V?$allocator@PAUSBytes@@@std@@@std@@QAE@XZ 00445420 f i Compiler.obj
 0001:00044420       ??0?$vector@PAVPoly@@V?$allocator@PAVPoly@@@std@@@std@@QAE@XZ 00445420 f i BspTree.obj
 0001:00044420       ??0?$vector@PAVCBaseDlg@@V?$allocator@PAVCBaseDlg@@@std@@@std@@QAE@XZ 00445420 f i DlgBar.obj
 0001:00044420       ??0?$vector@PAVV3@@V?$allocator@PAVV3@@@std@@@std@@QAE@XZ 00445420 f i z_ed2View.obj
 0001:00044420       ??0?$vector@VCLR@@V?$allocator@VCLR@@@std@@@std@@QAE@XZ 00445420 f i z_ed2DocSave.obj
 0001:00044420       ??0?$vector@PADV?$allocator@PAD@std@@@std@@QAE@XZ 00445420 f i Scene.obj
 0001:00044420       ??0?$vector@PAVTerNode@@V?$allocator@PAVTerNode@@@std@@@std@@QAE@XZ 00445420 f i TerTree.obj
 0001:00044500       ??0?$vector@VCLRNOA@@V?$allocator@VCLRNOA@@@std@@@std@@QAE@XZ 00445500 f i TerTree.obj
 0001:000445e0       ?_Tidy@?$vector@VCLRNOA@@V?$allocator@VCLRNOA@@@std@@@std@@IAEXXZ 004455e0 f i TerTree.obj
 0001:00044690       ?push_back@?$vector@MV?$allocator@M@std@@@std@@QAEXABM@Z 00445690 f i TerTree.obj
 0001:000447d0       ?_Buy@?$vector@VCLRNOA@@V?$allocator@VCLRNOA@@@std@@@std@@IAE_NI@Z 004457d0 f i TerTree.obj
 0001:00044890       ?insert@?$vector@MV?$allocator@M@std@@@std@@QAE?AV?$_Vector_iterator@MV?$allocator@M@std@@@2@V?$_Vector_const_iterator@MV?$allocator@M@std@@@2@ABM@Z 00445890 f i TerTree.obj
 0001:000449c0       ?_Insert_n@?$vector@MV?$allocator@M@std@@@std@@IAEXV?$_Vector_const_iterator@MV?$allocator@M@std@@@2@IABM@Z 004459c0 f i TerTree.obj
 0001:00045130       ?_Ufill@?$vector@MV?$allocator@M@std@@@std@@IAEPAMPAMIABM@Z 00446130 f i TerTree.obj
 0001:00045180       ??Y?$_Vector_const_iterator@PAVCMotion@@V?$allocator@PAVCMotion@@@std@@@std@@QAEAAV01@H@Z 00446180 f i z_ed2Doc.obj
 0001:00045180       ??Y?$_Vector_const_iterator@MV?$allocator@M@std@@@std@@QAEAAV01@H@Z 00446180 f i TerTree.obj
 0001:00045180       ??Y?$_Vector_const_iterator@HV?$allocator@H@std@@@std@@QAEAAV01@H@Z 00446180 f i BspTree.obj
 0001:00045180       ??Y?$_Vector_const_iterator@PAVCLightBulb@@V?$allocator@PAVCLightBulb@@@std@@@std@@QAEAAV01@H@Z 00446180 f i LMProc.obj
 0001:00045180       ??Y?$_Vector_const_iterator@PAVCBspTree@@V?$allocator@PAVCBspTree@@@std@@@std@@QAEAAV01@H@Z 00446180 f i BspTree.obj
 0001:00045180       ??Y?$_Vector_const_iterator@PAVVtx2@@V?$allocator@PAVVtx2@@@std@@@std@@QAEAAV01@H@Z 00446180 f i z_ed2Doc.obj
 0001:00045180       ??Y?$_Vector_const_iterator@PAUPortalData@@V?$allocator@PAUPortalData@@@std@@@std@@QAEAAV01@H@Z 00446180 f i PVSPrc.obj
 0001:00045180       ??Y?$_Vector_const_iterator@PAVTerNode@@V?$allocator@PAVTerNode@@@std@@@std@@QAEAAV01@H@Z 00446180 f i TerTree.obj
 0001:00045180       ??Y?$_Vector_const_iterator@PAVCMiniNode@@V?$allocator@PAVCMiniNode@@@std@@@std@@QAEAAV01@H@Z 00446180 f i BspTree.obj
 0001:00045180       ??Y?$_Vector_const_iterator@PAUGroup@CVertDlgDlg@@V?$allocator@PAUGroup@CVertDlgDlg@@@std@@@std@@QAEAAV01@H@Z 00446180 f i VertDlgDlg.obj
 0001:00045180       ??Y?$_Vector_const_iterator@PAVScriptItem@@V?$allocator@PAVScriptItem@@@std@@@std@@QAEAAV01@H@Z 00446180 f i z_ed2DocSave.obj
 0001:00045180       ??Y?$_Vector_const_iterator@PAV?$map@HHU?$less@H@std@@V?$allocator@U?$pair@$$CBHH@std@@@2@@std@@V?$allocator@PAV?$map@HHU?$less@H@std@@V?$allocator@U?$pair@$$CBHH@std@@@2@@std@@@2@@std@@QAEAAV01@H@Z 00446180 f i CompilerStream.obj
 0001:00045180       ??Y?$_Vector_const_iterator@PADV?$allocator@PAD@std@@@std@@QAEAAV01@H@Z 00446180 f i Scene.obj
 0001:00045180       ??Y?$_Vector_const_iterator@PAVTerLeaf@@V?$allocator@PAVTerLeaf@@@std@@@std@@QAEAAV01@H@Z 00446180 f i TerTree.obj
 0001:00045180       ??Y?$_Vector_const_iterator@PAUHWND__@@V?$allocator@PAUHWND__@@@std@@@std@@QAEAAV01@H@Z 00446180 f i VertDlgDlg.obj
 0001:00045180       ??Y?$_Vector_const_iterator@PAVCLeaf@@V?$allocator@PAVCLeaf@@@std@@@std@@QAEAAV01@H@Z 00446180 f i BspTree.obj
 0001:00045180       ??Y?$_Vector_const_iterator@PAVBrush@@V?$allocator@PAVBrush@@@std@@@std@@QAEAAV01@H@Z 00446180 f i Compiler.obj
 0001:00045180       ??Y?$_Vector_const_iterator@PAULmSizeBuff@@V?$allocator@PAULmSizeBuff@@@std@@@std@@QAEAAV01@H@Z 00446180 f i LMProc.obj
 0001:00045180       ??Y?$_Vector_const_iterator@PAVPoly@@V?$allocator@PAVPoly@@@std@@@std@@QAEAAV01@H@Z 00446180 f i BspTree.obj
 0001:00045180       ??Y?$_Vector_const_iterator@KV?$allocator@K@std@@@std@@QAEAAV01@H@Z 00446180 f i CompilerStream.obj
 0001:00045180       ??Y?$_Vector_const_iterator@PAVSceItem@@V?$allocator@PAVSceItem@@@std@@@std@@QAEAAV01@H@Z 00446180 f i z_ed2Doc.obj
 0001:00045180       ??Y?$_Vector_const_iterator@PAVV3@@V?$allocator@PAVV3@@@std@@@std@@QAEAAV01@H@Z 00446180 f i z_ed2View.obj
 0001:00045180       ??Y?$_Vector_const_iterator@VCLR@@V?$allocator@VCLR@@@std@@@std@@QAEAAV01@H@Z 00446180 f i z_ed2DocSave.obj
 0001:00045240       ??$element@M@@YAPAMPAMHHH@Z 00446240 f i TerTree.obj
 0001:00045260       ??$_Unchecked_uninitialized_move@V?$_Vector_iterator@VCLRNOA@@V?$allocator@VCLRNOA@@@std@@@std@@PAVCLRNOA@@V?$allocator@VCLRNOA@@@2@@stdext@@YAPAVCLRNOA@@V?$_Vector_iterator@VCLRNOA@@V?$allocator@VCLRNOA@@@std@@@std@@0PAV1@AAV?$allocator@VCLRNOA@@@3@@Z 00446260 f i TerTree.obj
 0001:000452e0       ??$_Unchecked_uninitialized_move@PAPAVSceItem@@PAPAV1@V?$allocator@PAVSceItem@@@std@@@stdext@@YAPAPAVSceItem@@PAPAV1@00AAV?$allocator@PAVSceItem@@@std@@@Z 004462e0 f i z_ed2Doc.obj
 0001:000452e0       ??$_Unchecked_uninitialized_move@PAPAVCLeaf@@PAPAV1@V?$allocator@PAVCLeaf@@@std@@@stdext@@YAPAPAVCLeaf@@PAPAV1@00AAV?$allocator@PAVCLeaf@@@std@@@Z 004462e0 f i BspTree.obj
 0001:000452e0       ??$_Unchecked_uninitialized_move@PAPAUPortalData@@PAPAU1@V?$allocator@PAUPortalData@@@std@@@stdext@@YAPAPAUPortalData@@PAPAU1@00AAV?$allocator@PAUPortalData@@@std@@@Z 004462e0 f i PVSPrc.obj
 0001:000452e0       ??$_Unchecked_uninitialized_move@PAPAVTerNode@@PAPAV1@V?$allocator@PAVTerNode@@@std@@@stdext@@YAPAPAVTerNode@@PAPAV1@00AAV?$allocator@PAVTerNode@@@std@@@Z 004462e0 f i TerTree.obj
 0001:000452e0       ??$_Unchecked_uninitialized_move@PAHPAHV?$allocator@H@std@@@stdext@@YAPAHPAH00AAV?$allocator@H@std@@@Z 004462e0 f i BspTree.obj
 0001:000452e0       ??$_Unchecked_uninitialized_move@PAPAULmSizeBuff@@PAPAU1@V?$allocator@PAULmSizeBuff@@@std@@@stdext@@YAPAPAULmSizeBuff@@PAPAU1@00AAV?$allocator@PAULmSizeBuff@@@std@@@Z 004462e0 f i LMProc.obj
 0001:000452e0       ??$_Unchecked_uninitialized_move@PAPAVV3@@PAPAV1@V?$allocator@PAVV3@@@std@@@stdext@@YAPAPAVV3@@PAPAV1@00AAV?$allocator@PAVV3@@@std@@@Z 004462e0 f i z_ed2View.obj
 0001:000452e0       ??$_Unchecked_uninitialized_move@PAPAV?$map@HHU?$less@H@std@@V?$allocator@U?$pair@$$CBHH@std@@@2@@std@@PAPAV12@V?$allocator@PAV?$map@HHU?$less@H@std@@V?$allocator@U?$pair@$$CBHH@std@@@2@@std@@@2@@stdext@@YAPAPAV?$map@HHU?$less@H@std@@V?$allocator@U?$pair@$$CBHH@std@@@2@@std@@PAPAV12@00AAV?$allocator@PAV?$map@HHU?$less@H@std@@V?$allocator@U?$pair@$$CBHH@std@@@2@@std@@@2@@Z 004462e0 f i CompilerStream.obj
 0001:000452e0       ??$_Unchecked_uninitialized_move@PAPAVCBspTree@@PAPAV1@V?$allocator@PAVCBspTree@@@std@@@stdext@@YAPAPAVCBspTree@@PAPAV1@00AAV?$allocator@PAVCBspTree@@@std@@@Z 004462e0 f i BspTree.obj
 0001:000452e0       ??$_Unchecked_uninitialized_move@PAPAVScriptItem@@PAPAV1@V?$allocator@PAVScriptItem@@@std@@@stdext@@YAPAPAVScriptItem@@PAPAV1@00AAV?$allocator@PAVScriptItem@@@std@@@Z 004462e0 f i z_ed2DocSave.obj
 0001:000452e0       ??$_Unchecked_uninitialized_move@PAMPAMV?$allocator@M@std@@@stdext@@YAPAMPAM00AAV?$allocator@M@std@@@Z 004462e0 f i TerTree.obj
 0001:000452e0       ??$_Unchecked_uninitialized_move@PAPAVBrush@@PAPAV1@V?$allocator@PAVBrush@@@std@@@stdext@@YAPAPAVBrush@@PAPAV1@00AAV?$allocator@PAVBrush@@@std@@@Z 004462e0 f i Compiler.obj
 0001:000452e0       ??$_Unchecked_uninitialized_move@PAPAVCLightBulb@@PAPAV1@V?$allocator@PAVCLightBulb@@@std@@@stdext@@YAPAPAVCLightBulb@@PAPAV1@00AAV?$allocator@PAVCLightBulb@@@std@@@Z 004462e0 f i LMProc.obj
 0001:000452e0       ??$_Unchecked_uninitialized_move@PAPAVTerLeaf@@PAPAV1@V?$allocator@PAVTerLeaf@@@std@@@stdext@@YAPAPAVTerLeaf@@PAPAV1@00AAV?$allocator@PAVTerLeaf@@@std@@@Z 004462e0 f i TerTree.obj
 0001:000452e0       ??$_Unchecked_uninitialized_move@PAPAUGroup@CVertDlgDlg@@PAPAU12@V?$allocator@PAUGroup@CVertDlgDlg@@@std@@@stdext@@YAPAPAUGroup@CVertDlgDlg@@PAPAU12@00AAV?$allocator@PAUGroup@CVertDlgDlg@@@std@@@Z 004462e0 f i VertDlgDlg.obj
 0001:000452e0       ??$_Unchecked_uninitialized_move@PAPAUHWND__@@PAPAU1@V?$allocator@PAUHWND__@@@std@@@stdext@@YAPAPAUHWND__@@PAPAU1@00AAV?$allocator@PAUHWND__@@@std@@@Z 004462e0 f i VertDlgDlg.obj
 0001:000452e0       ??$_Unchecked_uninitialized_move@PAKPAKV?$allocator@K@std@@@stdext@@YAPAKPAK00AAV?$allocator@K@std@@@Z 004462e0 f i CompilerStream.obj
 0001:000452e0       ??$_Unchecked_uninitialized_move@PAPADPAPADV?$allocator@PAD@std@@@stdext@@YAPAPADPAPAD00AAV?$allocator@PAD@std@@@Z 004462e0 f i Scene.obj
 0001:000452e0       ??$_Unchecked_uninitialized_move@PAPAVCMiniNode@@PAPAV1@V?$allocator@PAVCMiniNode@@@std@@@stdext@@YAPAPAVCMiniNode@@PAPAV1@00AAV?$allocator@PAVCMiniNode@@@std@@@Z 004462e0 f i BspTree.obj
 0001:000452e0       ??$_Unchecked_uninitialized_move@PAPAVVtx2@@PAPAV1@V?$allocator@PAVVtx2@@@std@@@stdext@@YAPAPAVVtx2@@PAPAV1@00AAV?$allocator@PAVVtx2@@@std@@@Z 004462e0 f i z_ed2Doc.obj
 0001:000452e0       ??$_Unchecked_uninitialized_move@PAPAVCMotion@@PAPAV1@V?$allocator@PAVCMotion@@@std@@@stdext@@YAPAPAVCMotion@@PAPAV1@00AAV?$allocator@PAVCMotion@@@std@@@Z 004462e0 f i z_ed2Doc.obj
 0001:000452e0       ??$_Unchecked_uninitialized_move@PAPAVPoly@@PAPAV1@V?$allocator@PAVPoly@@@std@@@stdext@@YAPAPAVPoly@@PAPAV1@00AAV?$allocator@PAVPoly@@@std@@@Z 004462e0 f i BspTree.obj
 0001:00045330       ??$unchecked_fill_n@PAMIM@stdext@@YAXPAMIABM@Z 00446330 f i TerTree.obj
 0001:000453a0       ??0CbTbarCombo@@QAE@XZ     004463a0 f   bTbarCombo.obj
 0001:000453d0       ?BeginModalState@CWnd@@UAEXXZ 004463d0 f i bTbarCombo.obj
 0001:000453f0       ?EndModalState@CWnd@@UAEXXZ 004463f0 f i bTbarCombo.obj
 0001:00045410       ??_GCComboBox@@UAEPAXI@Z   00446410 f i bTbarCombo.obj
 0001:00045410       ??_ECComboBox@@UAEPAXI@Z   00446410 f i bTbarCombo.obj
 0001:00045440       ??_ECbTbarCombo@@UAEPAXI@Z 00446440 f i bTbarCombo.obj
 0001:00045440       ??_GCbTbarCombo@@UAEPAXI@Z 00446440 f i bTbarCombo.obj
 0001:00045470       ??1CbTbarCombo@@UAE@XZ     00446470 f   bTbarCombo.obj
 0001:00045490       ?GetMessageMap@CbTbarCombo@@MBEPBUAFX_MSGMAP@@XZ 00446490 f   bTbarCombo.obj
 0001:000454a0       ?GetThisMessageMap@CbTbarCombo@@KGPBUAFX_MSGMAP@@XZ 004464a0 f   bTbarCombo.obj
 0001:000454b0       ?OnSelchange@CbTbarCombo@@QAEXXZ 004464b0 f   bTbarCombo.obj
 0001:00045610       ?Euler2Pos@Pos@@QAEXXZ     00446610 f i camera.obj
 0001:000457f0       ?MoveAndRot@Pos@@UAEXPAHMM@Z 004467f0 f i camera.obj
 0001:00045a60       ??0Frustrum@@QAE@XZ        00446a60 f i camera.obj
 0001:00045ae0       ??_GFrustrum@@UAEPAXI@Z    00446ae0 f i camera.obj
 0001:00045ae0       ??_EFrustrum@@UAEPAXI@Z    00446ae0 f i camera.obj
 0001:00045b30       ??_ECamera@@UAEPAXI@Z      00446b30 f i camera.obj
 0001:00045b30       ??_GCamera@@UAEPAXI@Z      00446b30 f i camera.obj
 0001:00045b90       ??0Pos@@QAE@XZ             00446b90 f i camera.obj
 0001:00045c60       ??0Camera@@QAE@XZ          00446c60 f   camera.obj
 0001:00045cb0       ?GetViewMtx@Camera@@QAE?BVM4@@M@Z 00446cb0 f   camera.obj
 0001:00045d00       ?MLook@@YA?AVM4@@ABVV3@@000@Z 00446d00 f i camera.obj
 0001:00045e80       ??0M4@@QAE@XZ              00446e80 f i camera.obj
 0001:00045f10       ??4M4@@QAEAAV0@ABV0@@Z     00446f10 f i camera.obj
 0001:00045ff0       ??DM4@@QBE?AV0@ABV0@@Z     00446ff0 f i camera.obj
 0001:00046430       ?MTranslate@@YA?AVM4@@MMM@Z 00447430 f i camera.obj
 0001:000464f0       ?AddOccluder@Camera@@QAEXABVPoly@@@Z 004474f0 f   camera.obj
 0001:00046750       ??0Plane@@QAE@ABVV3@@00@Z  00447750 f i camera.obj
 0001:00046940       ?AddFrustrumPlan@Frustrum@@QAEXABVPlane@@@Z 00447940 f i camera.obj
 0001:00046a00       ?back@?$vector@VVtx2@@V?$allocator@VVtx2@@@std@@@std@@QBEABVVtx2@@XZ 00447a00 f i camera.obj
 0001:00046a90       ??0CColorButon@@QAE@XZ     00447a90 f   ColorButon.obj
 0001:00046af0       ??_GCGdiObject@@UAEPAXI@Z  00447af0 f i ColorButon.obj
 0001:00046af0       ??_ECGdiObject@@UAEPAXI@Z  00447af0 f i ColorButon.obj
 0001:00046b20       ??1CGdiObject@@UAE@XZ      00447b20 f i ColorButon.obj
 0001:00046cb0       ??_GCBrush@@UAEPAXI@Z      00447cb0 f i ColorButon.obj
 0001:00046cb0       ??_ECBrush@@UAEPAXI@Z      00447cb0 f i ColorButon.obj
 0001:00046cf0       ??_ECButton@@UAEPAXI@Z     00447cf0 f i ColorButon.obj
 0001:00046cf0       ??_GCButton@@UAEPAXI@Z     00447cf0 f i ColorButon.obj
 0001:00046d20       ??_GCColorButon@@UAEPAXI@Z 00447d20 f i ColorButon.obj
 0001:00046d20       ??_ECColorButon@@UAEPAXI@Z 00447d20 f i ColorButon.obj
 0001:00046d50       ??1CColorButon@@UAE@XZ     00447d50 f   ColorButon.obj
 0001:00046dd0       ?GetMessageMap@CColorButon@@MBEPBUAFX_MSGMAP@@XZ 00447dd0 f   ColorButon.obj
 0001:00046de0       ?GetThisMessageMap@CColorButon@@KGPBUAFX_MSGMAP@@XZ 00447de0 f   ColorButon.obj
 0001:00046df0       ?DrawItem@CColorButon@@MAEXPAUtagDRAWITEMSTRUCT@@@Z 00447df0 f   ColorButon.obj
 0001:00047530       ??0CGdiObject@@QAE@XZ      00448530 f i ColorButon.obj
 0001:00047560       ??_GCPen@@UAEPAXI@Z        00448560 f i ColorButon.obj
 0001:00047560       ??_ECPen@@UAEPAXI@Z        00448560 f i ColorButon.obj
 0001:000475a0       ??1CPen@@UAE@XZ            004485a0 f i ColorButon.obj
 0001:000475c0       ?PreSubclassWindow@CColorButon@@UAEXXZ 004485c0 f   ColorButon.obj
 0001:000476a0       ?SetColor@CColorButon@@QAEXK@Z 004486a0 f   ColorButon.obj
 0001:000476f0       ?OnDestroy@CColorButon@@IAEXXZ 004486f0 f   ColorButon.obj
 0001:00047710       ?OnSetCursor@CColorButon@@IAEHPAVCWnd@@II@Z 00448710 f   ColorButon.obj
 0001:00047750       ?Find@?$CStringT@DV?$StrTraitMFC@DV?$ChTraitsCRT@D@ATL@@@@@ATL@@QBEHDH@Z 00448750 f i ColorButon.obj
 0001:000477c0       ?Right@?$CStringT@DV?$StrTraitMFC@DV?$ChTraitsCRT@D@ATL@@@@@ATL@@QBE?AV12@H@Z 004487c0 f i ColorButon.obj
 0001:00047870       ?Left@?$CStringT@DV?$StrTraitMFC@DV?$ChTraitsCRT@D@ATL@@@@@ATL@@QBE?AV12@H@Z 00448870 f i ColorButon.obj
 0001:00047910       ?GetManager@?$CStringT@DV?$StrTraitMFC@DV?$ChTraitsCRT@D@ATL@@@@@ATL@@QBEPAUIAtlStringMgr@2@XZ 00448910 f i ColorButon.obj
 0001:00047970       ??0?$CSimpleStringT@D$0A@@ATL@@QAE@PAUIAtlStringMgr@1@@Z 00448970 f i ColorButon.obj
 0001:00047970       ??0?$CStringT@DV?$StrTraitMFC@DV?$ChTraitsCRT@D@ATL@@@@@ATL@@QAE@PAUIAtlStringMgr@1@@Z 00448970 f i DirTree.obj
 0001:000479c0       ??4?$CSimpleStringT@D$0A@@ATL@@QAEAAV01@ABV01@@Z 004489c0 f i ColorButon.obj
 0001:00047a80       ??0?$CSimpleStringT@D$0A@@ATL@@QAE@PBDHPAUIAtlStringMgr@1@@Z 00448a80 f i ColorButon.obj
 0001:00047b50       ?CloneData@?$CSimpleStringT@D$0A@@ATL@@CAPAUCStringData@2@PAU32@@Z 00448b50 f i ColorButon.obj
 0001:00047c20       ??0CCrc@@QAE@K@Z           00448c20 f   Crc.obj
 0001:00047cc0       ??_GCCrc@@UAEPAXI@Z        00448cc0 f i Crc.obj
 0001:00047cc0       ??_ECCrc@@UAEPAXI@Z        00448cc0 f i Crc.obj
 0001:00047cf0       ??1CCrc@@UAE@XZ            00448cf0 f   Crc.obj
 0001:00047d10       ?update_crc@CCrc@@QAEKKPAEH@Z 00448d10 f   Crc.obj
 0001:00047d80       ??0VNT@@QAE@XZ             00448d80 f i Curve_Class.obj
 0001:00047de0       ?bspline@@YAXHHAAV?$vvector@UVNT@@@@0H@Z 00448de0 f   Curve_Class.obj
 0001:00047f20       ?blend@@YANHHPAHN@Z        00448f20 f   Curve_Class.obj
 0001:00048140       ?compute_intervals@@YAXPAHHH@Z 00449140 f   Curve_Class.obj
 0001:000481c0       ?compute_point@@YAXPAHHHNAAV?$vvector@UVNT@@@@PAVV3@@@Z 004491c0 f   Curve_Class.obj
 0001:00048300       ?push_back@?$vector@UVNT@@V?$allocator@UVNT@@@std@@@std@@QAEXABUVNT@@@Z 00449300 f i Curve_Class.obj
 0001:00048410       ?clear@?$vector@UVNT@@V?$allocator@UVNT@@@std@@@std@@QAEXXZ 00449410 f i Curve_Class.obj
 0001:00048500       ?insert@?$vector@UVNT@@V?$allocator@UVNT@@@std@@@std@@QAE?AV?$_Vector_iterator@UVNT@@V?$allocator@UVNT@@@std@@@2@V?$_Vector_const_iterator@UVNT@@V?$allocator@UVNT@@@std@@@2@ABUVNT@@@Z 00449500 f i Curve_Class.obj
 0001:00048640       ?erase@?$vector@UVNT@@V?$allocator@UVNT@@@std@@@std@@QAE?AV?$_Vector_iterator@UVNT@@V?$allocator@UVNT@@@std@@@2@V?$_Vector_const_iterator@UVNT@@V?$allocator@UVNT@@@std@@@2@0@Z 00449640 f i Curve_Class.obj
 0001:00048740       ?_Insert_n@?$vector@UVNT@@V?$allocator@UVNT@@@std@@@std@@IAEXV?$_Vector_const_iterator@UVNT@@V?$allocator@UVNT@@@std@@@2@IABUVNT@@@Z 00449740 f i Curve_Class.obj
 0001:00049010       ??4VNT@@QAEAAU0@ABU0@@Z    0044a010 f i Curve_Class.obj
 0001:00049010       ??0VNT@@QAE@ABU0@@Z        0044a010 f i Curve_Class.obj
 0001:000490a0       ??$unchecked_copy@PAUVNT@@PAU1@@stdext@@YAPAUVNT@@PAU1@00@Z 0044a0a0 f i Curve_Class.obj
 0001:00049140       ??$_Uninit_fill_n@PAUVNT@@IU1@V?$allocator@UVNT@@@std@@@std@@YAXPAUVNT@@IABU1@AAV?$allocator@UVNT@@@0@U_Nonscalar_ptr_iterator_tag@0@U_Range_checked_iterator_tag@0@@Z 0044a140 f i Curve_Class.obj
 0001:00049220       ??$_Unchecked_uninitialized_move@PAUVNT@@PAU1@V?$allocator@UVNT@@@std@@@stdext@@YAPAUVNT@@PAU1@00AAV?$allocator@UVNT@@@std@@@Z 0044a220 f i Curve_Class.obj
 0001:000492a0       ??$_Move_backward_opt@PAUVNT@@PAU1@Urandom_access_iterator_tag@std@@U_Undefined_move_tag@3@@std@@YAPAUVNT@@PAU1@00Urandom_access_iterator_tag@0@U_Undefined_move_tag@0@U_Range_checked_iterator_tag@0@@Z 0044a2a0 f i Curve_Class.obj
 0001:00049330       ??$unchecked_uninitialized_copy@PAUVNT@@PAU1@V?$allocator@UVNT@@@std@@@stdext@@YAPAUVNT@@PAU1@00AAV?$allocator@UVNT@@@std@@@Z 0044a330 f i Curve_Class.obj
 0001:00049380       ??$_Uninit_copy@PAUVNT@@PAU1@V?$allocator@UVNT@@@std@@@std@@YAPAUVNT@@PAU1@00AAV?$allocator@UVNT@@@0@U_Nonscalar_ptr_iterator_tag@0@U_Range_checked_iterator_tag@0@@Z 0044a380 f i Curve_Class.obj
 0001:00049460       ?WindowName@@YA?AV?$CStringT@DV?$StrTraitMFC@DV?$ChTraitsCRT@D@ATL@@@@@ATL@@V12@@Z 0044a460 f   DirTree.obj
 0001:000496a0       ?ParsPath@@YA_NV?$CStringT@DV?$StrTraitMFC@DV?$ChTraitsCRT@D@ATL@@@@@ATL@@HQAV12@@Z 0044a6a0 f   DirTree.obj
 0001:00049880       ??0CDirTree@@QAE@XZ        0044a880 f   DirTree.obj
 0001:00049910       ??_GCTreeCtrl@@UAEPAXI@Z   0044a910 f i DirTree.obj
 0001:00049910       ??_ECTreeCtrl@@UAEPAXI@Z   0044a910 f i DirTree.obj
 0001:00049940       ??_GCDirTree@@UAEPAXI@Z    0044a940 f i DirTree.obj
 0001:00049940       ??_ECDirTree@@UAEPAXI@Z    0044a940 f i DirTree.obj
 0001:00049970       ??1CDirTree@@UAE@XZ        0044a970 f   DirTree.obj
 0001:000499e0       ?GetMessageMap@CDirTree@@MBEPBUAFX_MSGMAP@@XZ 0044a9e0 f   DirTree.obj
 0001:000499f0       ?GetThisMessageMap@CDirTree@@KGPBUAFX_MSGMAP@@XZ 0044a9f0 f   DirTree.obj
 0001:00049a00       ?PreSubclassWindow@CDirTree@@MAEXXZ 0044aa00 f   DirTree.obj
 0001:00049b40       ?PreSelectFolder@CDirTree@@QAEHPBD@Z 0044ab40 f   DirTree.obj
 0001:00049f80       ?InsertItem2@CDirTree@@QAEPAU_TREEITEM@@PAU2@AAV?$CStringT@DV?$StrTraitMFC@DV?$ChTraitsCRT@D@ATL@@@@@ATL@@HH@Z 0044af80 f   DirTree.obj
 0001:0004a0a0       ?PopulateTree@CDirTree@@QAEHAAV?$CStringT@DV?$StrTraitMFC@DV?$ChTraitsCRT@D@ATL@@@@@ATL@@PAU_TREEITEM@@@Z 0044b0a0 f   DirTree.obj
 0001:0004a220       ?GetItemPath@CDirTree@@QAE?AV?$CStringT@DV?$StrTraitMFC@DV?$ChTraitsCRT@D@ATL@@@@@ATL@@PAU_TREEITEM@@@Z 0044b220 f   DirTree.obj
 0001:0004a390       ?OnItemexpanding@CDirTree@@IAEXPAUtagNMHDR@@PAJ@Z 0044b390 f   DirTree.obj
 0001:0004a4b0       ?OnSelchanged@CDirTree@@IAEXPAUtagNMHDR@@PAJ@Z 0044b4b0 f   DirTree.obj
 0001:0004a5d0       ?OnDestroy@CDirTree@@IAEXXZ 0044b5d0 f   DirTree.obj
 0001:0004a5f0       ??0?$CStringT@DV?$StrTraitMFC@DV?$ChTraitsCRT@D@ATL@@@@@ATL@@QAE@DH@Z 0044b5f0 f i DirTree.obj
 0001:0004a720       ?MakeUpper@?$CStringT@DV?$StrTraitMFC@DV?$ChTraitsCRT@D@ATL@@@@@ATL@@QAEAAV12@XZ 0044b720 f i DirTree.obj
 0001:0004a870       ?MakeLower@?$CStringT@DV?$StrTraitMFC@DV?$ChTraitsCRT@D@ATL@@@@@ATL@@QAEAAV12@XZ 0044b870 f i DirTree.obj
 0001:0004a9c0       ?Mid@?$CStringT@DV?$StrTraitMFC@DV?$ChTraitsCRT@D@ATL@@@@@ATL@@QBE?AV12@H@Z 0044b9c0 f i DirTree.obj
 0001:0004aa10       ?Mid@?$CStringT@DV?$StrTraitMFC@DV?$ChTraitsCRT@D@ATL@@@@@ATL@@QBE?AV12@HH@Z 0044ba10 f i DirTree.obj
 0001:0004ab50       ??HATL@@YA?AV?$CStringT@DV?$StrTraitMFC@DV?$ChTraitsCRT@D@ATL@@@@@0@ABV10@0@Z 0044bb50 f i DirTree.obj
 0001:0004ac30       ??HATL@@YA?AV?$CStringT@DV?$StrTraitMFC@DV?$ChTraitsCRT@D@ATL@@@@@0@ABV10@PBD@Z 0044bc30 f i DirTree.obj
 0001:0004ad10       ??HATL@@YA?AV?$CStringT@DV?$StrTraitMFC@DV?$ChTraitsCRT@D@ATL@@@@@0@ABV10@D@Z 0044bd10 f i DirTree.obj
 0001:0004ade0       ?GetBuffer@?$CSimpleStringT@D$0A@@ATL@@QAEPADH@Z 0044bde0 f i DirTree.obj
 0001:0004ae40       ?ReleaseBuffer@?$CSimpleStringT@D$0A@@ATL@@QAEXH@Z 0044be40 f i DirTree.obj
 0001:0004aec0       ?Concatenate@?$CSimpleStringT@D$0A@@ATL@@KAXAAV12@PBDH1H@Z 0044bec0 f i DirTree.obj
 0001:0004af90       ??0CDlgConsole@@QAE@PAVCWnd@@@Z 0044bf90 f   DlgConsole.obj
 0001:0004b060       ?Create@CDialog@@UAEHIPAVCWnd@@@Z 0044c060 f i DlgConsole.obj
 0001:0004b080       ??_GCEdit@@UAEPAXI@Z       0044c080 f i DlgConsole.obj
 0001:0004b080       ??_ECEdit@@UAEPAXI@Z       0044c080 f i DlgConsole.obj
 0001:0004b0b0       ??0CBaseDlg@@QAE@IPAVCWnd@@@Z 0044c0b0 f i DlgConsole.obj
 0001:0004b170       ?BlockBarUpdate@CBaseDlg@@UAEXXZ 0044c170 f i DlgConsole.obj
 0001:0004b190       ??_GCBaseDlg@@UAEPAXI@Z    0044c190 f i DlgConsole.obj
 0001:0004b190       ??_ECBaseDlg@@UAEPAXI@Z    0044c190 f i DlgConsole.obj
 0001:0004b1d0       ??1CBaseDlg@@UAE@XZ        0044c1d0 f i DlgConsole.obj
 0001:0004b280       ??_GCDlgConsole@@UAEPAXI@Z 0044c280 f i DlgConsole.obj
 0001:0004b280       ??_ECDlgConsole@@UAEPAXI@Z 0044c280 f i DlgConsole.obj
 0001:0004b2b0       ??1CDlgConsole@@UAE@XZ     0044c2b0 f i DlgConsole.obj
 0001:0004b370       ?DoDataExchange@CDlgConsole@@MAEXPAVCDataExchange@@@Z 0044c370 f   DlgConsole.obj
 0001:0004b3f0       ?GetMessageMap@CDlgConsole@@MBEPBUAFX_MSGMAP@@XZ 0044c3f0 f   DlgConsole.obj
 0001:0004b400       ?GetThisMessageMap@CDlgConsole@@KGPBUAFX_MSGMAP@@XZ 0044c400 f   DlgConsole.obj
 0001:0004b410       ?OnCancel@CDlgConsole@@MAEXXZ 0044c410 f   DlgConsole.obj
 0001:0004b430       ?OnRun@CDlgConsole@@IAEXXZ 0044c430 f   DlgConsole.obj
 0001:0004b4a0       ?OnInitDialog@CLbDlg@@MAEHXZ 0044c4a0 f   PrpLb.obj
 0001:0004b4a0       ?OnInitDialog@CDlgConsole@@MAEHXZ 0044c4a0 f   DlgConsole.obj
 0001:0004b4a0       ?OnInitDialog@DlgGameItem@@MAEHXZ 0044c4a0 f   DlgGameItem.obj
 0001:0004b4c0       ?_Tidy@?$_Tree@V?$_Tset_traits@HU?$less@H@std@@V?$allocator@H@2@$0A@@std@@@std@@IAEXXZ 0044c4c0 f i BspTree.obj
 0001:0004b4c0       ?_Tidy@?$_Tree@V?$_Tset_traits@PAVPoly@@U?$less@PAVPoly@@@std@@V?$allocator@PAVPoly@@@3@$0A@@std@@@std@@IAEXXZ 0044c4c0 f i DialogEvalDets.obj
 0001:0004b4c0       ?_Tidy@?$_Tree@V?$_Tset_traits@PAVV3@@U?$less@PAVV3@@@std@@V?$allocator@PAVV3@@@3@$0A@@std@@@std@@IAEXXZ 0044c4c0 f i z_ed2DocDraw.obj
 0001:0004b4c0       ?_Tidy@?$_Tree@V?$_Tset_traits@IU?$less@I@std@@V?$allocator@I@2@$0A@@std@@@std@@IAEXXZ 0044c4c0 f i DlgConsole.obj
 0001:0004b4c0       ?_Tidy@?$_Tree@V?$_Tset_traits@PAVBrush@@U?$less@PAVBrush@@@std@@V?$allocator@PAVBrush@@@3@$0A@@std@@@std@@IAEXXZ 0044c4c0 f i DialogEvalDets.obj
 0001:0004b5d0       ?erase@?$_Tree@V?$_Tset_traits@HU?$less@H@std@@V?$allocator@H@2@$0A@@std@@@std@@QAE?AViterator@12@Vconst_iterator@12@0@Z 0044c5d0 f i BspTree.obj
 0001:0004b5d0       ?erase@?$_Tree@V?$_Tset_traits@IU?$less@I@std@@V?$allocator@I@2@$0A@@std@@@std@@QAE?AViterator@12@Vconst_iterator@12@0@Z 0044c5d0 f i DlgConsole.obj
 0001:0004b5d0       ?erase@?$_Tree@V?$_Tset_traits@PAVPoly@@U?$less@PAVPoly@@@std@@V?$allocator@PAVPoly@@@3@$0A@@std@@@std@@QAE?AViterator@12@Vconst_iterator@12@0@Z 0044c5d0 f i DialogEvalDets.obj
 0001:0004b5d0       ?erase@?$_Tree@V?$_Tset_traits@PAVBrush@@U?$less@PAVBrush@@@std@@V?$allocator@PAVBrush@@@3@$0A@@std@@@std@@QAE?AViterator@12@Vconst_iterator@12@0@Z 0044c5d0 f i DialogEvalDets.obj
 0001:0004b5d0       ?erase@?$_Tree@V?$_Tset_traits@PAVV3@@U?$less@PAVV3@@@std@@V?$allocator@PAVV3@@@3@$0A@@std@@@std@@QAE?AViterator@12@Vconst_iterator@12@0@Z 0044c5d0 f i z_ed2DocDraw.obj
 0001:0004b7d0       ?erase@?$_Tree@V?$_Tset_traits@PAVBrush@@U?$less@PAVBrush@@@std@@V?$allocator@PAVBrush@@@3@$0A@@std@@@std@@QAE?AViterator@12@Vconst_iterator@12@@Z 0044c7d0 f i DialogEvalDets.obj
 0001:0004b7d0       ?erase@?$_Tree@V?$_Tset_traits@PAVPoly@@U?$less@PAVPoly@@@std@@V?$allocator@PAVPoly@@@3@$0A@@std@@@std@@QAE?AViterator@12@Vconst_iterator@12@@Z 0044c7d0 f i DialogEvalDets.obj
 0001:0004b7d0       ?erase@?$_Tree@V?$_Tset_traits@IU?$less@I@std@@V?$allocator@I@2@$0A@@std@@@std@@QAE?AViterator@12@Vconst_iterator@12@@Z 0044c7d0 f i DlgConsole.obj
 0001:0004b7d0       ?erase@?$_Tree@V?$_Tset_traits@HU?$less@H@std@@V?$allocator@H@2@$0A@@std@@@std@@QAE?AViterator@12@Vconst_iterator@12@@Z 0044c7d0 f i BspTree.obj
 0001:0004b7d0       ?erase@?$_Tree@V?$_Tset_traits@PAVV3@@U?$less@PAVV3@@@std@@V?$allocator@PAVV3@@@3@$0A@@std@@@std@@QAE?AViterator@12@Vconst_iterator@12@@Z 0044c7d0 f i z_ed2DocDraw.obj
 0001:0004bdd0       ?GetMessageMap@CDrawOut@@MBEPBUAFX_MSGMAP@@XZ 0044cdd0 f   Drawout1.obj
 0001:0004bde0       ?GetThisMessageMap@CDrawOut@@KGPBUAFX_MSGMAP@@XZ 0044cde0 f   Drawout1.obj
 0001:0004bdf0       ?OnLButtonUp@CDrawOut@@QAEXIVCPoint@@@Z 0044cdf0 f   Drawout1.obj
 0001:0004be20       ?OnLButtonDown@CDrawOut@@QAEXIVCPoint@@@Z 0044ce20 f   Drawout1.obj
 0001:0004be60       ?OnMouseMove@CDrawOut@@QAEXIVCPoint@@@Z 0044ce60 f   Drawout1.obj
 0001:0004bf60       ?Repaint@CDrawOut@@QAEXPAVCDC@@@Z 0044cf60 f   Drawout1.obj
 0001:0004c3c0       ?CreateWnd@CDrawOut@@QAEHPAVCWnd@@I@Z 0044d3c0 f   Drawout1.obj
 0001:0004c500       ?OnLButtonDblClk@CDrawOut@@QAEXIVCPoint@@@Z 0044d500 f   Drawout1.obj
 0001:0004c6e0       ??3CObject@@SGXPAX@Z       0044d6e0 f i Drawout1.obj
 0001:0004c700       ??0CDrawOut@@QAE@XZ        0044d700 f i Drawout1.obj
 0001:0004c820       ??_GMMove@@UAEPAXI@Z       0044d820 f i Drawout1.obj
 0001:0004c820       ??_EMMove@@UAEPAXI@Z       0044d820 f i Drawout1.obj
 0001:0004c850       ?Create@CDrawOut@@UAEHPBD0KABUtagRECT@@PAVCWnd@@IPAUCCreateContext@@@Z 0044d850 f i Drawout1.obj
 0001:0004c8e0       ??_ECDrawOut@@UAEPAXI@Z    0044d8e0 f i Drawout1.obj
 0001:0004c8e0       ??_GCDrawOut@@UAEPAXI@Z    0044d8e0 f i Drawout1.obj
 0001:0004c910       ??1CDrawOut@@UAE@XZ        0044d910 f i Drawout1.obj
 0001:0004c9b0       ?OnDestroy@CDrawOut@@QAEXXZ 0044d9b0 f   Drawout1.obj
 0001:0004c9f0       ?PostNcDestroy@CDrawOut@@MAEXXZ 0044d9f0 f   Drawout1.obj
 0001:0004ca50       ?OnPaint@CDrawOut@@QAEXXZ  0044da50 f   Drawout1.obj
 0001:0004cad0       ??0CFixSplitter@@QAE@H@Z   0044dad0 f   FixSplitter.obj
 0001:0004cb30       ??_ECFixSplitter@@UAEPAXI@Z 0044db30 f i FixSplitter.obj
 0001:0004cb30       ??_GCFixSplitter@@UAEPAXI@Z 0044db30 f i FixSplitter.obj
 0001:0004cb60       ??1CFixSplitter@@UAE@XZ    0044db60 f   FixSplitter.obj
 0001:0004cb80       ?GetMessageMap@CFixSplitter@@MBEPBUAFX_MSGMAP@@XZ 0044db80 f   FixSplitter.obj
 0001:0004cb90       ?GetThisMessageMap@CFixSplitter@@KGPBUAFX_MSGMAP@@XZ 0044db90 f   FixSplitter.obj
 0001:0004cba0       ?OnPaint@CFixSplitter@@IAEXXZ 0044dba0 f   FixSplitter.obj
 0001:0004cbc0       ?OnLButtonDown@CFixSplitter@@IAEXIVCPoint@@@Z 0044dbc0 f   FixSplitter.obj
 0001:0004cbf0       ?OnLButtonDblClk@CFixSplitter@@IAEXIVCPoint@@@Z 0044dbf0 f   FixSplitter.obj
 0001:0004ce80       ?OnSetCursor@CFixSplitter@@IAEHPAVCWnd@@II@Z 0044de80 f   FixSplitter.obj
 0001:0004ceb0       ?OnCreate@CFixSplitter@@IAEHPAUtagCREATESTRUCTA@@@Z 0044deb0 f   FixSplitter.obj
 0001:0004cf40       ?OnMouseMove@CFixSplitter@@IAEXIVCPoint@@@Z 0044df40 f   FixSplitter.obj
 0001:0004cfc0       ??$tmax@J@@YAJJJ@Z         0044dfc0 f i FixSplitter.obj
 0001:0004cfc0       ??$tmax@H@@YAHHH@Z         0044dfc0 f i MiniBsp.obj
 0001:0004cff0       ?UpdateFrustrumPlanes@Frustrum@@QAEXAAVV3@@000@Z 0044dff0 f   Frustrum.obj
 0001:0004d480       ?IsCulled@Frustrum@@QAEHPBVV3@@@Z 0044e480 f   Frustrum.obj
 0001:0004d5f0       ?IsCulled@Frustrum@@QAEHPBVV3@@0@Z 0044e5f0 f   Frustrum.obj
 0001:0004e180       ?__GetCone@@YAPAVV3@@ABV1@MMAAH@Z 0044f180 f   GeoUtils.obj
 0001:0004e330       ??0CGListCtrl@@QAE@XZ      0044f330 f   GListCtrl.obj
 0001:0004e3d0       ??_GCListCtrl@@UAEPAXI@Z   0044f3d0 f i GListCtrl.obj
 0001:0004e3d0       ??_ECListCtrl@@UAEPAXI@Z   0044f3d0 f i GListCtrl.obj
 0001:0004e400       ??_GCHeaderCtrl@@UAEPAXI@Z 0044f400 f i GListCtrl.obj
 0001:0004e400       ??_ECHeaderCtrl@@UAEPAXI@Z 0044f400 f i GListCtrl.obj
 0001:0004e430       ??_EC_HeaderCtrl@@UAEPAXI@Z 0044f430 f i GListCtrl.obj
 0001:0004e430       ??_GC_HeaderCtrl@@UAEPAXI@Z 0044f430 f i GListCtrl.obj
 0001:0004e470       ??_ECGListCtrl@@UAEPAXI@Z  0044f470 f i GListCtrl.obj
 0001:0004e470       ??_GCGListCtrl@@UAEPAXI@Z  0044f470 f i GListCtrl.obj
 0001:0004e4a0       ??1CGListCtrl@@UAE@XZ      0044f4a0 f   GListCtrl.obj
 0001:0004e510       ?GetMessageMap@CGListCtrl@@MBEPBUAFX_MSGMAP@@XZ 0044f510 f   GListCtrl.obj
 0001:0004e520       ?GetThisMessageMap@CGListCtrl@@KGPBUAFX_MSGMAP@@XZ 0044f520 f   GListCtrl.obj
 0001:0004e530       ?PreSubclassWindow@CGListCtrl@@MAEXXZ 0044f530 f   GListCtrl.obj
 0001:0004e5b0       ?SetHeadersNames@CGListCtrl@@QAAXPBDZZ 0044f5b0 f   GListCtrl.obj
 0001:0004e6f0       ?LstSetItem@CGListCtrl@@QAAHHPBDZZ 0044f6f0 f   GListCtrl.obj
 0001:0004e7e0       ?AddNewItem@CGListCtrl@@QAAHPBDZZ 0044f7e0 f   GListCtrl.obj
 0001:0004e900       ?SetCurSel@CGListCtrl@@QAEXH@Z 0044f900 f   GListCtrl.obj
 0001:0004e950       ?OnItemchanged@CGListCtrl@@IAEXPAUtagNMHDR@@PAJ@Z 0044f950 f   GListCtrl.obj
 0001:0004e9c0       ?OnDblclk@CGListCtrl@@IAEXPAUtagNMHDR@@PAJ@Z 0044f9c0 f   GListCtrl.obj
 0001:0004ea30       ?OnKeydown@CGListCtrl@@IAEXPAUtagNMHDR@@PAJ@Z 0044fa30 f   GListCtrl.obj
 0001:0004ea50       ?GetMessageMap@CLbEditable@@MBEPBUAFX_MSGMAP@@XZ 0044fa50 f   LbEditable.obj
 0001:0004ea60       ?GetThisMessageMap@CLbEditable@@KGPBUAFX_MSGMAP@@XZ 0044fa60 f   LbEditable.obj
 0001:0004ea70       ??0CLbEditable@@QAE@XZ     0044fa70 f   LbEditable.obj
 0001:0004ebb0       ??_GCListBox@@UAEPAXI@Z    0044fbb0 f i LbEditable.obj
 0001:0004ebb0       ??_ECCheckListBox@@UAEPAXI@Z 0044fbb0 f i DlgFaceProp.obj
 0001:0004ebb0       ??_ECListBox@@UAEPAXI@Z    0044fbb0 f i LbEditable.obj
 0001:0004ebb0       ??_GCCheckListBox@@UAEPAXI@Z 0044fbb0 f i DlgFaceProp.obj
 0001:0004ebe0       ??_GCCbFromLb@@UAEPAXI@Z   0044fbe0 f i LbEditable.obj
 0001:0004ebe0       ??_ECCbFromLb@@UAEPAXI@Z   0044fbe0 f i LbEditable.obj
 0001:0004ec20       ??1CEditFromLb@@UAE@XZ     0044fc20 f i LbEditable.obj
 0001:0004ec40       ??_ECEditFromLb@@UAEPAXI@Z 0044fc40 f i LbEditable.obj
 0001:0004ec40       ??_GCEditFromLb@@UAEPAXI@Z 0044fc40 f i LbEditable.obj
 0001:0004ec80       ??_GCLbEditable@@UAEPAXI@Z 0044fc80 f i LbEditable.obj
 0001:0004ec80       ??_ECLbEditable@@UAEPAXI@Z 0044fc80 f i LbEditable.obj
 0001:0004ecb0       ??1CLbEditable@@UAE@XZ     0044fcb0 f   LbEditable.obj
 0001:0004ed70       ?DrawItem@CLbEditable@@UAEXPAUtagDRAWITEMSTRUCT@@@Z 0044fd70 f   LbEditable.obj
 0001:0004f130       ?PreSubclassWindow@CLbEditable@@MAEXXZ 00450130 f   LbEditable.obj
 0001:0004f350       ?OnSelchange@CLbEditable@@IAEXXZ 00450350 f   LbEditable.obj
 0001:0004fa20       ?OnDestroy@CLbEditable@@IAEXXZ 00450a20 f   LbEditable.obj
 0001:0004fb10       ?GetMessageMap@CCbFromLb@@MBEPBUAFX_MSGMAP@@XZ 00450b10 f   LbEditable.obj
 0001:0004fb20       ?GetThisMessageMap@CCbFromLb@@KGPBUAFX_MSGMAP@@XZ 00450b20 f   LbEditable.obj
 0001:0004fb30       ?GetMessageMap@CEditFromLb@@MBEPBUAFX_MSGMAP@@XZ 00450b30 f   LbEditable.obj
 0001:0004fb40       ?GetThisMessageMap@CEditFromLb@@KGPBUAFX_MSGMAP@@XZ 00450b40 f   LbEditable.obj
 0001:0004fb50       ?OnCloseup@CCbFromLb@@IAEXXZ 00450b50 f   LbEditable.obj
 0001:0004fba0       ?OnKeyDown@CEditFromLb@@IAEXIII@Z 00450ba0 f   LbEditable.obj
 0001:0004fba0       ?OnKeyDown@CCbFromLb@@IAEXIII@Z 00450ba0 f   LbEditable.obj
 0001:0004fc10       ?MeasureItem@CLbEditable@@UAEXPAUtagMEASUREITEMSTRUCT@@@Z 00450c10 f   LbEditable.obj
 0001:0004fc30       ?KillFOcus@CLbEditable@@QAEXH@Z 00450c30 f   LbEditable.obj
 0001:0004fcc0       ?OnKillFocus@CLbEditable@@IAEXPAVCWnd@@@Z 00450cc0 f   LbEditable.obj
 0001:0004fd10       ?GetPropA@CLbEditable@@QAEPBDPAD@Z 00450d10 f   LbEditable.obj
 0001:0004fdf0       ?compare@?$basic_string@DU?$char_traits@D@std@@V?$allocator@D@2@@std@@QBEHIIPBDI@Z 00450df0 f i LbEditable.obj
 0001:0004feb0       ??0CLboxItem@@QAE@XZ       00450eb0 f   LboxItem.obj
 0001:0004ff20       ??_ECLboxItem@@UAEPAXI@Z   00450f20 f i LboxItem.obj
 0001:0004ff20       ??_GCLboxItem@@UAEPAXI@Z   00450f20 f i LboxItem.obj
 0001:0004ff50       ??1CLboxItem@@UAE@XZ       00450f50 f   LboxItem.obj
 0001:0004ffb0       ?GetMessageMap@CLboxItem@@MBEPBUAFX_MSGMAP@@XZ 00450fb0 f   LboxItem.obj
 0001:0004ffc0       ?GetThisMessageMap@CLboxItem@@KGPBUAFX_MSGMAP@@XZ 00450fc0 f   LboxItem.obj
 0001:0004ffd0       ?DrawItem@CLboxItem@@UAEXPAUtagDRAWITEMSTRUCT@@@Z 00450fd0 f   LboxItem.obj
 0001:00050310       ?_ImageList_Draw@CComCtlWrapper@@QAEHPAU_IMAGELIST@@HPAUHDC__@@HHI@Z 00451310 f i LboxItem.obj
 0001:00050480       ?GetModuleHandleA@CDllIsolationWrapperBase@@QAEPAUHINSTANCE__@@XZ 00451480 f i LboxItem.obj
 0001:000504f0       ?PreSubclassWindow@CLboxItem@@MAEXXZ 004514f0 f   LboxItem.obj
 0001:00050520       ?OnDestroy@CLboxItem@@IAEXXZ 00451520 f   LboxItem.obj
 0001:00050540       ?Init@CMaskEdit@@QAEXXZ    00451540 f   MaskEdit.obj
 0001:000505c0       ??1CMaskEdit@@UAE@XZ       004515c0 f   MaskEdit.obj
 0001:00050600       ??_GCMaskEdit@@UAEPAXI@Z   00451600 f i MaskEdit.obj
 0001:00050600       ??_ECMaskEdit@@UAEPAXI@Z   00451600 f i MaskEdit.obj
 0001:00050630       ?WndProc@CMaskEdit@@SGJPAUHWND__@@IIJ@Z 00451630 f   MaskEdit.obj
 0001:00050650       ??0CPrpLb@@QAE@XZ          00451650 f   PrpLb.obj
 0001:000506f0       ??_ECPrpLb@@UAEPAXI@Z      004516f0 f i PrpLb.obj
 0001:000506f0       ??_GCPrpLb@@UAEPAXI@Z      004516f0 f i PrpLb.obj
 0001:00050720       ??1CPrpLb@@UAE@XZ          00451720 f   PrpLb.obj
 0001:000507d0       ?GetMessageMap@CPrpLb@@MBEPBUAFX_MSGMAP@@XZ 004517d0 f   PrpLb.obj
 0001:000507e0       ?GetThisMessageMap@CPrpLb@@KGPBUAFX_MSGMAP@@XZ 004517e0 f   PrpLb.obj
 0001:000507f0       ?OnKillFocus@CDlgCompile@@IAEXPAVCWnd@@@Z 004517f0 f i DlgCompile.obj
 0001:000507f0       ?OnKillFocus@CWnd@@IAEXPAV1@@Z 004517f0 f i PrpLb.obj
 0001:000507f0       ?OnTimer@CWnd@@IAEXI@Z     004517f0 f i DlgCompProgress.obj
 0001:00050810       ?PreSubclassWindow@CPrpLb@@MAEXXZ 00451810 f   PrpLb.obj
 0001:00050870       ?MeasureItem@CPrpLb@@UAEXPAUtagMEASUREITEMSTRUCT@@@Z 00451870 f   PrpLb.obj
 0001:00050890       ?OnEraseBkgnd@CPrpLb@@QAEHPAVCDC@@@Z 00451890 f   PrpLb.obj
 0001:000508c0       ?DrawItem@CPrpLb@@UAEXPAUtagDRAWITEMSTRUCT@@@Z 004518c0 f   PrpLb.obj
 0001:00050aa0       ?OnRedraw@CPrpLb@@IAEJIJ@Z 00451aa0 f   PrpLb.obj
 0001:00050ac0       ?AddItem@CPrpLb@@QAEPAVCLbDlg@@PADI@Z 00451ac0 f   PrpLb.obj
 0001:00051080       ?OnDestroy@CPrpLb@@IAEXXZ  00452080 f   PrpLb.obj
 0001:00051120       ?Clean@CPrpLb@@QAEXXZ      00452120 f   PrpLb.obj
 0001:000511d0       ?OnVScroll@CPrpLb@@IAEXIIPAVCScrollBar@@@Z 004521d0 f   PrpLb.obj
 0001:00051200       ?SeeRects@CPrpLb@@QAEXXZ   00452200 f   PrpLb.obj
 0001:00051330       ?WindowProc@CPrpLb@@UAEJIIJ@Z 00452330 f   PrpLb.obj
 0001:00051360       ?PreTranslateMessage@CPrpLb@@UAEHPAUtagMSG@@@Z 00452360 f   PrpLb.obj
 0001:00051380       ??0CLbDlg@@QAE@IPAVCWnd@@@Z 00452380 f   PrpLb.obj
 0001:00051680       ??1CLbDlg@@UAE@XZ          00452680 f i PrpLb.obj
 0001:00051750       ?DoDataExchange@CLbDlg@@MAEXPAVCDataExchange@@@Z 00452750 f   PrpLb.obj
 0001:00051750       ?DoDataExchange@DlgMotionState@@MAEXPAVCDataExchange@@@Z 00452750 f   DlgMotionState.obj
 0001:00051750       ?DoDataExchange@CVertDlgDlg@@MAEXPAVCDataExchange@@@Z 00452750 f   VertDlgDlg.obj
 0001:00051770       ?GetMessageMap@CLbDlg@@MBEPBUAFX_MSGMAP@@XZ 00452770 f   PrpLb.obj
 0001:00051780       ?GetThisMessageMap@CLbDlg@@KGPBUAFX_MSGMAP@@XZ 00452780 f   PrpLb.obj
 0001:00051790       ?PreTranslateMessage@CLbDlg@@UAEHPAUtagMSG@@@Z 00452790 f   PrpLb.obj
 0001:00051850       ?Noty@CLbDlg@@QAEXXZ       00452850 f   PrpLb.obj
 0001:000518d0       ?OnCreate@CLbDlg@@IAEHPAUtagCREATESTRUCTA@@@Z 004528d0 f   PrpLb.obj
 0001:000518d0       ?OnCreate@DlgCpxPrimnames@@IAEHPAUtagCREATESTRUCTA@@@Z 004528d0 f   DlgCpxPrimnames.obj
 0001:000518d0       ?OnCreate@CDrawOut@@QAEHPAUtagCREATESTRUCTA@@@Z 004528d0 f   Drawout1.obj
 0001:000518d0       ?OnCreate@CDirTree@@IAEHPAUtagCREATESTRUCTA@@@Z 004528d0 f   DirTree.obj
 0001:00051900       ?OnKillFocus@CLbDlg@@IAEXPAVCWnd@@@Z 00452900 f   PrpLb.obj
 0001:00051930       ??0DlbXyz@@QAE@PAVCWnd@@@Z 00452930 f   PrpLb.obj
 0001:00051a70       ??_GCSpinButtonCtrl@@UAEPAXI@Z 00452a70 f i PrpLb.obj
 0001:00051a70       ??_ECSpinButtonCtrl@@UAEPAXI@Z 00452a70 f i PrpLb.obj
 0001:00051aa0       ??_GDlbXyz@@UAEPAXI@Z      00452aa0 f i PrpLb.obj
 0001:00051aa0       ??_EDlbXyz@@UAEPAXI@Z      00452aa0 f i PrpLb.obj
 0001:00051ad0       ??1DlbXyz@@UAE@XZ          00452ad0 f i PrpLb.obj
 0001:00051ba0       ?DoDataExchange@DlbXyz@@MAEXPAVCDataExchange@@@Z 00452ba0 f   PrpLb.obj
 0001:00051c50       ?GetMessageMap@DlbXyz@@MBEPBUAFX_MSGMAP@@XZ 00452c50 f   PrpLb.obj
 0001:00051c60       ?GetThisMessageMap@DlbXyz@@KGPBUAFX_MSGMAP@@XZ 00452c60 f   PrpLb.obj
 0001:00051c70       ?Apply@DlbXyz@@UAEXXZ      00452c70 f   PrpLb.obj
 0001:00051f70       ?OnChangeX@DlbXyz@@IAEXXZ  00452f70 f   PrpLb.obj
 0001:00052040       ?OnChangeY@DlbXyz@@IAEXXZ  00453040 f   PrpLb.obj
 0001:00052110       ?OnChangeZ@DlbXyz@@IAEXXZ  00453110 f   PrpLb.obj
 0001:000521e0       ?OnDeltaposX@DlbXyz@@IAEXPAUtagNMHDR@@PAJ@Z 004531e0 f   PrpLb.obj
 0001:000522a0       ?OnDeltaposY@DlbXyz@@IAEXPAUtagNMHDR@@PAJ@Z 004532a0 f   PrpLb.obj
 0001:00052360       ?OnDeltaposZ@DlbXyz@@IAEXPAUtagNMHDR@@PAJ@Z 00453360 f   PrpLb.obj
 0001:00052420       ??0DlbUV@@QAE@PAVCWnd@@@Z  00453420 f   PrpLb.obj
 0001:00052510       ??_GDlbUV@@UAEPAXI@Z       00453510 f i PrpLb.obj
 0001:00052510       ??_EDlbUV@@UAEPAXI@Z       00453510 f i PrpLb.obj
 0001:00052540       ??1DlbUV@@UAE@XZ           00453540 f i PrpLb.obj
 0001:000525f0       ?DoDataExchange@DlbUV@@MAEXPAVCDataExchange@@@Z 004535f0 f   PrpLb.obj
 0001:00052670       ?GetMessageMap@DlbUV@@MBEPBUAFX_MSGMAP@@XZ 00453670 f   PrpLb.obj
 0001:00052680       ?GetThisMessageMap@DlbUV@@KGPBUAFX_MSGMAP@@XZ 00453680 f   PrpLb.obj
 0001:00052690       ?Apply@DlbUV@@UAEXXZ       00453690 f   PrpLb.obj
 0001:000528b0       ?OnChangeU@DlbUV@@IAEXXZ   004538b0 f   PrpLb.obj
 0001:00052980       ?OnChangeV@DlbUV@@IAEXXZ   00453980 f   PrpLb.obj
 0001:00052a50       ?OnDeltaposSpin1@DlbUV@@IAEXPAUtagNMHDR@@PAJ@Z 00453a50 f   PrpLb.obj
 0001:00052b10       ?OnDeltaposSpin2@DlbUV@@IAEXPAUtagNMHDR@@PAJ@Z 00453b10 f   PrpLb.obj
 0001:00052bd0       ??0DlbRANGE@@QAE@PAVCWnd@@@Z 00453bd0 f   PrpLb.obj
 0001:00052c80       ??_GCSliderCtrl@@UAEPAXI@Z 00453c80 f i PrpLb.obj
 0001:00052c80       ??_ECSliderCtrl@@UAEPAXI@Z 00453c80 f i PrpLb.obj
 0001:00052cb0       ??_GDlbRANGE@@UAEPAXI@Z    00453cb0 f i PrpLb.obj
 0001:00052cb0       ??_EDlbRANGE@@UAEPAXI@Z    00453cb0 f i PrpLb.obj
 0001:00052d40       ?DoDataExchange@DlbRANGE@@MAEXPAVCDataExchange@@@Z 00453d40 f   PrpLb.obj
 0001:00052d90       ?GetMessageMap@DlbRANGE@@MBEPBUAFX_MSGMAP@@XZ 00453d90 f   PrpLb.obj
 0001:00052da0       ?GetThisMessageMap@DlbRANGE@@KGPBUAFX_MSGMAP@@XZ 00453da0 f   PrpLb.obj
 0001:00052db0       ?Apply@DlbRANGE@@UAEXXZ    00453db0 f   PrpLb.obj
 0001:00052e60       ?OnReleasedcapture1@DlbRANGE@@IAEXPAUtagNMHDR@@PAJ@Z 00453e60 f   PrpLb.obj
 0001:00052ef0       ?OnChange1@DlbRANGE@@IAEXXZ 00453ef0 f   PrpLb.obj
 0001:00052f80       ??0DlbFILE@@QAE@PAVCWnd@@@Z 00453f80 f   PrpLb.obj
 0001:00053000       ??_EDlbFILE@@UAEPAXI@Z     00454000 f i PrpLb.obj
 0001:00053000       ??_GDlbFILE@@UAEPAXI@Z     00454000 f i PrpLb.obj
 0001:00053080       ?DoDataExchange@DlbFILE@@MAEXPAVCDataExchange@@@Z 00454080 f   PrpLb.obj
 0001:000530d0       ?GetMessageMap@DlbFILE@@MBEPBUAFX_MSGMAP@@XZ 004540d0 f   PrpLb.obj
 0001:000530e0       ?GetThisMessageMap@DlbFILE@@KGPBUAFX_MSGMAP@@XZ 004540e0 f   PrpLb.obj
 0001:000530f0       ?Apply@DlbFILE@@UAEXXZ     004540f0 f   PrpLb.obj
 0001:00053130       ?OnButton1@DlbFILE@@IAEXXZ 00454130 f   PrpLb.obj
 0001:00053590       ?OnChange1@DlbFILE@@IAEXXZ 00454590 f   PrpLb.obj
 0001:00053640       ??0DlbEDSpin@@QAE@PAVCWnd@@@Z 00454640 f   PrpLb.obj
 0001:000536f0       ??_EDlbEDSpin@@UAEPAXI@Z   004546f0 f i PrpLb.obj
 0001:000536f0       ??_GDlbEDSpin@@UAEPAXI@Z   004546f0 f i PrpLb.obj
 0001:00053780       ?DoDataExchange@DlbEDSpin@@MAEXPAVCDataExchange@@@Z 00454780 f   PrpLb.obj
 0001:000537d0       ?GetMessageMap@DlbEDSpin@@MBEPBUAFX_MSGMAP@@XZ 004547d0 f   PrpLb.obj
 0001:000537e0       ?GetThisMessageMap@DlbEDSpin@@KGPBUAFX_MSGMAP@@XZ 004547e0 f   PrpLb.obj
 0001:000537f0       ?Apply@DlbEDSpin@@UAEXXZ   004547f0 f   PrpLb.obj
 0001:00053950       ?OnDeltapos1@DlbEDSpin@@IAEXPAUtagNMHDR@@PAJ@Z 00454950 f   PrpLb.obj
 0001:00053a10       ?OnChange1@DlbEDSpin@@IAEXXZ 00454a10 f   PrpLb.obj
 0001:00053ae0       ?OnHScroll@DlgTexMody@@IAEXIIPAVCScrollBar@@@Z 00454ae0 f   DlgTexMody.obj
 0001:00053ae0       ?OnVScroll@DlbEDSpin@@IAEXIIPAVCScrollBar@@@Z 00454ae0 f   PrpLb.obj
 0001:00053b10       ??0DlbEDIT@@QAE@PAVCWnd@@@Z 00454b10 f   PrpLb.obj
 0001:00053b40       ??_EDlbCKs@@UAEPAXI@Z      00454b40 f i PrpLb.obj
 0001:00053b40       ??_EDlbEDIT@@UAEPAXI@Z     00454b40 f i PrpLb.obj
 0001:00053b40       ??_GDlbCB@@UAEPAXI@Z       00454b40 f i PrpLb.obj
 0001:00053b40       ??_EDlbCB@@UAEPAXI@Z       00454b40 f i PrpLb.obj
 0001:00053b40       ??_ECLbDlg@@UAEPAXI@Z      00454b40 f i PrpLb.obj
 0001:00053b40       ??_GCLbDlg@@UAEPAXI@Z      00454b40 f i PrpLb.obj
 0001:00053b40       ??_GDlbCKs@@UAEPAXI@Z      00454b40 f i PrpLb.obj
 0001:00053b40       ??_GDlbRB@@UAEPAXI@Z       00454b40 f i PrpLb.obj
 0001:00053b40       ??_EDlbRB@@UAEPAXI@Z       00454b40 f i PrpLb.obj
 0001:00053b40       ??_GDlbEDIT@@UAEPAXI@Z     00454b40 f i PrpLb.obj
 0001:00053b70       ?DoDataExchange@DlbEDIT@@MAEXPAVCDataExchange@@@Z 00454b70 f   PrpLb.obj
 0001:00053bb0       ?GetMessageMap@DlbEDIT@@MBEPBUAFX_MSGMAP@@XZ 00454bb0 f   PrpLb.obj
 0001:00053bc0       ?GetThisMessageMap@DlbEDIT@@KGPBUAFX_MSGMAP@@XZ 00454bc0 f   PrpLb.obj
 0001:00053bd0       ??0DlbCLR@@QAE@PAVCWnd@@@Z 00454bd0 f   PrpLb.obj
 0001:00053c70       ??_EDlbCLR@@UAEPAXI@Z      00454c70 f i PrpLb.obj
 0001:00053c70       ??_GDlbCLR@@UAEPAXI@Z      00454c70 f i PrpLb.obj
 0001:00053ca0       ??1DlbCLR@@UAE@XZ          00454ca0 f i PrpLb.obj
 0001:00053d30       ?DoDataExchange@DlbCLR@@MAEXPAVCDataExchange@@@Z 00454d30 f   PrpLb.obj
 0001:00053d70       ?GetMessageMap@DlbCLR@@MBEPBUAFX_MSGMAP@@XZ 00454d70 f   PrpLb.obj
 0001:00053d80       ?GetThisMessageMap@DlbCLR@@KGPBUAFX_MSGMAP@@XZ 00454d80 f   PrpLb.obj
 0001:00053d90       ?OnCtlColor@DlbCLR@@IAEPAUHBRUSH__@@PAVCDC@@PAVCWnd@@I@Z 00454d90 f   PrpLb.obj
 0001:00053de0       ?OnPaint@DlbCLR@@IAEXXZ    00454de0 f   PrpLb.obj
 0001:00053f80       ?OnButton2@DlbCLR@@IAEXXZ  00454f80 f   PrpLb.obj
 0001:00054090       ?AfxGetMainWnd@@YGPAVCWnd@@XZ 00455090 f i PrpLb.obj
 0001:000540d0       ??_GCCommonDialog@@UAEPAXI@Z 004550d0 f i PrpLb.obj
 0001:000540d0       ??_ECCommonDialog@@UAEPAXI@Z 004550d0 f i PrpLb.obj
 0001:00054110       ?OnDestroy@DlbCLR@@IAEXXZ  00455110 f   PrpLb.obj
 0001:00054140       ?Apply@DlbCLR@@UAEXXZ      00455140 f   PrpLb.obj
 0001:00054190       ??0DlbCKs@@QAE@PAVCWnd@@@Z 00455190 f   PrpLb.obj
 0001:000541c0       ?DoDataExchange@DlgStartPlayItem@@MAEXPAVCDataExchange@@@Z 004551c0 f   DlgStartPlayItem.obj
 0001:000541c0       ?DoDataExchange@DlbCKs@@MAEXPAVCDataExchange@@@Z 004551c0 f   PrpLb.obj
 0001:000541c0       ?DoDataExchange@DlgLightItem@@MAEXPAVCDataExchange@@@Z 004551c0 f   DlgLightItem.obj
 0001:000541e0       ?GetMessageMap@DlbCKs@@MBEPBUAFX_MSGMAP@@XZ 004551e0 f   PrpLb.obj
 0001:000541f0       ?GetThisMessageMap@DlbCKs@@KGPBUAFX_MSGMAP@@XZ 004551f0 f   PrpLb.obj
 0001:00054200       ?OnKillFocus@DlbCB@@IAEXPAVCWnd@@@Z 00455200 f   PrpLb.obj
 0001:00054200       ?OnKillFocus@DlbCKs@@IAEXPAVCWnd@@@Z 00455200 f   PrpLb.obj
 0001:00054220       ?Apply@DlbCKs@@UAEXXZ      00455220 f   PrpLb.obj
 0001:000542a0       ?OnCommand@DlbCKs@@MAEHIJ@Z 004552a0 f   PrpLb.obj
 0001:000542d0       ??0DlbCB@@QAE@PAVCWnd@@@Z  004552d0 f   PrpLb.obj
 0001:00054300       ?DoDataExchange@DlbCB@@MAEXPAVCDataExchange@@@Z 00455300 f   PrpLb.obj
 0001:00054340       ?GetMessageMap@DlbCB@@MBEPBUAFX_MSGMAP@@XZ 00455340 f   PrpLb.obj
 0001:00054350       ?GetThisMessageMap@DlbCB@@KGPBUAFX_MSGMAP@@XZ 00455350 f   PrpLb.obj
 0001:00054360       ?OnInitDialog@DlbCLR@@MAEHXZ 00455360 f   PrpLb.obj
 0001:00054360       ?OnInitDialog@DlbCKs@@MAEHXZ 00455360 f   PrpLb.obj
 0001:00054360       ?OnInitDialog@DlbCB@@MAEHXZ 00455360 f   PrpLb.obj
 0001:00054380       ?OnDestroy@DlgResBrowser@@IAEXXZ 00455380 f   DlgResBrowser.obj
 0001:00054380       ?OnDestroy@CDlgConsole@@IAEXXZ 00455380 f   DlgConsole.obj
 0001:00054380       ?OnDestroy@CDlgGs@@IAEXXZ  00455380 f   DlgGs.obj
 0001:00054380       ?OnDestroy@DlgMotionState@@IAEXXZ 00455380 f   DlgMotionState.obj
 0001:00054380       ?OnDestroy@DlbCKs@@IAEXXZ  00455380 f   PrpLb.obj
 0001:00054380       ?OnDestroy@DlgClassItem@@IAEXXZ 00455380 f   DlgClassItem.obj
 0001:00054380       ?OnDestroy@CDlgNewBrush@@IAEXXZ 00455380 f   DlgNewBrush.obj
 0001:00054380       ?OnDestroy@DlgTexMody@@IAEXXZ 00455380 f   DlgTexMody.obj
 0001:00054380       ?OnDestroy@DlbCB@@IAEXXZ   00455380 f   PrpLb.obj
 0001:00054380       ?OnDestroy@DlbFILE@@IAEXXZ 00455380 f   PrpLb.obj
 0001:00054380       ?OnDestroy@DlgGameItem@@IAEXXZ 00455380 f   DlgGameItem.obj
 0001:000543a0       ?Apply@DlbCB@@UAEXXZ       004553a0 f   PrpLb.obj
 0001:000543a0       ?Apply@DlbEDIT@@UAEXXZ     004553a0 f   PrpLb.obj
 0001:000543c0       ?OnSelchange@CPrpLb@@QAEXXZ 004553c0 f   PrpLb.obj
 0001:00054520       ?OnSetCurSel@CPrpLb@@IAEJIJ@Z 00455520 f   PrpLb.obj
 0001:00054550       ?OnCmdMsg@CLbDlg@@UAEHIHPAXPAUAFX_CMDHANDLERINFO@@@Z 00455550 f   PrpLb.obj
 0001:000545d0       ?OnSetfocus@CPrpLb@@IAEXXZ 004555d0 f   PrpLb.obj
 0001:000545f0       ?OnKeyDown@CPrpLb@@IAEXIII@Z 004555f0 f   PrpLb.obj
 0001:00054610       ?OnSize@DlbFILE@@IAEXIHH@Z 00455610 f   PrpLb.obj
 0001:00054690       ?OnSelchangeCombo1@DlbCB@@IAEXXZ 00455690 f   PrpLb.obj
 0001:00054690       ?OnChange1@DlbEDIT@@IAEXXZ 00455690 f   PrpLb.obj
 0001:000546b0       ??0DlbRB@@QAE@PAVCWnd@@@Z  004556b0 f   PrpLb.obj
 0001:000546e0       ?GetMessageMap@DlbRB@@MBEPBUAFX_MSGMAP@@XZ 004556e0 f   PrpLb.obj
 0001:000546f0       ?GetThisMessageMap@DlbRB@@KGPBUAFX_MSGMAP@@XZ 004556f0 f   PrpLb.obj
 0001:00054700       ??A?$map@V?$basic_string@DU?$char_traits@D@std@@V?$allocator@D@2@@std@@PAVCLbDlg@@U?$less@V?$basic_string@DU?$char_traits@D@std@@V?$allocator@D@2@@std@@@2@V?$allocator@U?$pair@$$CBV?$basic_string@DU?$char_traits@D@std@@V?$allocator@D@2@@std@@PAVCLbDlg@@@std@@@2@@std@@QAEAAPAVCLbDlg@@ABV?$basic_string@DU?$char_traits@D@std@@V?$allocator@D@2@@1@@Z 00455700 f i PrpLb.obj
 0001:00054880       ?compare@?$basic_string@DU?$char_traits@D@std@@V?$allocator@D@2@@std@@QBEHABV12@@Z 00455880 f i PrpLb.obj
 0001:000548d0       ??0?$_Tree@V?$_Tmap_traits@V?$basic_string@DU?$char_traits@D@std@@V?$allocator@D@2@@std@@PAVCLbDlg@@U?$less@V?$basic_string@DU?$char_traits@D@std@@V?$allocator@D@2@@std@@@2@V?$allocator@U?$pair@$$CBV?$basic_string@DU?$char_traits@D@std@@V?$allocator@D@2@@std@@PAVCLbDlg@@@std@@@2@$0A@@std@@@std@@QAE@ABU?$less@V?$basic_string@DU?$char_traits@D@std@@V?$allocator@D@2@@std@@@1@ABV?$allocator@U?$pair@$$CBV?$basic_string@DU?$char_traits@D@std@@V?$allocator@D@2@@std@@PAVCLbDlg@@@std@@@1@@Z 004558d0 f i PrpLb.obj
 0001:00054970       ?insert@?$_Tree@V?$_Tmap_traits@V?$basic_string@DU?$char_traits@D@std@@V?$allocator@D@2@@std@@PAVCLbDlg@@U?$less@V?$basic_string@DU?$char_traits@D@std@@V?$allocator@D@2@@std@@@2@V?$allocator@U?$pair@$$CBV?$basic_string@DU?$char_traits@D@std@@V?$allocator@D@2@@std@@PAVCLbDlg@@@std@@@2@$0A@@std@@@std@@QAE?AViterator@12@Vconst_iterator@12@ABU?$pair@$$CBV?$basic_string@DU?$char_traits@D@std@@V?$allocator@D@2@@std@@PAVCLbDlg@@@2@@Z 00455970 f i PrpLb.obj
 0001:00055110       ?lower_bound@?$_Tree@V?$_Tmap_traits@V?$basic_string@DU?$char_traits@D@std@@V?$allocator@D@2@@std@@PAVCLbDlg@@U?$less@V?$basic_string@DU?$char_traits@D@std@@V?$allocator@D@2@@std@@@2@V?$allocator@U?$pair@$$CBV?$basic_string@DU?$char_traits@D@std@@V?$allocator@D@2@@std@@PAVCLbDlg@@@std@@@2@$0A@@std@@@std@@QAE?AViterator@12@ABV?$basic_string@DU?$char_traits@D@std@@V?$allocator@D@2@@2@@Z 00456110 f i PrpLb.obj
 0001:00055160       ?_Tidy@?$_Tree@V?$_Tmap_traits@V?$basic_string@DU?$char_traits@D@std@@V?$allocator@D@2@@std@@PAVCLbDlg@@U?$less@V?$basic_string@DU?$char_traits@D@std@@V?$allocator@D@2@@std@@@2@V?$allocator@U?$pair@$$CBV?$basic_string@DU?$char_traits@D@std@@V?$allocator@D@2@@std@@PAVCLbDlg@@@std@@@2@$0A@@std@@@std@@IAEXXZ 00456160 f i PrpLb.obj
 0001:00055270       ?insert@?$_Tree@V?$_Tmap_traits@V?$basic_string@DU?$char_traits@D@std@@V?$allocator@D@2@@std@@PAVCLbDlg@@U?$less@V?$basic_string@DU?$char_traits@D@std@@V?$allocator@D@2@@std@@@2@V?$allocator@U?$pair@$$CBV?$basic_string@DU?$char_traits@D@std@@V?$allocator@D@2@@std@@PAVCLbDlg@@@std@@@2@$0A@@std@@@std@@QAE?AU?$pair@Viterator@?$_Tree@V?$_Tmap_traits@V?$basic_string@DU?$char_traits@D@std@@V?$allocator@D@2@@std@@PAVCLbDlg@@U?$less@V?$basic_string@DU?$char_traits@D@std@@V?$allocator@D@2@@std@@@2@V?$allocator@U?$pair@$$CBV?$basic_string@DU?$char_traits@D@std@@V?$allocator@D@2@@std@@PAVCLbDlg@@@std@@@2@$0A@@std@@@std@@_N@2@ABU?$pair@$$CBV?$basic_string@DU?$char_traits@D@std@@V?$allocator@D@2@@std@@PAVCLbDlg@@@2@@Z 00456270 f i PrpLb.obj
 0001:000554c0       ?erase@?$_Tree@V?$_Tmap_traits@V?$basic_string@DU?$char_traits@D@std@@V?$allocator@D@2@@std@@PAVCLbDlg@@U?$less@V?$basic_string@DU?$char_traits@D@std@@V?$allocator@D@2@@std@@@2@V?$allocator@U?$pair@$$CBV?$basic_string@DU?$char_traits@D@std@@V?$allocator@D@2@@std@@PAVCLbDlg@@@std@@@2@$0A@@std@@@std@@QAE?AViterator@12@Vconst_iterator@12@0@Z 004564c0 f i PrpLb.obj
 0001:000556c0       ?_Init@?$_Tree@V?$_Tmap_traits@V?$basic_string@DU?$char_traits@D@std@@V?$allocator@D@2@@std@@PAVCLbDlg@@U?$less@V?$basic_string@DU?$char_traits@D@std@@V?$allocator@D@2@@std@@@2@V?$allocator@U?$pair@$$CBV?$basic_string@DU?$char_traits@D@std@@V?$allocator@D@2@@std@@PAVCLbDlg@@@std@@@2@$0A@@std@@@std@@IAEXXZ 004566c0 f i PrpLb.obj
 0001:00055730       ?_Insert@?$_Tree@V?$_Tmap_traits@V?$basic_string@DU?$char_traits@D@std@@V?$allocator@D@2@@std@@PAVCLbDlg@@U?$less@V?$basic_string@DU?$char_traits@D@std@@V?$allocator@D@2@@std@@@2@V?$allocator@U?$pair@$$CBV?$basic_string@DU?$char_traits@D@std@@V?$allocator@D@2@@std@@PAVCLbDlg@@@std@@@2@$0A@@std@@@std@@IAE?AViterator@12@_NPAU_Node@?$_Tree_nod@V?$_Tmap_traits@V?$basic_string@DU?$char_traits@D@std@@V?$allocator@D@2@@std@@PAVCLbDlg@@U?$less@V?$basic_string@DU?$char_traits@D@std@@V?$allocator@D@2@@std@@@2@V?$allocator@U?$pair@$$CBV?$basic_string@DU?$char_traits@D@std@@V?$allocator@D@2@@std@@PAVCLbDlg@@@std@@@2@$0A@@std@@@2@ABU?$pair@$$CBV?$basic_string@DU?$char_traits@D@std@@V?$allocator@D@2@@std@@PAVCLbDlg@@@2@@Z 00456730 f i PrpLb.obj
 0001:00055b10       ?_Lbound@?$_Tree@V?$_Tmap_traits@V?$basic_string@DU?$char_traits@D@std@@V?$allocator@D@2@@std@@PAVCLbDlg@@U?$less@V?$basic_string@DU?$char_traits@D@std@@V?$allocator@D@2@@std@@@2@V?$allocator@U?$pair@$$CBV?$basic_string@DU?$char_traits@D@std@@V?$allocator@D@2@@std@@PAVCLbDlg@@@std@@@2@$0A@@std@@@std@@IBEPAU_Node@?$_Tree_nod@V?$_Tmap_traits@V?$basic_string@DU?$char_traits@D@std@@V?$allocator@D@2@@std@@PAVCLbDlg@@U?$less@V?$basic_string@DU?$char_traits@D@std@@V?$allocator@D@2@@std@@@2@V?$allocator@U?$pair@$$CBV?$basic_string@DU?$char_traits@D@std@@V?$allocator@D@2@@std@@PAVCLbDlg@@@std@@@2@$0A@@std@@@2@ABV?$basic_string@DU?$char_traits@D@std@@V?$allocator@D@2@@2@@Z 00456b10 f i PrpLb.obj
 0001:00055b80       ?erase@?$_Tree@V?$_Tmap_traits@V?$basic_string@DU?$char_traits@D@std@@V?$allocator@D@2@@std@@PAVCLbDlg@@U?$less@V?$basic_string@DU?$char_traits@D@std@@V?$allocator@D@2@@std@@@2@V?$allocator@U?$pair@$$CBV?$basic_string@DU?$char_traits@D@std@@V?$allocator@D@2@@std@@PAVCLbDlg@@@std@@@2@$0A@@std@@@std@@QAE?AViterator@12@Vconst_iterator@12@@Z 00456b80 f i PrpLb.obj
 0001:000561b0       ?clear@?$_Tree@V?$_Tmap_traits@V?$basic_string@DU?$char_traits@D@std@@V?$allocator@D@2@@std@@PAVCLbDlg@@U?$less@V?$basic_string@DU?$char_traits@D@std@@V?$allocator@D@2@@std@@@2@V?$allocator@U?$pair@$$CBV?$basic_string@DU?$char_traits@D@std@@V?$allocator@D@2@@std@@PAVCLbDlg@@@std@@@2@$0A@@std@@@std@@QAEXXZ 004571b0 f i PrpLb.obj
 0001:00056210       ?_Lrotate@?$_Tree@V?$_Tmap_traits@V?$basic_string@DU?$char_traits@D@std@@V?$allocator@D@2@@std@@PAVCLbDlg@@U?$less@V?$basic_string@DU?$char_traits@D@std@@V?$allocator@D@2@@std@@@2@V?$allocator@U?$pair@$$CBV?$basic_string@DU?$char_traits@D@std@@V?$allocator@D@2@@std@@PAVCLbDlg@@@std@@@2@$0A@@std@@@std@@IAEXPAU_Node@?$_Tree_nod@V?$_Tmap_traits@V?$basic_string@DU?$char_traits@D@std@@V?$allocator@D@2@@std@@PAVCLbDlg@@U?$less@V?$basic_string@DU?$char_traits@D@std@@V?$allocator@D@2@@std@@@2@V?$allocator@U?$pair@$$CBV?$basic_string@DU?$char_traits@D@std@@V?$allocator@D@2@@std@@PAVCLbDlg@@@std@@@2@$0A@@std@@@2@@Z 00457210 f i PrpLb.obj
 0001:000562c0       ?_Rrotate@?$_Tree@V?$_Tmap_traits@V?$basic_string@DU?$char_traits@D@std@@V?$allocator@D@2@@std@@PAVCLbDlg@@U?$less@V?$basic_string@DU?$char_traits@D@std@@V?$allocator@D@2@@std@@@2@V?$allocator@U?$pair@$$CBV?$basic_string@DU?$char_traits@D@std@@V?$allocator@D@2@@std@@PAVCLbDlg@@@std@@@2@$0A@@std@@@std@@IAEXPAU_Node@?$_Tree_nod@V?$_Tmap_traits@V?$basic_string@DU?$char_traits@D@std@@V?$allocator@D@2@@std@@PAVCLbDlg@@U?$less@V?$basic_string@DU?$char_traits@D@std@@V?$allocator@D@2@@std@@@2@V?$allocator@U?$pair@$$CBV?$basic_string@DU?$char_traits@D@std@@V?$allocator@D@2@@std@@PAVCLbDlg@@@std@@@2@$0A@@std@@@2@@Z 004572c0 f i PrpLb.obj
 0001:00056370       ?_Buynode@?$_Tree@V?$_Tmap_traits@V?$basic_string@DU?$char_traits@D@std@@V?$allocator@D@2@@std@@PAVCLbDlg@@U?$less@V?$basic_string@DU?$char_traits@D@std@@V?$allocator@D@2@@std@@@2@V?$allocator@U?$pair@$$CBV?$basic_string@DU?$char_traits@D@std@@V?$allocator@D@2@@std@@PAVCLbDlg@@@std@@@2@$0A@@std@@@std@@IAEPAU_Node@?$_Tree_nod@V?$_Tmap_traits@V?$basic_string@DU?$char_traits@D@std@@V?$allocator@D@2@@std@@PAVCLbDlg@@U?$less@V?$basic_string@DU?$char_traits@D@std@@V?$allocator@D@2@@std@@@2@V?$allocator@U?$pair@$$CBV?$basic_string@DU?$char_traits@D@std@@V?$allocator@D@2@@std@@PAVCLbDlg@@@std@@@2@$0A@@std@@@2@XZ 00457370 f i PrpLb.obj
 0001:000564c0       ?_Buynode@?$_Tree@V?$_Tmap_traits@V?$basic_string@DU?$char_traits@D@std@@V?$allocator@D@2@@std@@PAVCLbDlg@@U?$less@V?$basic_string@DU?$char_traits@D@std@@V?$allocator@D@2@@std@@@2@V?$allocator@U?$pair@$$CBV?$basic_string@DU?$char_traits@D@std@@V?$allocator@D@2@@std@@PAVCLbDlg@@@std@@@2@$0A@@std@@@std@@IAEPAU_Node@?$_Tree_nod@V?$_Tmap_traits@V?$basic_string@DU?$char_traits@D@std@@V?$allocator@D@2@@std@@PAVCLbDlg@@U?$less@V?$basic_string@DU?$char_traits@D@std@@V?$allocator@D@2@@std@@@2@V?$allocator@U?$pair@$$CBV?$basic_string@DU?$char_traits@D@std@@V?$allocator@D@2@@std@@PAVCLbDlg@@@std@@@2@$0A@@std@@@2@PAU342@00ABU?$pair@$$CBV?$basic_string@DU?$char_traits@D@std@@V?$allocator@D@2@@std@@PAVCLbDlg@@@2@D@Z 004574c0 f i PrpLb.obj
 0001:000565d0       ?_Dec@const_iterator@?$_Tree@V?$_Tmap_traits@V?$basic_string@DU?$char_traits@D@std@@V?$allocator@D@2@@std@@PAVCLbDlg@@U?$less@V?$basic_string@DU?$char_traits@D@std@@V?$allocator@D@2@@std@@@2@V?$allocator@U?$pair@$$CBV?$basic_string@DU?$char_traits@D@std@@V?$allocator@D@2@@std@@PAVCLbDlg@@@std@@@2@$0A@@std@@@std@@QAEXXZ 004575d0 f i PrpLb.obj
 0001:000566d0       ?_Inc@const_iterator@?$_Tree@V?$_Tmap_traits@V?$basic_string@DU?$char_traits@D@std@@V?$allocator@D@2@@std@@PAVCLbDlg@@U?$less@V?$basic_string@DU?$char_traits@D@std@@V?$allocator@D@2@@std@@@2@V?$allocator@U?$pair@$$CBV?$basic_string@DU?$char_traits@D@std@@V?$allocator@D@2@@std@@PAVCLbDlg@@@std@@@2@$0A@@std@@@std@@QAEXXZ 004576d0 f i PrpLb.obj
 0001:000567a0       ?_Erase@?$_Tree@V?$_Tmap_traits@V?$basic_string@DU?$char_traits@D@std@@V?$allocator@D@2@@std@@PAVCLbDlg@@U?$less@V?$basic_string@DU?$char_traits@D@std@@V?$allocator@D@2@@std@@@2@V?$allocator@U?$pair@$$CBV?$basic_string@DU?$char_traits@D@std@@V?$allocator@D@2@@std@@PAVCLbDlg@@@std@@@2@$0A@@std@@@std@@IAEXPAU_Node@?$_Tree_nod@V?$_Tmap_traits@V?$basic_string@DU?$char_traits@D@std@@V?$allocator@D@2@@std@@PAVCLbDlg@@U?$less@V?$basic_string@DU?$char_traits@D@std@@V?$allocator@D@2@@std@@@2@V?$allocator@U?$pair@$$CBV?$basic_string@DU?$char_traits@D@std@@V?$allocator@D@2@@std@@PAVCLbDlg@@@std@@@2@$0A@@std@@@2@@Z 004577a0 f i PrpLb.obj
 0001:00056820       ?allocate@?$allocator@U_Node@?$_Tree_nod@V?$_Tmap_traits@V?$basic_string@DU?$char_traits@D@std@@V?$allocator@D@2@@std@@PAVCLbDlg@@U?$less@V?$basic_string@DU?$char_traits@D@std@@V?$allocator@D@2@@std@@@2@V?$allocator@U?$pair@$$CBV?$basic_string@DU?$char_traits@D@std@@V?$allocator@D@2@@std@@PAVCLbDlg@@@std@@@2@$0A@@std@@@std@@@std@@QAEPAU_Node@?$_Tree_nod@V?$_Tmap_traits@V?$basic_string@DU?$char_traits@D@std@@V?$allocator@D@2@@std@@PAVCLbDlg@@U?$less@V?$basic_string@DU?$char_traits@D@std@@V?$allocator@D@2@@std@@@2@V?$allocator@U?$pair@$$CBV?$basic_string@DU?$char_traits@D@std@@V?$allocator@D@2@@std@@PAVCLbDlg@@@std@@@2@$0A@@std@@@2@I@Z 00457820 f i PrpLb.obj
 0001:00056840       ??$_Allocate@U_Node@?$_Tree_nod@V?$_Tmap_traits@V?$basic_string@DU?$char_traits@D@std@@V?$allocator@D@2@@std@@PAVCLbDlg@@U?$less@V?$basic_string@DU?$char_traits@D@std@@V?$allocator@D@2@@std@@@2@V?$allocator@U?$pair@$$CBV?$basic_string@DU?$char_traits@D@std@@V?$allocator@D@2@@std@@PAVCLbDlg@@@std@@@2@$0A@@std@@@std@@@std@@YAPAU_Node@?$_Tree_nod@V?$_Tmap_traits@V?$basic_string@DU?$char_traits@D@std@@V?$allocator@D@2@@std@@PAVCLbDlg@@U?$less@V?$basic_string@DU?$char_traits@D@std@@V?$allocator@D@2@@std@@@2@V?$allocator@U?$pair@$$CBV?$basic_string@DU?$char_traits@D@std@@V?$allocator@D@2@@std@@PAVCLbDlg@@@std@@@2@$0A@@std@@@0@IPAU120@@Z 00457840 f i PrpLb.obj
 0001:000568a0       ??0PrpListControl@@QAE@XZ  004578a0 f   PrpListCtrl.obj
 0001:00056960       ??_ECFont@@UAEPAXI@Z       00457960 f i PrpListCtrl.obj
 0001:00056960       ??_GCFont@@UAEPAXI@Z       00457960 f i PrpListCtrl.obj
 0001:000569a0       ??1CFont@@UAE@XZ           004579a0 f i PrpListCtrl.obj
 0001:000569c0       ??_GPrpListControl@@UAEPAXI@Z 004579c0 f i PrpListCtrl.obj
 0001:000569c0       ??_EPrpListControl@@UAEPAXI@Z 004579c0 f i PrpListCtrl.obj
 0001:000569f0       ??1PrpListControl@@UAE@XZ  004579f0 f   PrpListCtrl.obj
 0001:00056b30       ?GetMessageMap@PrpListControl@@MBEPBUAFX_MSGMAP@@XZ 00457b30 f   PrpListCtrl.obj
 0001:00056b40       ?GetThisMessageMap@PrpListControl@@KGPBUAFX_MSGMAP@@XZ 00457b40 f   PrpListCtrl.obj
 0001:00056b50       ?PreSubclassWindow@PrpListControl@@UAEXXZ 00457b50 f   PrpListCtrl.obj
 0001:00056be0       ?OnDestroy@PrpListControl@@IAEXXZ 00457be0 f   PrpListCtrl.obj
 0001:00056c10       ?OnSetFont@PrpListControl@@IAEJIJ@Z 00457c10 f   PrpListCtrl.obj
 0001:00056c80       ?MeasureItem@PrpListControl@@IAEXPAUtagMEASUREITEMSTRUCT@@@Z 00457c80 f   PrpListCtrl.obj
 0001:00056d10       ?DrawItem@PrpListControl@@MAEXPAUtagDRAWITEMSTRUCT@@@Z 00457d10 f   PrpListCtrl.obj
 0001:00057450       ?Initial@PrpListControl@@QAEXV?$CStringT@DV?$StrTraitMFC@DV?$ChTraitsCRT@D@ATL@@@@@ATL@@H0H@Z 00458450 f   PrpListCtrl.obj
 0001:00057590       ??_GCBitmap@@UAEPAXI@Z     00458590 f i PrpListCtrl.obj
 0001:00057590       ??_ECBitmap@@UAEPAXI@Z     00458590 f i PrpListCtrl.obj
 0001:000575d0       ??1CBitmap@@UAE@XZ         004585d0 f i PrpListCtrl.obj
 0001:000575f0       ?AddItem@PrpListControl@@QAEHV?$CStringT@DV?$StrTraitMFC@DV?$ChTraitsCRT@D@ATL@@@@@ATL@@0W4OPERATION_TYPE@@PAX@Z 004585f0 f   PrpListCtrl.obj
 0001:00057820       ?AddItem@PrpListControl@@QAEHV?$CStringT@DV?$StrTraitMFC@DV?$ChTraitsCRT@D@ATL@@@@@ATL@@HW4OPERATION_TYPE@@PAX@Z 00458820 f   PrpListCtrl.obj
 0001:00057930       ?GetCellRect@PrpListControl@@IAE?AVCRect@@HH@Z 00458930 f   PrpListCtrl.obj
 0001:00057a50       ?FindTextA@PrpListControl@@IAE?AV?$CStringT@DV?$StrTraitMFC@DV?$ChTraitsCRT@D@ATL@@@@@ATL@@HPAVCMyLParam@@@Z 00458a50 f   PrpListCtrl.obj
 0001:00057c20       ?SetRelatedInfo@PrpListControl@@IAEPAXW4OPERATION_TYPE@@PAXV?$CStringT@DV?$StrTraitMFC@DV?$ChTraitsCRT@D@ATL@@@@@ATL@@@Z 00458c20 f   PrpListCtrl.obj
 0001:00057ea0       ??_ECMyLParam@@UAEPAXI@Z   00458ea0 f i PrpListCtrl.obj
 0001:00057ea0       ??_GCMyLParam@@UAEPAXI@Z   00458ea0 f i PrpListCtrl.obj
 0001:00057ed0       ?DataPassing@PrpListControl@@IAEXPAVCStringList@@0@Z 00458ed0 f   PrpListCtrl.obj
 0001:00057f30       ?FontPassing@PrpListControl@@QAEXPAUtagLOGFONTA@@0@Z 00458f30 f   PrpListCtrl.obj
 0001:00057ff0       ?DeleteAllItems@PrpListControl@@QAEHXZ 00458ff0 f   PrpListCtrl.obj
 0001:00058030       ?DeleteItem@PrpListControl@@QAEHH@Z 00459030 f   PrpListCtrl.obj
 0001:00058120       ?GetMyLParam@PrpListControl@@IAEPAVCMyLParam@@H@Z 00459120 f   PrpListCtrl.obj
 0001:00058160       ?GetData@PrpListControl@@QAEHHAAW4OPERATION_TYPE@@AAV?$CStringT@DV?$StrTraitMFC@DV?$ChTraitsCRT@D@ATL@@@@@ATL@@1AAPAX@Z 00459160 f   PrpListCtrl.obj
 0001:00058330       ?OnClick@PrpListControl@@IAEXPAUtagNMHDR@@PAJ@Z 00459330 f   PrpListCtrl.obj
 0001:000587f0       ?OperateBOOL@PrpListControl@@IAEXHAAPAVCMyLParam@@@Z 004597f0 f   PrpListCtrl.obj
 0001:00058860       ?OperateFont@PrpListControl@@IAEXHVCRect@@AAPAVCMyLParam@@@Z 00459860 f   PrpListCtrl.obj
 0001:00058970       ??1CPageSetupDialog@@UAE@XZ 00459970 f i CCrystalTextView.obj
 0001:00058970       ??1CColorDialog@@UAE@XZ    00459970 f i PrpLb.obj
 0001:00058970       ??1CFontDialog@@UAE@XZ     00459970 f i PrpListCtrl.obj
 0001:00058990       ?OperateColor@PrpListControl@@IAEXHVCRect@@AAPAVCMyLParam@@@Z 00459990 f   PrpListCtrl.obj
 0001:00058aa0       ?OperateSpinInt@PrpListControl@@IAEXHH@Z 00459aa0 f   PrpListCtrl.obj
 0001:00058b70       ?OperateSpinLong@PrpListControl@@IAEXHH@Z 00459b70 f   PrpListCtrl.obj
 0001:00058c40       ?OperateFile@PrpListControl@@IAEXHVCRect@@@Z 00459c40 f   PrpListCtrl.obj
 0001:00058d90       ?OperateEditBox@PrpListControl@@IAEXHVCRect@@PAVCMyLParam@@@Z 00459d90 f   PrpListCtrl.obj
 0001:00058fb0       ?OperateComboBox@PrpListControl@@IAEXHVCRect@@PAVCMyLParam@@@Z 00459fb0 f   PrpListCtrl.obj
 0001:00059280       ?OnUserMessageNotify@PrpListControl@@IAEJJI@Z 0045a280 f   PrpListCtrl.obj
 0001:000592d0       ?UpdateEditBox@PrpListControl@@IAEXH@Z 0045a2d0 f   PrpListCtrl.obj
 0001:000594d0       ?UpdateComboBox@PrpListControl@@IAEXH@Z 0045a4d0 f   PrpListCtrl.obj
 0001:000595a0       ?DrawDownButton@PrpListControl@@IAEXAAVCRect@@@Z 0045a5a0 f   PrpListCtrl.obj
 0001:00059670       ?OnEraseBkgnd@PrpListControl@@IAEHPAVCDC@@@Z 0045a670 f   PrpListCtrl.obj
 0001:000596f0       ??0CMyEdit@@QAE@XZ         0045a6f0 f   PrpListCtrl.obj
 0001:00059730       ??_GCMyEdit@@UAEPAXI@Z     0045a730 f i PrpListCtrl.obj
 0001:00059730       ??_ECMyEdit@@UAEPAXI@Z     0045a730 f i PrpListCtrl.obj
 0001:00059760       ??1CMyEdit@@UAE@XZ         0045a760 f   PrpListCtrl.obj
 0001:00059780       ?GetMessageMap@CMyEdit@@MBEPBUAFX_MSGMAP@@XZ 0045a780 f   PrpListCtrl.obj
 0001:00059790       ?GetThisMessageMap@CMyEdit@@KGPBUAFX_MSGMAP@@XZ 0045a790 f   PrpListCtrl.obj
 0001:000597a0       ?Create@CMyEdit@@QAEHPAVCWnd@@VCRect@@H@Z 0045a7a0 f   PrpListCtrl.obj
 0001:00059800       ?OnKillFocus@CMyEdit@@IAEXPAVCWnd@@@Z 0045a800 f   PrpListCtrl.obj
 0001:00059860       ?PreTranslateMessage@CMyComboBox@@UAEHPAUtagMSG@@@Z 0045a860 f   PrpListCtrl.obj
 0001:00059860       ?PreTranslateMessage@CMyEdit@@UAEHPAUtagMSG@@@Z 0045a860 f   PrpListCtrl.obj
 0001:000598d0       ??0CMyComboBox@@QAE@XZ     0045a8d0 f   PrpListCtrl.obj
 0001:00059910       ??_GCMyComboBox@@UAEPAXI@Z 0045a910 f i PrpListCtrl.obj
 0001:00059910       ??_ECMyComboBox@@UAEPAXI@Z 0045a910 f i PrpListCtrl.obj
 0001:00059940       ??1CMyComboBox@@UAE@XZ     0045a940 f   PrpListCtrl.obj
 0001:00059960       ?GetMessageMap@CMyComboBox@@MBEPBUAFX_MSGMAP@@XZ 0045a960 f   PrpListCtrl.obj
 0001:00059970       ?GetThisMessageMap@CMyComboBox@@KGPBUAFX_MSGMAP@@XZ 0045a970 f   PrpListCtrl.obj
 0001:00059980       ?Create@CMyComboBox@@QAEHPAVCWnd@@VCRect@@H@Z 0045a980 f   PrpListCtrl.obj
 0001:000599d0       ?OnKillFocus@CMyComboBox@@IAEXPAVCWnd@@@Z 0045a9d0 f   PrpListCtrl.obj
 0001:00059a30       ??0?$CStringT@DV?$StrTraitMFC@DV?$ChTraitsCRT@D@ATL@@@@@ATL@@QAE@PBD@Z 0045aa30 f i PrpListCtrl.obj
 0001:00059b10       ?CheckImplicitLoad@?$CStringT@DV?$StrTraitMFC@DV?$ChTraitsCRT@D@ATL@@@@@ATL@@AAE_NPBX@Z 0045ab10 f i PrpListCtrl.obj
 0001:00059b80       ?LoadStringA@?$CStringT@DV?$StrTraitMFC@DV?$ChTraitsCRT@D@ATL@@@@@ATL@@QAEHPAUHINSTANCE__@@I@Z 0045ab80 f i PrpListCtrl.obj
 0001:00059cc0       ?_AtlGetStringResourceImage@ATL@@YAPBUATLSTRINGRESOURCEIMAGE@1@PAUHINSTANCE__@@PAUHRSRC__@@I@Z 0045acc0 f i PrpListCtrl.obj
 0001:00059d70       ??0CRepLBox@@QAE@XZ        0045ad70 f   RepLBox.obj
 0001:00059dc0       ??_GCRepLBox@@UAEPAXI@Z    0045adc0 f i RepLBox.obj
 0001:00059dc0       ??_ECRepLBox@@UAEPAXI@Z    0045adc0 f i RepLBox.obj
 0001:00059df0       ??1CRepLBox@@UAE@XZ        0045adf0 f   RepLBox.obj
 0001:00059e60       ?GetMessageMap@CRepLBox@@MBEPBUAFX_MSGMAP@@XZ 0045ae60 f   RepLBox.obj
 0001:00059e70       ?GetThisMessageMap@CRepLBox@@KGPBUAFX_MSGMAP@@XZ 0045ae70 f   RepLBox.obj
 0001:00059e80       ?DrawItem@CRepLBox@@UAEXPAUtagDRAWITEMSTRUCT@@@Z 0045ae80 f   RepLBox.obj
 0001:0005a070       ?PreSubclassWindow@CRepLBox@@MAEXXZ 0045b070 f   RepLBox.obj
 0001:0005a0c0       ?OnDblclk@CRepLBox@@IAEXXZ 0045b0c0 f   RepLBox.obj
 0001:0005a1e0       ?OnDestroy@CRepLBox@@IAEXXZ 0045b1e0 f   RepLBox.obj
 0001:0005a200       ?CtlColor@CRepLBox@@IAEPAUHBRUSH__@@PAVCDC@@I@Z 0045b200 f   RepLBox.obj
 0001:0005a230       ?find@?$_Tree@V?$_Tmap_traits@HVV3@@U?$less@H@std@@V?$allocator@U?$pair@$$CBHVV3@@@std@@@3@$0A@@std@@@std@@QAE?AViterator@12@ABH@Z 0045b230 f i RepLBox.obj
 0001:0005a340       ?_Lbound@?$_Tree@V?$_Tmap_traits@HVV3@@U?$less@H@std@@V?$allocator@U?$pair@$$CBHVV3@@@std@@@3@$0A@@std@@@std@@IBEPAU_Node@?$_Tree_nod@V?$_Tmap_traits@HVV3@@U?$less@H@std@@V?$allocator@U?$pair@$$CBHVV3@@@std@@@3@$0A@@std@@@2@ABH@Z 0045b340 f i RepLBox.obj
 0001:0005a3b0       ?GetMessageMap@CStaticGL@@MBEPBUAFX_MSGMAP@@XZ 0045b3b0 f   StaticGL.obj
 0001:0005a3c0       ?GetThisMessageMap@CStaticGL@@KGPBUAFX_MSGMAP@@XZ 0045b3c0 f   StaticGL.obj
 0001:0005a3d0       ?CreateWnd@CStaticGL@@QAEHPAVCWnd@@I@Z 0045b3d0 f   StaticGL.obj
 0001:0005a540       ?OnCreate@CStaticGL@@IAEHPAUtagCREATESTRUCTA@@@Z 0045b540 f   StaticGL.obj
 0001:0005a810       ?InitialUpdate@CStaticGL@@QAEXXZ 0045b810 f   StaticGL.obj
 0001:0005aca0       ?OnDestroy@CStaticGL@@IAEXXZ 0045bca0 f   StaticGL.obj
 0001:0005ad00       ?OnPaint@CStaticGL@@IAEXXZ 0045bd00 f   StaticGL.obj
 0001:0005ad70       ?OnMouseMove@CStaticGL@@IAEXIVCPoint@@@Z 0045bd70 f   StaticGL.obj
 0001:0005b940       ?OnLButtonDown@CStaticGL@@IAEXIVCPoint@@@Z 0045c940 f   StaticGL.obj
 0001:0005ba70       ?OnLButtonUp@CStaticGL@@IAEXIVCPoint@@@Z 0045ca70 f   StaticGL.obj
 0001:0005bb60       ?OnRButtonDown@CStaticGL@@IAEXIVCPoint@@@Z 0045cb60 f   StaticGL.obj
 0001:0005bc70       ?OnRButtonUp@CStaticGL@@IAEXIVCPoint@@@Z 0045cc70 f   StaticGL.obj
 0001:0005bd30       ?PreTranslateMessage@CStaticGL@@UAEHPAUtagMSG@@@Z 0045cd30 f   StaticGL.obj
 0001:0005bdd0       ?GLPaint@CStaticGL@@QAEXXZ 0045cdd0 f   StaticGL.obj
 0001:0005c4b0       ?OnSetCursor@CStaticGL@@IAEHPAVCWnd@@II@Z 0045d4b0 f   StaticGL.obj
 0001:0005c530       ?OnSize@CStaticGL@@IAEXIHH@Z 0045d530 f   StaticGL.obj
 0001:0005c5b0       ?Perspective@CStaticGL@@IAEXHH@Z 0045d5b0 f   StaticGL.obj
 0001:0005c9e0       ?Wnd2World2@CStaticGL@@QAE?AVV3@@HH@Z 0045d9e0 f   StaticGL.obj
 0001:0005cb90       ?Wnd2World@CStaticGL@@QAEMMD@Z 0045db90 f   StaticGL.obj
 0001:0005cc70       ?DrawGrids@CStaticGL@@QAEXXZ 0045dc70 f   StaticGL.obj
 0001:0005cf10       ?DrawViewModes@CStaticGL@@QAEXXZ 0045df10 f   StaticGL.obj
 0001:0005d1a0       ?UpdateButSels@CStaticGL@@QAEXXZ 0045e1a0 f   StaticGL.obj
 0001:0005d470       ?TestButtons@CStaticGL@@IAEHAAVCPoint@@H@Z 0045e470 f   StaticGL.obj
 0001:0005ddc0       ?Bind@Tadapt@@QAEHAAVHtex@@K@Z 0045edc0 f   TexAdapter.obj
 0001:0005dfb0       ?Bind@Tadapt@@QAEHABVTexCarrier@@H@Z 0045efb0 f   TexAdapter.obj
 0001:0005dff0       ?GetMessageMap@CTexLbox@@MBEPBUAFX_MSGMAP@@XZ 0045eff0 f   TexLbox.obj
 0001:0005e000       ?GetThisMessageMap@CTexLbox@@KGPBUAFX_MSGMAP@@XZ 0045f000 f   TexLbox.obj
 0001:0005e010       ?PreSubclassWindow@CTexLbox@@MAEXXZ 0045f010 f   TexLbox.obj
 0001:0005e0f0       ?DrawItem@CTexLbox@@MAEXPAUtagDRAWITEMSTRUCT@@@Z 0045f0f0 f   TexLbox.obj
 0001:0005eb50       ?MeasureItem@CTexLbox@@MAEXPAUtagMEASUREITEMSTRUCT@@@Z 0045fb50 f   TexLbox.obj
 0001:0005ebd0       ?OnRButtonDown@CTexLbox@@IAEXIVCPoint@@@Z 0045fbd0 f   TexLbox.obj
 0001:0005ec60       ??1DlgResBrowser@@UAE@XZ   0045fc60 f i TexLbox.obj
 0001:0005ed80       ??1CTexLbox@@UAE@XZ        0045fd80 f i TexLbox.obj
 0001:0005ee40       ??_GCTexLbox@@UAEPAXI@Z    0045fe40 f i TexLbox.obj
 0001:0005ee40       ??_ECTexLbox@@UAEPAXI@Z    0045fe40 f i TexLbox.obj
 0001:0005ee70       ??1CarryTex@@QAE@XZ        0045fe70 f i TexLbox.obj
 0001:0005ee90       ?OnCommand@CTexLbox@@MAEHIJ@Z 0045fe90 f   TexLbox.obj
 0001:0005eeb0       ?OnLButtonUp@CWnd@@IAEXIVCPoint@@@Z 0045feb0 f   AboutDlg.obj
 0001:0005eeb0       ?OnKeyDown@DlgEditor2D@@IAEXIII@Z 0045feb0 f   DlgEditor2D.obj
 0001:0005eeb0       ?OnLButtonDown@CWnd@@IAEXIVCPoint@@@Z 0045feb0 f   DlgTexMody.obj
 0001:0005eeb0       ?OnMButtonUp@CStaticGL@@IAEXIVCPoint@@@Z 0045feb0 f   StaticGL.obj
 0001:0005eeb0       ?OnLButtonDown@CLbDlg@@IAEXIVCPoint@@@Z 0045feb0 f   PrpLb.obj
 0001:0005eeb0       ?OnKeyDown@CWnd@@IAEXIII@Z 0045feb0 f   PrpLb.obj
 0001:0005eeb0       ?OnSetCursor@DlgEditor2D@@IAEHPAVCWnd@@II@Z 0045feb0 f   DlgEditor2D.obj
 0001:0005eeb0       ?OnLButtonDown@CTexLbox@@IAEXIVCPoint@@@Z 0045feb0 f   TexLbox.obj
 0001:0005eeb0       ?OnSetCursor@CAboutDlg@@IAEHPAVCWnd@@II@Z 0045feb0 f   AboutDlg.obj
 0001:0005eeb0       ?OnMButtonDown@CStaticGL@@IAEXIVCPoint@@@Z 0045feb0 f   StaticGL.obj
 0001:0005eed0       ?findelement@?$vvector@V?$basic_string@DU?$char_traits@D@std@@V?$allocator@D@2@@std@@@@QAE?AV?$_Vector_iterator@V?$basic_string@DU?$char_traits@D@std@@V?$allocator@D@2@@std@@V?$allocator@V?$basic_string@DU?$char_traits@D@std@@V?$allocator@D@2@@std@@@2@@std@@AAV?$basic_string@DU?$char_traits@D@std@@V?$allocator@D@2@@3@@Z 0045fed0 f i TexLbox.obj
 0001:0005eff0       ??_9CTexLbox@@$BBEE@AE     0045fff0 f i TexLbox.obj
 0001:0005f000       ??_9CTexLbox@@$BBEA@AE     00460000 f i TexLbox.obj
 0001:0005f010       ?MakeCurrent@@YAXD@Z       00460010 f   TexRef.obj
 0001:0005f2a0       ?MakeCurrent@@YAXPAUHDC__@@PAUHGLRC__@@@Z 004602a0 f   TexRef.obj
 0001:0005f2f0       ?RemoveTex@TexRef@@SAXPAVHtex@@H@Z 004602f0 f   TexRef.obj
 0001:0005f370       ?GlGenTex@TexRef@@SA?AVHtex@@HHHPAEK@Z 00460370 f   TexRef.obj
 0001:0005f4b0       ?Local_LoadBytes@@YAXPAE0HHHHH@Z 004604b0 f   TexRef.obj
 0001:0005f520       ?_GlGenTex@TexRef@@SA?AVHtex@@HHHPAEK@Z 00460520 f   TexRef.obj
 0001:0005ff50       ?LoadRCTexture@TexRef@@SA?AVHtex@@PBDHHPAE@Z 00460f50 f   TexRef.obj
 0001:00060120       ?Clear@TexRef@@SAXH@Z      00461120 f   TexRef.obj
 0001:00060150       ?GlLmapMode@TexRef@@SAXH@Z 00461150 f   TexRef.obj
 0001:000601b0       ?GlDecalMode@TexRef@@SAXH@Z 004611b0 f   TexRef.obj
 0001:00060210       ?GlHalloMode@TexRef@@SAXH@Z 00461210 f   TexRef.obj
 0001:00060270       ?GlDetailMode@TexRef@@SAXH@Z 00461270 f   TexRef.obj
 0001:00060330       ??0SmartTex@@QAE@XZ        00461330 f   TexRef.obj
 0001:00060390       ??_GSmartTex@@UAEPAXI@Z    00461390 f i TexRef.obj
 0001:00060390       ??_ESmartTex@@UAEPAXI@Z    00461390 f i TexRef.obj
 0001:000603c0       ??1SmartTex@@UAE@XZ        004613c0 f   TexRef.obj
 0001:00060420       ??4SmartTex@@QAEAAV0@ABV0@@Z 00461420 f   TexRef.obj
 0001:00060540       ??4SmartTex@@QAEAAV0@ABVHtex@@@Z 00461540 f   TexRef.obj
 0001:000605e0       ?Assign@SmartTex@@QAEAAV1@PBDK@Z 004615e0 f   TexRef.obj
 0001:00060750       ?Reset@SmartTex@@QAEXXZ    00461750 f   TexRef.obj
 0001:00060770       ?Clear@SmartTex@@AAEXXZ    00461770 f   TexRef.obj
 0001:00060810       ?texture_fopen@@YAPAU_iobuf@@PBD0@Z 00461810 f   texsys.obj
 0001:00060a00       ??0TexHandler@@QAE@XZ      00461a00 f   texsys.obj
 0001:00060a60       ??1TexHandler@@UAE@XZ      00461a60 f   texsys.obj
 0001:00060a80       ?CreateBuffer@TexHandler@@IAEHHHH@Z 00461a80 f   texsys.obj
 0001:00060bc0       ?Resize@TexHandler@@SAXHPAEHH0HH@Z 00461bc0 f   texsys.obj
 0001:00060c90       ?SwapRB@TexHandler@@SAXPAEHHH@Z 00461c90 f   texsys.obj
 0001:00060d00       ?SwapRB@TexHandler@@QAEXXZ 00461d00 f   texsys.obj
 0001:00060d70       ?LoadThisFile@TexHandler@@QAEHPBDK@Z 00461d70 f   texsys.obj
 0001:00060ea0       ?LoadFile@TexHandler@@QAEHPBDK@Z 00461ea0 f   texsys.obj
 0001:00061040       ?LoadFile2@TexHandler@@IAEHPBDK@Z 00462040 f   texsys.obj
 0001:000610f0       ?LoadJpegFile@TexHandler@@IAEHPBDK@Z 004620f0 f   texsys.obj
 0001:000611f0       ?LoadTgaFile@TexHandler@@IAEHPBDK@Z 004621f0 f   texsys.obj
 0001:00061600       ?MakeBW@TexHandler@@QAEHXZ 00462600 f   texsys.obj
 0001:00061700       ?_GetPixel@TexHandler@@IAEHPAEHH@Z 00462700 f   texsys.obj
 0001:00061760       ?MakeDot3@TexHandler@@QAEHM@Z 00462760 f   texsys.obj
 0001:00061c60       ?Deallocate@TexHandler@@IAEXXZ 00462c60 f   texsys.obj
 0001:00061cc0       ?Allocate@TexHandler@@IAEPAPAEHH@Z 00462cc0 f   texsys.obj
 0001:00061d70       ?LoadBmpFile@TexHandler@@IAEHPBDK@Z 00462d70 f   texsys.obj
 0001:000620d0       ?LoadBMP1bit@TexHandler@@IAEHPAU_iobuf@@AAUtagBITMAPFILEHEADER@@AAUtagBITMAPINFOHEADER@@@Z 004630d0 f   texsys.obj
 0001:00062300       ?LoadBMP4bit@TexHandler@@IAEHPAU_iobuf@@AAUtagBITMAPFILEHEADER@@AAUtagBITMAPINFOHEADER@@@Z 00463300 f   texsys.obj
 0001:00062520       ?LoadBMP8bit@TexHandler@@IAEHPAU_iobuf@@AAUtagBITMAPFILEHEADER@@AAUtagBITMAPINFOHEADER@@@Z 00463520 f   texsys.obj
 0001:000627c0       ?GenTexture@TexSys@@QAEAAVHtex@@PBDHHHPAEK@Z 004637c0 f   texsys.obj
 0001:00062a60       ??4Texture@@QAEAAU0@ABU0@@Z 00463a60 f i texsys.obj
 0001:00062b10       ?AddTextureFile@TexSys@@QAEAAVHtex@@PBDK@Z 00463b10 f   texsys.obj
 0001:00062f00       ?Assign@TexSys@@QAEAAVHtex@@PBDK@Z 00463f00 f   texsys.obj
 0001:00062f20       ?RemoveTexture@TexSys@@QAEXAAVHtex@@H@Z 00463f20 f   texsys.obj
 0001:00063050       ?Clean@TexSys@@QAEXXZ      00464050 f   texsys.obj
 0001:00063120       ?GetTempTexture@TexSys@@QAEPAUTexture@@PBDK@Z 00464120 f   texsys.obj
 0001:00063230       ?GetTexName@TexSys@@QAEPBDAAVHtex@@@Z 00464230 f   texsys.obj
 0001:000632f0       ?Invert@TexHandler@@QAEXXZ 004642f0 f   texsys.obj
 0001:000633e0       ?AlphaIt@TexHandler@@QAEXE@Z 004643e0 f   texsys.obj
 0001:00063510       ??A?$map@V?$basic_string@DU?$char_traits@D@std@@V?$allocator@D@2@@std@@UTexture@@U?$less@V?$basic_string@DU?$char_traits@D@std@@V?$allocator@D@2@@std@@@2@V?$allocator@U?$pair@$$CBV?$basic_string@DU?$char_traits@D@std@@V?$allocator@D@2@@std@@UTexture@@@std@@@2@@std@@QAEAAUTexture@@ABV?$basic_string@DU?$char_traits@D@std@@V?$allocator@D@2@@1@@Z 00464510 f i texsys.obj
 0001:00063720       ?begin@?$_Tree@V?$_Tset_traits@PAVBrush@@U?$less@PAVBrush@@@std@@V?$allocator@PAVBrush@@@3@$0A@@std@@@std@@QAE?AViterator@12@XZ 00464720 f i DialogEvalDets.obj
 0001:00063720       ?begin@?$_Tree@V?$_Tmap_traits@V?$basic_string@DU?$char_traits@D@std@@V?$allocator@D@2@@std@@UTexture@@U?$less@V?$basic_string@DU?$char_traits@D@std@@V?$allocator@D@2@@std@@@2@V?$allocator@U?$pair@$$CBV?$basic_string@DU?$char_traits@D@std@@V?$allocator@D@2@@std@@UTexture@@@std@@@2@$0A@@std@@@std@@QAE?AViterator@12@XZ 00464720 f i texsys.obj
 0001:00063720       ?begin@?$_Tree@V?$_Tmap_traits@V?$basic_string@DU?$char_traits@D@std@@V?$allocator@D@2@@std@@U_Plg_Texture@@U?$less@V?$basic_string@DU?$char_traits@D@std@@V?$allocator@D@2@@std@@@2@V?$allocator@U?$pair@$$CBV?$basic_string@DU?$char_traits@D@std@@V?$allocator@D@2@@std@@U_Plg_Texture@@@std@@@2@$0A@@std@@@std@@QAE?AViterator@12@XZ 00464720 f i z_edmap.obj
 0001:00063770       ?erase@?$_Tree@V?$_Tmap_traits@V?$basic_string@DU?$char_traits@D@std@@V?$allocator@D@2@@std@@UTexture@@U?$less@V?$basic_string@DU?$char_traits@D@std@@V?$allocator@D@2@@std@@@2@V?$allocator@U?$pair@$$CBV?$basic_string@DU?$char_traits@D@std@@V?$allocator@D@2@@std@@UTexture@@@std@@@2@$0A@@std@@@std@@QAE?AViterator@12@Vconst_iterator@12@@Z 00464770 f i texsys.obj
 0001:00063da0       ?clear@?$_Tree@V?$_Tmap_traits@V?$basic_string@DU?$char_traits@D@std@@V?$allocator@D@2@@std@@UTexture@@U?$less@V?$basic_string@DU?$char_traits@D@std@@V?$allocator@D@2@@std@@@2@V?$allocator@U?$pair@$$CBV?$basic_string@DU?$char_traits@D@std@@V?$allocator@D@2@@std@@UTexture@@@std@@@2@$0A@@std@@@std@@QAEXXZ 00464da0 f i texsys.obj
 0001:00063e00       ?find@?$_Tree@V?$_Tmap_traits@V?$basic_string@DU?$char_traits@D@std@@V?$allocator@D@2@@std@@UTexture@@U?$less@V?$basic_string@DU?$char_traits@D@std@@V?$allocator@D@2@@std@@@2@V?$allocator@U?$pair@$$CBV?$basic_string@DU?$char_traits@D@std@@V?$allocator@D@2@@std@@UTexture@@@std@@@2@$0A@@std@@@std@@QAE?AViterator@12@ABV?$basic_string@DU?$char_traits@D@std@@V?$allocator@D@2@@2@@Z 00464e00 f i texsys.obj
 0001:00063f10       ?insert@?$_Tree@V?$_Tmap_traits@V?$basic_string@DU?$char_traits@D@std@@V?$allocator@D@2@@std@@UTexture@@U?$less@V?$basic_string@DU?$char_traits@D@std@@V?$allocator@D@2@@std@@@2@V?$allocator@U?$pair@$$CBV?$basic_string@DU?$char_traits@D@std@@V?$allocator@D@2@@std@@UTexture@@@std@@@2@$0A@@std@@@std@@QAE?AViterator@12@Vconst_iterator@12@ABU?$pair@$$CBV?$basic_string@DU?$char_traits@D@std@@V?$allocator@D@2@@std@@UTexture@@@2@@Z 00464f10 f i texsys.obj
 0001:000646b0       ?_Erase@?$_Tree@V?$_Tmap_traits@V?$basic_string@DU?$char_traits@D@std@@V?$allocator@D@2@@std@@UTexture@@U?$less@V?$basic_string@DU?$char_traits@D@std@@V?$allocator@D@2@@std@@@2@V?$allocator@U?$pair@$$CBV?$basic_string@DU?$char_traits@D@std@@V?$allocator@D@2@@std@@UTexture@@@std@@@2@$0A@@std@@@std@@IAEXPAU_Node@?$_Tree_nod@V?$_Tmap_traits@V?$basic_string@DU?$char_traits@D@std@@V?$allocator@D@2@@std@@UTexture@@U?$less@V?$basic_string@DU?$char_traits@D@std@@V?$allocator@D@2@@std@@@2@V?$allocator@U?$pair@$$CBV?$basic_string@DU?$char_traits@D@std@@V?$allocator@D@2@@std@@UTexture@@@std@@@2@$0A@@std@@@2@@Z 004656b0 f i texsys.obj
 0001:00064730       ?_Lrotate@?$_Tree@V?$_Tmap_traits@V?$basic_string@DU?$char_traits@D@std@@V?$allocator@D@2@@std@@UTexture@@U?$less@V?$basic_string@DU?$char_traits@D@std@@V?$allocator@D@2@@std@@@2@V?$allocator@U?$pair@$$CBV?$basic_string@DU?$char_traits@D@std@@V?$allocator@D@2@@std@@UTexture@@@std@@@2@$0A@@std@@@std@@IAEXPAU_Node@?$_Tree_nod@V?$_Tmap_traits@V?$basic_string@DU?$char_traits@D@std@@V?$allocator@D@2@@std@@UTexture@@U?$less@V?$basic_string@DU?$char_traits@D@std@@V?$allocator@D@2@@std@@@2@V?$allocator@U?$pair@$$CBV?$basic_string@DU?$char_traits@D@std@@V?$allocator@D@2@@std@@UTexture@@@std@@@2@$0A@@std@@@2@@Z 00465730 f i texsys.obj
 0001:000647e0       ?_Rrotate@?$_Tree@V?$_Tmap_traits@V?$basic_string@DU?$char_traits@D@std@@V?$allocator@D@2@@std@@UTexture@@U?$less@V?$basic_string@DU?$char_traits@D@std@@V?$allocator@D@2@@std@@@2@V?$allocator@U?$pair@$$CBV?$basic_string@DU?$char_traits@D@std@@V?$allocator@D@2@@std@@UTexture@@@std@@@2@$0A@@std@@@std@@IAEXPAU_Node@?$_Tree_nod@V?$_Tmap_traits@V?$basic_string@DU?$char_traits@D@std@@V?$allocator@D@2@@std@@UTexture@@U?$less@V?$basic_string@DU?$char_traits@D@std@@V?$allocator@D@2@@std@@@2@V?$allocator@U?$pair@$$CBV?$basic_string@DU?$char_traits@D@std@@V?$allocator@D@2@@std@@UTexture@@@std@@@2@$0A@@std@@@2@@Z 004657e0 f i texsys.obj
 0001:00064890       ??0Texture@@QAE@ABU0@@Z    00465890 f i texsys.obj
 0001:00064930       ?insert@?$_Tree@V?$_Tmap_traits@V?$basic_string@DU?$char_traits@D@std@@V?$allocator@D@2@@std@@UTexture@@U?$less@V?$basic_string@DU?$char_traits@D@std@@V?$allocator@D@2@@std@@@2@V?$allocator@U?$pair@$$CBV?$basic_string@DU?$char_traits@D@std@@V?$allocator@D@2@@std@@UTexture@@@std@@@2@$0A@@std@@@std@@QAE?AU?$pair@Viterator@?$_Tree@V?$_Tmap_traits@V?$basic_string@DU?$char_traits@D@std@@V?$allocator@D@2@@std@@UTexture@@U?$less@V?$basic_string@DU?$char_traits@D@std@@V?$allocator@D@2@@std@@@2@V?$allocator@U?$pair@$$CBV?$basic_string@DU?$char_traits@D@std@@V?$allocator@D@2@@std@@UTexture@@@std@@@2@$0A@@std@@@std@@_N@2@ABU?$pair@$$CBV?$basic_string@DU?$char_traits@D@std@@V?$allocator@D@2@@std@@UTexture@@@2@@Z 00465930 f i texsys.obj
 0001:00064b80       ?_Insert@?$_Tree@V?$_Tmap_traits@V?$basic_string@DU?$char_traits@D@std@@V?$allocator@D@2@@std@@UTexture@@U?$less@V?$basic_string@DU?$char_traits@D@std@@V?$allocator@D@2@@std@@@2@V?$allocator@U?$pair@$$CBV?$basic_string@DU?$char_traits@D@std@@V?$allocator@D@2@@std@@UTexture@@@std@@@2@$0A@@std@@@std@@IAE?AViterator@12@_NPAU_Node@?$_Tree_nod@V?$_Tmap_traits@V?$basic_string@DU?$char_traits@D@std@@V?$allocator@D@2@@std@@UTexture@@U?$less@V?$basic_string@DU?$char_traits@D@std@@V?$allocator@D@2@@std@@@2@V?$allocator@U?$pair@$$CBV?$basic_string@DU?$char_traits@D@std@@V?$allocator@D@2@@std@@UTexture@@@std@@@2@$0A@@std@@@2@ABU?$pair@$$CBV?$basic_string@DU?$char_traits@D@std@@V?$allocator@D@2@@std@@UTexture@@@2@@Z 00465b80 f i texsys.obj
 0001:00064f60       ?_Lbound@?$_Tree@V?$_Tmap_traits@V?$basic_string@DU?$char_traits@D@std@@V?$allocator@D@2@@std@@UTexture@@U?$less@V?$basic_string@DU?$char_traits@D@std@@V?$allocator@D@2@@std@@@2@V?$allocator@U?$pair@$$CBV?$basic_string@DU?$char_traits@D@std@@V?$allocator@D@2@@std@@UTexture@@@std@@@2@$0A@@std@@@std@@IBEPAU_Node@?$_Tree_nod@V?$_Tmap_traits@V?$basic_string@DU?$char_traits@D@std@@V?$allocator@D@2@@std@@UTexture@@U?$less@V?$basic_string@DU?$char_traits@D@std@@V?$allocator@D@2@@std@@@2@V?$allocator@U?$pair@$$CBV?$basic_string@DU?$char_traits@D@std@@V?$allocator@D@2@@std@@UTexture@@@std@@@2@$0A@@std@@@2@ABV?$basic_string@DU?$char_traits@D@std@@V?$allocator@D@2@@2@@Z 00465f60 f i texsys.obj
 0001:00064fd0       ?_Buynode@?$_Tree@V?$_Tmap_traits@V?$basic_string@DU?$char_traits@D@std@@V?$allocator@D@2@@std@@UTexture@@U?$less@V?$basic_string@DU?$char_traits@D@std@@V?$allocator@D@2@@std@@@2@V?$allocator@U?$pair@$$CBV?$basic_string@DU?$char_traits@D@std@@V?$allocator@D@2@@std@@UTexture@@@std@@@2@$0A@@std@@@std@@IAEPAU_Node@?$_Tree_nod@V?$_Tmap_traits@V?$basic_string@DU?$char_traits@D@std@@V?$allocator@D@2@@std@@UTexture@@U?$less@V?$basic_string@DU?$char_traits@D@std@@V?$allocator@D@2@@std@@@2@V?$allocator@U?$pair@$$CBV?$basic_string@DU?$char_traits@D@std@@V?$allocator@D@2@@std@@UTexture@@@std@@@2@$0A@@std@@@2@PAU342@00ABU?$pair@$$CBV?$basic_string@DU?$char_traits@D@std@@V?$allocator@D@2@@std@@UTexture@@@2@D@Z 00465fd0 f i texsys.obj
 0001:000650c0       ?_Dec@const_iterator@?$_Tree@V?$_Tmap_traits@V?$basic_string@DU?$char_traits@D@std@@V?$allocator@D@2@@std@@UTexture@@U?$less@V?$basic_string@DU?$char_traits@D@std@@V?$allocator@D@2@@std@@@2@V?$allocator@U?$pair@$$CBV?$basic_string@DU?$char_traits@D@std@@V?$allocator@D@2@@std@@UTexture@@@std@@@2@$0A@@std@@@std@@QAEXXZ 004660c0 f i texsys.obj
 0001:000651c0       ??0?$pair@$$CBV?$basic_string@DU?$char_traits@D@std@@V?$allocator@D@2@@std@@UTexture@@@std@@QAE@ABU01@@Z 004661c0 f i texsys.obj
 0001:00065240       ??$_Allocate@U_Node@?$_Tree_nod@V?$_Tmap_traits@V?$basic_string@DU?$char_traits@D@std@@V?$allocator@D@2@@std@@UTexture@@U?$less@V?$basic_string@DU?$char_traits@D@std@@V?$allocator@D@2@@std@@@2@V?$allocator@U?$pair@$$CBV?$basic_string@DU?$char_traits@D@std@@V?$allocator@D@2@@std@@UTexture@@@std@@@2@$0A@@std@@@std@@@std@@YAPAU_Node@?$_Tree_nod@V?$_Tmap_traits@V?$basic_string@DU?$char_traits@D@std@@V?$allocator@D@2@@std@@UTexture@@U?$less@V?$basic_string@DU?$char_traits@D@std@@V?$allocator@D@2@@std@@@2@V?$allocator@U?$pair@$$CBV?$basic_string@DU?$char_traits@D@std@@V?$allocator@D@2@@std@@UTexture@@@std@@@2@$0A@@std@@@0@IPAU120@@Z 00466240 f i texsys.obj
 0001:000652a0       ??0TreeScene@@QAE@XZ       004662a0 f   TreeScene.obj
 0001:00065310       ??_GTreeScene@@UAEPAXI@Z   00466310 f i TreeScene.obj
 0001:00065310       ??_ETreeScene@@UAEPAXI@Z   00466310 f i TreeScene.obj
 0001:00065340       ??1TreeScene@@UAE@XZ       00466340 f   TreeScene.obj
 0001:000653a0       ?GetMessageMap@TreeScene@@MBEPBUAFX_MSGMAP@@XZ 004663a0 f   TreeScene.obj
 0001:000653b0       ?GetThisMessageMap@TreeScene@@KGPBUAFX_MSGMAP@@XZ 004663b0 f   TreeScene.obj
 0001:000653c0       ?PreSubclassWindow@TreeScene@@MAEXXZ 004663c0 f   TreeScene.obj
 0001:00065460       ?_ClearRecord@CUndo@@AAEXAAURecord@1@@Z 00466460 f   Undo.obj
 0001:000654a0       ?Clear@CUndo@@QAEXXZ       004664a0 f   Undo.obj
 0001:000655c0       ?clear@?$vector@URecord@CUndo@@V?$allocator@URecord@CUndo@@@std@@@std@@QAEXXZ 004665c0 f i Undo.obj
 0001:000656b0       ?erase@?$vector@URecord@CUndo@@V?$allocator@URecord@CUndo@@@std@@@std@@QAE?AV?$_Vector_iterator@URecord@CUndo@@V?$allocator@URecord@CUndo@@@std@@@2@V?$_Vector_const_iterator@URecord@CUndo@@V?$allocator@URecord@CUndo@@@std@@@2@0@Z 004666b0 f i Undo.obj
 0001:000657b0       ??$unchecked_copy@PAURecord@CUndo@@PAU12@@stdext@@YAPAURecord@CUndo@@PAU12@00@Z 004667b0 f i Undo.obj
 0001:00065860       ??$_Allocate@VCRect@@@std@@YAPAVCRect@@IPAV1@@Z 00466860 f i VertDlgDlg.obj
 0001:00065860       ??$_Allocate@URecord@CUndo@@@std@@YAPAURecord@CUndo@@IPAU12@@Z 00466860 f i Undo.obj
 0001:00065860       ??$_Allocate@USpr@?$TaskClass@VBrush@@@@@std@@YAPAUSpr@?$TaskClass@VBrush@@@@IPAU12@@Z 00466860 f i brush.obj
 0001:000658c0       ??0CVertDlgDlg@@QAE@IPAVCWnd@@@Z 004668c0 f   VertDlgDlg.obj
 0001:00065970       ??_ECVertDlgDlg@@UAEPAXI@Z 00466970 f i VertDlgDlg.obj
 0001:00065970       ??_GCVertDlgDlg@@UAEPAXI@Z 00466970 f i VertDlgDlg.obj
 0001:00065a10       ?GetMessageMap@CVertDlgDlg@@MBEPBUAFX_MSGMAP@@XZ 00466a10 f   VertDlgDlg.obj
 0001:00065a20       ?GetThisMessageMap@CVertDlgDlg@@KGPBUAFX_MSGMAP@@XZ 00466a20 f   VertDlgDlg.obj
 0001:00065a30       ?OnInitDialog@CVertDlgDlg@@MAEHXZ 00466a30 f   VertDlgDlg.obj
 0001:00065b50       ?OnPaint@CVertDlgDlg@@IAEXXZ 00466b50 f   VertDlgDlg.obj
 0001:00065b70       ?OnQueryDragIcon@CVertDlgDlg@@IAEPAUHICON__@@XZ 00466b70 f   VertDlgDlg.obj
 0001:00065b90       ?HideAll@CDlgBar@@QAEXXZ   00466b90 f   DlgBar.obj
 0001:00065b90       ??1Plane@@QAE@XZ           00466b90 f   BspTree.obj
 0001:00065b90       ?On33@DlbRB@@IAEXXZ        00466b90 f   PrpLb.obj
 0001:00065b90       ?OnPlay@DlgSoundItem@@IAEXXZ 00466b90 f   DlgSoundItem.obj
 0001:00065b90       ?ConcaveConvex@CBspTree@@QAEXXZ 00466b90 f   BspTree.obj
 0001:00065b90       ?OnButton1@DlgNewItem@@IAEXXZ 00466b90 f   DlgNewItem.obj
 0001:00065b90       ?OnChangeMinpolys@CDlgGs@@IAEXXZ 00466b90 f   DlgGs.obj
 0001:00065b90       ?OnDeselect@DlbCKs@@UAEXXZ 00466b90 f   PrpLb.obj
 0001:00065b90       ?OnCancel@CLbDlg@@MAEXXZ   00466b90 f   PrpLb.obj
 0001:00065b90       ?OnDeselect@DlbCLR@@UAEXXZ 00466b90 f   PrpLb.obj
 0001:00065b90       ?OnSelchangeTk@CDlgTextures@@IAEXXZ 00466b90 f   DlgTextures.obj
 0001:00065b90       ?OnSelchangeProps@DlgGameItem@@IAEXXZ 00466b90 f   DlgGameItem.obj
 0001:00065b90       ?OnSaveas@DlgTexMody@@IAEXXZ 00466b90 f   DlgTexMody.obj
 0001:00065b90       ?OnDeselect@DlbEDIT@@UAEXXZ 00466b90 f   PrpLb.obj
 0001:00065b90       ?OnCancel@DlgTriggerItem@@MAEXXZ 00466b90 f   DlgTriggerItem.obj
 0001:00065b90       ?OnSelect@DlbRANGE@@UAEXXZ 00466b90 f   PrpLb.obj
 0001:00065b90       ?On22@DlbRB@@IAEXXZ        00466b90 f   PrpLb.obj
 0001:00065b90       ?OnChangeMaxdim@CDlgGs@@IAEXXZ 00466b90 f   DlgGs.obj
 0001:00065b90       ?OnSelect@DlbCKs@@UAEXXZ   00466b90 f   PrpLb.obj
 0001:00065b90       ?OnCancel@DlgGameItem@@MAEXXZ 00466b90 f   DlgGameItem.obj
 0001:00065b90       ??1Vtx2@@QAE@XZ            00466b90 f   PortalPRC.obj
 0001:00065b90       ?OnSpec@DlgFaceProp@@IAEXXZ 00466b90 f   DlgFaceProp.obj
 0001:00065b90       ?Dirty@CDlgTextures@@MAEXXZ 00466b90 f   DlgTextures.obj
 0001:00065b90       ?OnCancel@CDlgTextures@@MAEXXZ 00466b90 f   DlgTextures.obj
 0001:00065b90       ?OnSelect@DlbXyz@@UAEXXZ   00466b90 f   PrpLb.obj
 0001:00065b90       ?Apply@DlbRB@@UAEXXZ       00466b90 f   PrpLb.obj
 0001:00065b90       ?OnDeselect@DlbUV@@UAEXXZ  00466b90 f   PrpLb.obj
 0001:00065b90       ?OnOk@DlgBarScript@@IAEXXZ 00466b90 f   DlgBarScript.obj
 0001:00065b90       ??1Texture@@QAE@XZ         00466b90 f   texsys.obj
 0001:00065b90       ?Apply@CLbDlg@@UAEXXZ      00466b90 f   PrpLb.obj
 0001:00065b90       ?OnDeselect@DlbRANGE@@UAEXXZ 00466b90 f   PrpLb.obj
 0001:00065b90       ?Commit@SceItem@@UAEXXZ    00466b90 f   LightBulb.obj
 0001:00065b90       ?OnSelchange@CTexLbox@@IAEXXZ 00466b90 f   TexLbox.obj
 0001:00065b90       ?OnOk@CCompilerOutDlg@@IAEXXZ 00466b90 f   CompilerOutDlg.obj
 0001:00065b90       ?OnDeselect@DlbFILE@@UAEXXZ 00466b90 f   PrpLb.obj
 0001:00065b90       ?UndoLastTr@SceItem@@UAEXXZ 00466b90 f   DlgNewItem.obj
 0001:00065b90       ?On2dshape@CZ_ed2Doc@@QAEXXZ 00466b90 f   z_ed2DocMk.obj
 0001:00065b90       ?OnOk@CVertDlgDlg@@IAEXXZ  00466b90 f   VertDlgDlg.obj
 0001:00065b90       ?OnSpline@CZ_ed2Doc@@QAEXXZ 00466b90 f   z_ed2DocMk.obj
 0001:00065b90       ?OnSelect@DlbUV@@UAEXXZ    00466b90 f   PrpLb.obj
 0001:00065b90       ?OnDblclkList1@DlgItems@@IAEXXZ 00466b90 f   DlgItems.obj
 0001:00065b90       ?OnCancel@CCompilerOutDlg@@MAEXXZ 00466b90 f   CompilerOutDlg.obj
 0001:00065b90       ?OnSave@DlgTexMody@@IAEXXZ 00466b90 f   DlgTexMody.obj
 0001:00065b90       ?DomOnTexCoordChanged@CDlgTextures@@IAEXXZ 00466b90 f   DlgTextures.obj
 0001:00065b90       ?OnSelect@DlbCLR@@UAEXXZ   00466b90 f   PrpLb.obj
 0001:00065b90       ?OnDeselect@DlbXyz@@UAEXXZ 00466b90 f   PrpLb.obj
 0001:00065b90       ?OnDeselect@DlbEDSpin@@UAEXXZ 00466b90 f   PrpLb.obj
 0001:00065b90       ?OnDblclkPropscat@DlgGameItem@@IAEXXZ 00466b90 f   DlgGameItem.obj
 0001:00065b90       ?OnSelectgroup@CZ_ed2Doc@@QAEXXZ 00466b90 f   z_ed2Doc.obj
 0001:00065b90       ?OnTriangs@DlgBrshProp@@IAEXXZ 00466b90 f   DlgBrshProp.obj
 0001:00065b90       ?OnOK@CDlgConsole@@MAEXXZ  00466b90 f   DlgConsole.obj
 0001:00065b90       ?OnNegative@DlgTexMody@@IAEXXZ 00466b90 f   DlgTexMody.obj
 0001:00065b90       ?OnInsvx@CZ_ed2Doc@@QAEXXZ 00466b90 f   z_ed2Doc.obj
 0001:00065b90       ?OnOk@DlgTriggerItem@@IAEXXZ 00466b90 f   DlgTriggerItem.obj
 0001:00065b90       ?On11@DlbRB@@IAEXXZ        00466b90 f   PrpLb.obj
 0001:00065b90       ?DomOnRotate@CDlgTextures@@IAEXXZ 00466b90 f   DlgTextures.obj
 0001:00065b90       ?Finalize@MiniBsp@@UAEXXZ  00466b90 f   BspTree.obj
 0001:00065b90       ?OnConsole@CMainFrame@@IAEXXZ 00466b90 f   MainFrm.obj
 0001:00065b90       ?OnAction@CBaseDlg@@UAEXXZ 00466b90 f   DlgConsole.obj
 0001:00065b90       ?OnDeselect@DlbRB@@UAEXXZ  00466b90 f   PrpLb.obj
 0001:00065b90       ?OnScript@DlgBrshProp@@IAEXXZ 00466b90 f   DlgBrshProp.obj
 0001:00065b90       ?OnMask@DlgTexMody@@IAEXXZ 00466b90 f   DlgTexMody.obj
 0001:00065b90       ?OnDblclkPrefs@CStaticGL@@IAEXXZ 00466b90 f   StaticGL.obj
 0001:00065b90       ?OnOk@DlgClassItem@@IAEXXZ 00466b90 f   DlgClassItem.obj
 0001:00065b90       ??1Cwc@@QAE@XZ             00466b90 f   Compiler.obj
 0001:00065b90       ?OnSelect@DlbCB@@UAEXXZ    00466b90 f   PrpLb.obj
 0001:00065b90       ?OnCancel@CDlgGs@@MAEXXZ   00466b90 f   DlgGs.obj
 0001:00065b90       ?Commit@GameItem@@UAEXXZ   00466b90 f   GameItem.obj
 0001:00065b90       ??1_Container_base_aux@std@@QAE@XZ 00466b90 f   BspTree.obj
 0001:00065b90       ?OnWpncfg@CZ_ed2Doc@@QAEXXZ 00466b90 f   z_ed2Doc.obj
 0001:00065b90       ??1Htex@@QAE@XZ            00466b90 f   TerTree.obj
 0001:00065b90       ?OnChangeMindim@CDlgGs@@IAEXXZ 00466b90 f   DlgGs.obj
 0001:00065b90       ?OnSelchangeTgen@CDlgTextures@@IAEXXZ 00466b90 f   DlgTextures.obj
 0001:00065b90       ?OnEmmisive@DlgFaceProp@@IAEXXZ 00466b90 f   DlgFaceProp.obj
 0001:00065b90       ?OnCancel@CDlgScene@@MAEXXZ 00466b90 f   DlgScene.obj
 0001:00065b90       ?OnCancel@CVertDlgDlg@@MAEXXZ 00466b90 f   VertDlgDlg.obj
 0001:00065b90       ?_DrawCamera@CZ_ed2Doc@@IAEXXZ 00466b90 f   z_ed2DocDraw.obj
 0001:00065b90       ?OnSelect@DlbEDIT@@UAEXXZ  00466b90 f   PrpLb.obj
 0001:00065b90       ?OnDeselect@DlbCB@@UAEXXZ  00466b90 f   PrpLb.obj
 0001:00065b90       ?CompressPVS@PVSPrc@@AAEXXZ 00466b90 f   PVSPrc.obj
 0001:00065b90       ??1CObject@@UAE@XZ         00466b90 f   ColorButon.obj
 0001:00065b90       ?OnCancel@DlgLightItem@@MAEXXZ 00466b90 f   DlgLightItem.obj
 0001:00065b90       ?OnCloseup@CbTbarCombo@@QAEXXZ 00466b90 f   bTbarCombo.obj
 0001:00065b90       ?InitCommit@SceItem@@UAEXXZ 00466b90 f   LightBulb.obj
 0001:00065b90       ?OnClose@CCompilerOutDlg@@IAEXXZ 00466b90 f   CompilerOutDlg.obj
 0001:00065b90       ?OnSelect@DlbRB@@UAEXXZ    00466b90 f   PrpLb.obj
 0001:00065b90       ?OnClosedspline@CZ_ed2Doc@@QAEXXZ 00466b90 f   z_ed2DocMk.obj
 0001:00065b90       ?OnSelect@DlbFILE@@UAEXXZ  00466b90 f   PrpLb.obj
 0001:00065b90       ?OnSelect@DlbEDSpin@@UAEXXZ 00466b90 f   PrpLb.obj
 0001:00065b90       ?OnSelchangePrefs@CStaticGL@@IAEXXZ 00466b90 f   StaticGL.obj
 0001:00065b90       ?OnOK@CLbDlg@@MAEXXZ       00466b90 f   PrpLb.obj
 0001:00065b90       ?OnReverse@CDlgNewBrush@@IAEXXZ 00466b90 f   DlgNewBrush.obj
 0001:00065b90       ?OnCancel@DlgBarScript@@MAEXXZ 00466b90 f   DlgBarScript.obj
 0001:00065b90       ?EndEditor@CZ_ed2Doc@@QAEXXZ 00466b90 f   z_ed2Doc.obj
 0001:00065b90       ?SbarShowCurMode@CZ_ed2Doc@@QAEXXZ 00466b90 f   z_ed2Doc.obj
 0001:00065b90       ?OnExpanded@CVertDlgDlg@@MAEXXZ 00466b90 f   VertDlgDlg.obj
 0001:00065b90       ?OnSettingsPreferences@CMainFrame@@IAEXXZ 00466b90 f   MainFrm.obj
 0001:00065b90       ?OnSelchangeTf@CDlgTextures@@IAEXXZ 00466b90 f   DlgTextures.obj
 0001:00065b90       ?OnSelcurid@CZ_ed2Doc@@QAEXXZ 00466b90 f   z_ed2Doc.obj
 0001:00065b90       ?OnSelect@DlgResBrowser@@IAEXXZ 00466b90 f   DlgResBrowser.obj
 0001:00065b90       ?OnGen@CDlgBigTerrain@@IAEXXZ 00466b90 f   DlgBigTerrain.obj
 0001:00065b90       ?OnPaint@CPrpLb@@IAEXXZ    00466b90 f   PrpLb.obj
 0001:00065ba0       ?OnDestroy@CVertDlgDlg@@IAEXXZ 00466ba0 f   VertDlgDlg.obj
 0001:00065c80       ??1Group@CVertDlgDlg@@QAE@XZ 00466c80 f i VertDlgDlg.obj
 0001:00065d30       ?CreateGroups@CVertDlgDlg@@IAEXXZ 00466d30 f   VertDlgDlg.obj
 0001:00066370       ?UpdateControls@CVertDlgDlg@@IAEXXZ 00467370 f   VertDlgDlg.obj
 0001:00066970       ?EnableGroup@CVertDlgDlg@@IAEXIH@Z 00467970 f   VertDlgDlg.obj
 0001:00066aa0       ?Enable@CVertDlgDlg@@IAEXH@Z 00467aa0 f   VertDlgDlg.obj
 0001:00066b20       ?OnCommand@CVertDlgDlg@@MAEHIJ@Z 00467b20 f   VertDlgDlg.obj
 0001:00066cb0       ?OnLButtonDown@CVertDlgDlg@@IAEXIVCPoint@@@Z 00467cb0 f   VertDlgDlg.obj
 0001:00066d50       ?OnLButtonUp@CVertDlgDlg@@IAEXIVCPoint@@@Z 00467d50 f   VertDlgDlg.obj
 0001:00066dd0       ?OnMouseMove@CVertDlgDlg@@IAEXIVCPoint@@@Z 00467dd0 f   VertDlgDlg.obj
 0001:00066ee0       ?OnSetCursor@CVertDlgDlg@@IAEHPAVCWnd@@II@Z 00467ee0 f   VertDlgDlg.obj
 0001:00066f60       ?OnCtlColor@CDlgCompile@@IAEPAUHBRUSH__@@PAVCDC@@PAVCWnd@@I@Z 00467f60 f   DlgCompile.obj
 0001:00066f60       ?OnCtlColor@DlgEditor2D@@IAEPAUHBRUSH__@@PAVCDC@@PAVCWnd@@I@Z 00467f60 f   DlgEditor2D.obj
 0001:00066f60       ?OnCtlColor@CVertDlgDlg@@IAEPAUHBRUSH__@@PAVCDC@@PAVCWnd@@I@Z 00467f60 f   VertDlgDlg.obj
 0001:00066f90       ?Reset@CVertDlgDlg@@MAEXXZ 00467f90 f   VertDlgDlg.obj
 0001:00067150       ??0?$vector@URecord@CUndo@@V?$allocator@URecord@CUndo@@@std@@@std@@QAE@XZ 00468150 f i z_ed2Doc.obj
 0001:00067150       ??0?$vector@VCRect@@V?$allocator@VCRect@@@std@@@std@@QAE@XZ 00468150 f i VertDlgDlg.obj
 0001:00067230       ?push_back@?$vector@VCRect@@V?$allocator@VCRect@@@std@@@std@@QAEXABVCRect@@@Z 00468230 f i VertDlgDlg.obj
 0001:00067340       ?insert@?$vector@VCRect@@V?$allocator@VCRect@@@std@@@std@@QAE?AV?$_Vector_iterator@VCRect@@V?$allocator@VCRect@@@std@@@2@V?$_Vector_const_iterator@VCRect@@V?$allocator@VCRect@@@std@@@2@ABVCRect@@@Z 00468340 f i VertDlgDlg.obj
 0001:00067470       ?_Tidy@?$vector@VCRect@@V?$allocator@VCRect@@@std@@@std@@IAEXXZ 00468470 f i VertDlgDlg.obj
 0001:00067470       ?_Tidy@?$vector@URecord@CUndo@@V?$allocator@URecord@CUndo@@@std@@@std@@IAEXXZ 00468470 f i z_ed2Doc.obj
 0001:00067510       ?_Insert_n@?$vector@VCRect@@V?$allocator@VCRect@@@std@@@std@@IAEXV?$_Vector_const_iterator@VCRect@@V?$allocator@VCRect@@@std@@@2@IABVCRect@@@Z 00468510 f i VertDlgDlg.obj
 0001:00067d70       ??E?$_Vector_const_iterator@URecord@CUndo@@V?$allocator@URecord@CUndo@@@std@@@std@@QAEAAV01@XZ 00468d70 f i Undo.obj
 0001:00067d70       ??E?$_Vector_const_iterator@VCRect@@V?$allocator@VCRect@@@std@@@std@@QAEAAV01@XZ 00468d70 f i VertDlgDlg.obj
 0001:00067df0       ??Y?$_Vector_const_iterator@VCRect@@V?$allocator@VCRect@@@std@@@std@@QAEAAV01@H@Z 00468df0 f i VertDlgDlg.obj
 0001:00067eb0       ??$_Unchecked_move_backward@PAVCRect@@PAV1@@stdext@@YAPAVCRect@@PAV1@00@Z 00468eb0 f i VertDlgDlg.obj
 0001:00067f00       ??$_Uninit_fill_n@PAVCRect@@IV1@V?$allocator@VCRect@@@std@@@std@@YAXPAVCRect@@IABV1@AAV?$allocator@VCRect@@@0@U_Nonscalar_ptr_iterator_tag@0@U_Range_checked_iterator_tag@0@@Z 00468f00 f i VertDlgDlg.obj
 0001:00067fe0       ??$_Unchecked_uninitialized_move@PAVCRect@@PAV1@V?$allocator@VCRect@@@std@@@stdext@@YAPAVCRect@@PAV1@00AAV?$allocator@VCRect@@@std@@@Z 00468fe0 f i VertDlgDlg.obj
 0001:00068060       ??$_Move_backward_opt@PAVCRect@@PAV1@Urandom_access_iterator_tag@std@@U_Undefined_move_tag@3@@std@@YAPAVCRect@@PAV1@00Urandom_access_iterator_tag@0@U_Undefined_move_tag@0@U_Range_checked_iterator_tag@0@@Z 00469060 f i VertDlgDlg.obj
 0001:00068100       ??$unchecked_uninitialized_copy@PAVCRect@@PAV1@V?$allocator@VCRect@@@std@@@stdext@@YAPAVCRect@@PAV1@00AAV?$allocator@VCRect@@@std@@@Z 00469100 f i VertDlgDlg.obj
 0001:00068150       ??$_Uninit_copy@PAVCRect@@PAV1@V?$allocator@VCRect@@@std@@@std@@YAPAVCRect@@PAV1@00AAV?$allocator@VCRect@@@0@U_Nonscalar_ptr_iterator_tag@0@U_Range_checked_iterator_tag@0@@Z 00469150 f i VertDlgDlg.obj
 0001:00068230       ??0CAboutDlg@@QAE@XZ       00469230 f   AboutDlg.obj
 0001:00068340       ??_GCAboutDlg@@UAEPAXI@Z   00469340 f i AboutDlg.obj
 0001:00068340       ??_ECAboutDlg@@UAEPAXI@Z   00469340 f i AboutDlg.obj
 0001:000683d0       ?GetMessageMap@CAboutDlg@@MBEPBUAFX_MSGMAP@@XZ 004693d0 f   AboutDlg.obj
 0001:000683e0       ?GetThisMessageMap@CAboutDlg@@KGPBUAFX_MSGMAP@@XZ 004693e0 f   AboutDlg.obj
 0001:000683f0       ?OnInitDialog@CAboutDlg@@MAEHXZ 004693f0 f   AboutDlg.obj
 0001:000689b0       ?OnCtlColor@CAboutDlg@@IAEPAUHBRUSH__@@PAVCDC@@PAVCWnd@@I@Z 004699b0 f   AboutDlg.obj
 0001:000689e0       ?OnDestroy@CAboutDlg@@IAEXXZ 004699e0 f   AboutDlg.obj
 0001:00068ab0       ?OnTimer@CAboutDlg@@IAEXI@Z 00469ab0 f   AboutDlg.obj
 0001:00068b40       ??0CDialogEvalDets@@QAE@PAVCWnd@@@Z 00469b40 f   DialogEvalDets.obj
 0001:00068ca0       ??_ECDialogEvalDets@@UAEPAXI@Z 00469ca0 f i DialogEvalDets.obj
 0001:00068ca0       ??_GCDialogEvalDets@@UAEPAXI@Z 00469ca0 f i DialogEvalDets.obj
 0001:00068cd0       ??1CDialogEvalDets@@UAE@XZ 00469cd0 f i DialogEvalDets.obj
 0001:00068df0       ?DoDataExchange@CDialogEvalDets@@MAEXPAVCDataExchange@@@Z 00469df0 f   DialogEvalDets.obj
 0001:00068e40       ?GetMessageMap@CDialogEvalDets@@MBEPBUAFX_MSGMAP@@XZ 00469e40 f   DialogEvalDets.obj
 0001:00068e50       ?GetThisMessageMap@CDialogEvalDets@@KGPBUAFX_MSGMAP@@XZ 00469e50 f   DialogEvalDets.obj
 0001:00068e60       ?OnInitDialog@CDialogEvalDets@@MAEHXZ 00469e60 f   DialogEvalDets.obj
 0001:00068ee0       ?OnReleasedcaptureSlider1@CDialogEvalDets@@IAEXPAUtagNMHDR@@PAJ@Z 00469ee0 f   DialogEvalDets.obj
 0001:00068f20       ?MarkBrushes@CDialogEvalDets@@IAEXXZ 00469f20 f   DialogEvalDets.obj
 0001:00069230       ?MarkFaces@CDialogEvalDets@@IAEXXZ 0046a230 f   DialogEvalDets.obj
 0001:00069710       ?OnCancel@CDialogEvalDets@@MAEXXZ 0046a710 f   DialogEvalDets.obj
 0001:00069740       ?OnOk@CDialogEvalDets@@IAEXXZ 0046a740 f   DialogEvalDets.obj
 0001:000697d0       ?DetalizeSelectedBrushes@CDialogEvalDets@@IAEXXZ 0046a7d0 f   DialogEvalDets.obj
 0001:000698e0       ?DetalizeSelectedFaces@CDialogEvalDets@@IAEXXZ 0046a8e0 f   DialogEvalDets.obj
 0001:0006a420       ?AddPrimitive@Scene@@QAEXPAVBrush@@@Z 0046b420 f i DialogEvalDets.obj
 0001:0006a470       ?OnDestroy@CDialogEvalDets@@IAEXXZ 0046b470 f   DialogEvalDets.obj
 0001:0006a4d0       ?OnFaces@CDialogEvalDets@@IAEXXZ 0046b4d0 f   DialogEvalDets.obj
 0001:0006a940       ?OnBrushes@CDialogEvalDets@@IAEXXZ 0046b940 f   DialogEvalDets.obj
 0001:0006adf0       ?Volume@Box@@QAEMXZ        0046bdf0 f i DialogEvalDets.obj
 0001:0006ae80       ?OnBypolis@CDialogEvalDets@@IAEXXZ 0046be80 f   DialogEvalDets.obj
 0001:0006aea0       ?end@?$_Tree@V?$_Tmap_traits@V?$basic_string@DU?$char_traits@D@std@@V?$allocator@D@2@@std@@UTexture@@U?$less@V?$basic_string@DU?$char_traits@D@std@@V?$allocator@D@2@@std@@@2@V?$allocator@U?$pair@$$CBV?$basic_string@DU?$char_traits@D@std@@V?$allocator@D@2@@std@@UTexture@@@std@@@2@$0A@@std@@@std@@QAE?AViterator@12@XZ 0046bea0 f i texsys.obj
 0001:0006aea0       ?end@?$_Tree@V?$_Tset_traits@PAVBrush@@U?$less@PAVBrush@@@std@@V?$allocator@PAVBrush@@@3@$0A@@std@@@std@@QAE?AViterator@12@XZ 0046bea0 f i DialogEvalDets.obj
 0001:0006aef0       ??0?$_Tree@V?$_Tset_traits@PAVBrush@@U?$less@PAVBrush@@@std@@V?$allocator@PAVBrush@@@3@$0A@@std@@@std@@QAE@ABU?$less@PAVBrush@@@1@ABV?$allocator@PAVBrush@@@1@@Z 0046bef0 f i DialogEvalDets.obj
 0001:0006aef0       ??0?$_Tree@V?$_Tset_traits@HU?$less@H@std@@V?$allocator@H@2@$0A@@std@@@std@@QAE@ABU?$less@H@1@ABV?$allocator@H@1@@Z 0046bef0 f i BspTree.obj
 0001:0006aef0       ??0?$_Tree@V?$_Tset_traits@PAVV3@@U?$less@PAVV3@@@std@@V?$allocator@PAVV3@@@3@$0A@@std@@@std@@QAE@ABU?$less@PAVV3@@@1@ABV?$allocator@PAVV3@@@1@@Z 0046bef0 f i z_ed2DocDraw.obj
 0001:0006aef0       ??0?$_Tree@V?$_Tset_traits@PAVPoly@@U?$less@PAVPoly@@@std@@V?$allocator@PAVPoly@@@3@$0A@@std@@@std@@QAE@ABU?$less@PAVPoly@@@1@ABV?$allocator@PAVPoly@@@1@@Z 0046bef0 f i DialogEvalDets.obj
 0001:0006aef0       ??0?$_Tree@V?$_Tset_traits@IU?$less@I@std@@V?$allocator@I@2@$0A@@std@@@std@@QAE@ABU?$less@I@1@ABV?$allocator@I@1@@Z 0046bef0 f i DlgConsole.obj
 0001:0006af90       ?_Init@?$_Tree@V?$_Tset_traits@IU?$less@I@std@@V?$allocator@I@2@$0A@@std@@@std@@IAEXXZ 0046bf90 f i DlgConsole.obj
 0001:0006af90       ?_Init@?$_Tree@V?$_Tset_traits@HU?$less@H@std@@V?$allocator@H@2@$0A@@std@@@std@@IAEXXZ 0046bf90 f i BspTree.obj
 0001:0006af90       ?_Init@?$_Tree@V?$_Tset_traits@PAVBrush@@U?$less@PAVBrush@@@std@@V?$allocator@PAVBrush@@@3@$0A@@std@@@std@@IAEXXZ 0046bf90 f i DialogEvalDets.obj
 0001:0006af90       ?_Init@?$_Tree@V?$_Tset_traits@PAVV3@@U?$less@PAVV3@@@std@@V?$allocator@PAVV3@@@3@$0A@@std@@@std@@IAEXXZ 0046bf90 f i z_ed2DocDraw.obj
 0001:0006af90       ?_Init@?$_Tree@V?$_Tset_traits@PAVPoly@@U?$less@PAVPoly@@@std@@V?$allocator@PAVPoly@@@3@$0A@@std@@@std@@IAEXXZ 0046bf90 f i DialogEvalDets.obj
 0001:0006b000       ?_Buynode@?$_Tree@V?$_Tset_traits@PAVV3@@U?$less@PAVV3@@@std@@V?$allocator@PAVV3@@@3@$0A@@std@@@std@@IAEPAU_Node@?$_Tree_nod@V?$_Tset_traits@PAVV3@@U?$less@PAVV3@@@std@@V?$allocator@PAVV3@@@3@$0A@@std@@@2@XZ 0046c000 f i z_ed2DocDraw.obj
 0001:0006b000       ?_Buynode@?$_Tree@V?$_Tset_traits@IU?$less@I@std@@V?$allocator@I@2@$0A@@std@@@std@@IAEPAU_Node@?$_Tree_nod@V?$_Tset_traits@IU?$less@I@std@@V?$allocator@I@2@$0A@@std@@@2@XZ 0046c000 f i DlgConsole.obj
 0001:0006b000       ?_Buynode@?$_Tree@V?$_Tset_traits@PAVBrush@@U?$less@PAVBrush@@@std@@V?$allocator@PAVBrush@@@3@$0A@@std@@@std@@IAEPAU_Node@?$_Tree_nod@V?$_Tset_traits@PAVBrush@@U?$less@PAVBrush@@@std@@V?$allocator@PAVBrush@@@3@$0A@@std@@@2@XZ 0046c000 f i DialogEvalDets.obj
 0001:0006b000       ?_Buynode@?$_Tree@V?$_Tset_traits@PAVPoly@@U?$less@PAVPoly@@@std@@V?$allocator@PAVPoly@@@3@$0A@@std@@@std@@IAEPAU_Node@?$_Tree_nod@V?$_Tset_traits@PAVPoly@@U?$less@PAVPoly@@@std@@V?$allocator@PAVPoly@@@3@$0A@@std@@@2@XZ 0046c000 f i DialogEvalDets.obj
 0001:0006b000       ?_Buynode@?$_Tree@V?$_Tset_traits@HU?$less@H@std@@V?$allocator@H@2@$0A@@std@@@std@@IAEPAU_Node@?$_Tree_nod@V?$_Tset_traits@HU?$less@H@std@@V?$allocator@H@2@$0A@@std@@@2@XZ 0046c000 f i BspTree.obj
 0001:0006b150       ?_Inc@const_iterator@?$_Tree@V?$_Tset_traits@PAVV3@@U?$less@PAVV3@@@std@@V?$allocator@PAVV3@@@3@$0A@@std@@@std@@QAEXXZ 0046c150 f i z_ed2DocDraw.obj
 0001:0006b150       ?_Inc@const_iterator@?$_Tree@V?$_Tset_traits@IU?$less@I@std@@V?$allocator@I@2@$0A@@std@@@std@@QAEXXZ 0046c150 f i DlgConsole.obj
 0001:0006b150       ?_Inc@const_iterator@?$_Tree@V?$_Tset_traits@HU?$less@H@std@@V?$allocator@H@2@$0A@@std@@@std@@QAEXXZ 0046c150 f i BspTree.obj
 0001:0006b150       ?_Inc@const_iterator@?$_Tree@V?$_Tset_traits@PAVPoly@@U?$less@PAVPoly@@@std@@V?$allocator@PAVPoly@@@3@$0A@@std@@@std@@QAEXXZ 0046c150 f i DialogEvalDets.obj
 0001:0006b150       ?_Inc@const_iterator@?$_Tree@V?$_Tset_traits@PAVBrush@@U?$less@PAVBrush@@@std@@V?$allocator@PAVBrush@@@3@$0A@@std@@@std@@QAEXXZ 0046c150 f i DialogEvalDets.obj
 0001:0006b220       ??0CDlgBigTerrain@@QAE@PAVCWnd@@@Z 0046c220 f   DlgBigTerrain.obj
 0001:0006b300       ??0CBigTerrain@@QAE@XZ     0046c300 f i DlgBigTerrain.obj
 0001:0006b3f0       ??_ECBigTerrain@@UAEPAXI@Z 0046c3f0 f i DlgBigTerrain.obj
 0001:0006b3f0       ??_GCBigTerrain@@UAEPAXI@Z 0046c3f0 f i DlgBigTerrain.obj
 0001:0006b420       ??1CBigTerrain@@UAE@XZ     0046c420 f i DlgBigTerrain.obj
 0001:0006b4b0       ??_GCDlgBigTerrain@@UAEPAXI@Z 0046c4b0 f i DlgBigTerrain.obj
 0001:0006b4b0       ??_ECDlgBigTerrain@@UAEPAXI@Z 0046c4b0 f i DlgBigTerrain.obj
 0001:0006b4e0       ??1CDlgTextures@@UAE@XZ    0046c4e0 f i DlgBigTerrain.obj
 0001:0006b7b0       ??1CBitmapButton@@UAE@XZ   0046c7b0 f i DlgBigTerrain.obj
 0001:0006b880       ??1CDlgBigTerrain@@UAE@XZ  0046c880 f i DlgBigTerrain.obj
 0001:0006b940       ??1CVertDlgDlg@@UAE@XZ     0046c940 f i DlgBigTerrain.obj
 0001:0006b9d0       ?GetMessageMap@CDlgBigTerrain@@MBEPBUAFX_MSGMAP@@XZ 0046c9d0 f   DlgBigTerrain.obj
 0001:0006b9e0       ?GetThisMessageMap@CDlgBigTerrain@@KGPBUAFX_MSGMAP@@XZ 0046c9e0 f   DlgBigTerrain.obj
 0001:0006b9f0       ?OnInitDialog@CDlgBigTerrain@@MAEHXZ 0046c9f0 f   DlgBigTerrain.obj
 0001:0006bc00       ?OnOk@CDlgBigTerrain@@IAEXXZ 0046cc00 f   DlgBigTerrain.obj
 0001:0006bd70       ?PutVal@CDlgBigTerrain@@IAEXPAEHHE@Z 0046cd70 f   DlgBigTerrain.obj
 0001:0006bda0       ?OnSetFocus@CDlgNewTerrain@@IAEXPAVCWnd@@@Z 0046cda0 f   DlgNewTerrain.obj
 0001:0006bda0       ?OnSetFocus@CDlgBigTerrain@@IAEXPAVCWnd@@@Z 0046cda0 f   DlgBigTerrain.obj
 0001:0006bda0       ?OnSetFocus@CLbDlg@@IAEXPAVCWnd@@@Z 0046cda0 f   PrpLb.obj
 0001:0006bdc0       ?HandelTextureSel@CDlgBigTerrain@@IAEJIJ@Z 0046cdc0 f   DlgBigTerrain.obj
 0001:0006c000       ?_ReplaceTerrain@CDlgBigTerrain@@IAEXPAE@Z 0046d000 f   DlgBigTerrain.obj
 0001:0006c240       ??1?$RawBuff@E@@QAE@XZ     0046d240 f i DlgBigTerrain.obj
 0001:0006c280       ??0DlgClassItem@@QAE@PAVCWnd@@@Z 0046d280 f   DlgClassItem.obj
 0001:0006c330       ??_GDlgClassItem@@UAEPAXI@Z 0046d330 f i DlgClassItem.obj
 0001:0006c330       ??_EDlgClassItem@@UAEPAXI@Z 0046d330 f i DlgClassItem.obj
 0001:0006c360       ??1DlgClassItem@@UAE@XZ    0046d360 f i DlgClassItem.obj
 0001:0006c430       ?DoDataExchange@DlgClassItem@@MAEXPAVCDataExchange@@@Z 0046d430 f   DlgClassItem.obj
 0001:0006c490       ?GetMessageMap@DlgClassItem@@MBEPBUAFX_MSGMAP@@XZ 0046d490 f   DlgClassItem.obj
 0001:0006c4a0       ?GetThisMessageMap@DlgClassItem@@KGPBUAFX_MSGMAP@@XZ 0046d4a0 f   DlgClassItem.obj
 0001:0006c4b0       ?OnInitDialog@DlgClassItem@@MAEHXZ 0046d4b0 f   DlgClassItem.obj
 0001:0006c5c0       ?OnBrowse@DlgClassItem@@IAEXXZ 0046d5c0 f   DlgClassItem.obj
 0001:0006cb20       ?PopulateFromCats@DlgClassItem@@IAEHXZ 0046db20 f   DlgClassItem.obj
 0001:0006cc70       ?OnSelchangeItemcat@DlgClassItem@@IAEXXZ 0046dc70 f   DlgClassItem.obj
 0001:0006ccd0       ?at@?$vector@VItemCat@@V?$allocator@VItemCat@@@std@@@std@@QAEAAVItemCat@@I@Z 0046dcd0 f i DlgClassItem.obj
 0001:0006cd70       ??Y?$_Vector_const_iterator@VItemCat@@V?$allocator@VItemCat@@@std@@@std@@QAEAAV01@H@Z 0046dd70 f i DlgClassItem.obj
 0001:0006ce30       ??$tmin@I@@YAIII@Z         0046de30 f i DlgClassItem.obj
 0001:0006ce60       ??0CDlgCompile@@QAE@PAVCWnd@@@Z 0046de60 f   DlgCompile.obj
 0001:0006cf50       ??_GCTabCtrl@@UAEPAXI@Z    0046df50 f i DlgCompile.obj
 0001:0006cf50       ??_ECTabCtrl@@UAEPAXI@Z    0046df50 f i DlgCompile.obj
 0001:0006cf80       ??1C_TabCtrl@@UAE@XZ       0046df80 f i DlgCompile.obj
 0001:0006cfa0       ??_EC_TabCtrl@@UAEPAXI@Z   0046dfa0 f i DlgCompile.obj
 0001:0006cfa0       ??_GC_TabCtrl@@UAEPAXI@Z   0046dfa0 f i DlgCompile.obj
 0001:0006cfe0       ??_GCDlgCompile@@UAEPAXI@Z 0046dfe0 f i DlgCompile.obj
 0001:0006cfe0       ??_ECDlgCompile@@UAEPAXI@Z 0046dfe0 f i DlgCompile.obj
 0001:0006d010       ??1CDlgCompile@@UAE@XZ     0046e010 f i DlgCompile.obj
 0001:0006d0e0       ?DoDataExchange@CDlgCompile@@MAEXPAVCDataExchange@@@Z 0046e0e0 f   DlgCompile.obj
 0001:0006d160       ?GetMessageMap@CDlgCompile@@MBEPBUAFX_MSGMAP@@XZ 0046e160 f   DlgCompile.obj
 0001:0006d170       ?GetThisMessageMap@CDlgCompile@@KGPBUAFX_MSGMAP@@XZ 0046e170 f   DlgCompile.obj
 0001:0006d180       ?OnInitDialog@CDlgCompile@@MAEHXZ 0046e180 f   DlgCompile.obj
 0001:0006e2d0       ?OnOk@CDlgCompile@@IAEXXZ  0046f2d0 f   DlgCompile.obj
 0001:0006ef20       ?OnSelchangeTab1@CDlgCompile@@IAEXPAUtagNMHDR@@PAJ@Z 0046ff20 f   DlgCompile.obj
 0001:0006efd0       ??8ATL@@YA_NABV?$CStringT@DV?$StrTraitMFC@DV?$ChTraitsCRT@D@ATL@@@@@0@PBD@Z 0046ffd0 f i DlgCompile.obj
 0001:0006f030       ??0DlgCpxPrimnames@@QAE@PAVCWnd@@@Z 00470030 f   DlgCpxPrimnames.obj
 0001:0006f100       ??_GDlgCpxPrimnames@@UAEPAXI@Z 00470100 f i DlgCpxPrimnames.obj
 0001:0006f100       ??_EDlgCpxPrimnames@@UAEPAXI@Z 00470100 f i DlgCpxPrimnames.obj
 0001:0006f130       ??1DlgCpxPrimnames@@UAE@XZ 00470130 f i DlgCpxPrimnames.obj
 0001:0006f1f0       ?DoDataExchange@DlgCpxPrimnames@@MAEXPAVCDataExchange@@@Z 004701f0 f   DlgCpxPrimnames.obj
 0001:0006f270       ?GetMessageMap@DlgCpxPrimnames@@MBEPBUAFX_MSGMAP@@XZ 00470270 f   DlgCpxPrimnames.obj
 0001:0006f280       ?GetThisMessageMap@DlgCpxPrimnames@@KGPBUAFX_MSGMAP@@XZ 00470280 f   DlgCpxPrimnames.obj
 0001:0006f290       ?OnInitDialog@DlgCpxPrimnames@@MAEHXZ 00470290 f   DlgCpxPrimnames.obj
 0001:0006f540       ??0CLbItem@@QAE@W4C_TYPE_@0@PBD1H@Z 00470540 f i DlgCpxPrimnames.obj
 0001:0006f630       ?SetItem@CLbItem@@QAEXW4C_TYPE_@1@PBD1H@Z 00470630 f i DlgCpxPrimnames.obj
 0001:0006f9f0       ??_ECLbItem@@UAEPAXI@Z     004709f0 f i DlgCpxPrimnames.obj
 0001:0006f9f0       ??_GCLbItem@@UAEPAXI@Z     004709f0 f i DlgCpxPrimnames.obj
 0001:0006fa20       ??1CLbItem@@UAE@XZ         00470a20 f i DlgCpxPrimnames.obj
 0001:0006fac0       ?InsertItem@CLbEditable@@QAEHPAVCLbItem@@@Z 00470ac0 f i DlgCpxPrimnames.obj
 0001:0006fb30       ?OnOk3@DlgCpxPrimnames@@IAEXXZ 00470b30 f   DlgCpxPrimnames.obj
 0001:0006fd80       ?OnOk@DlgCpxPrimnames@@IAEXXZ 00470d80 f   DlgCpxPrimnames.obj
 0001:0006fdc0       ??0DlgEditor2D@@QAE@PAVCWnd@@@Z 00470dc0 f   DlgEditor2D.obj
 0001:00070000       ??_GCStatic@@UAEPAXI@Z     00471000 f i DlgEditor2D.obj
 0001:00070000       ??_ECStatic@@UAEPAXI@Z     00471000 f i DlgEditor2D.obj
 0001:00070030       ??0PathShape@@QAE@XZ       00471030 f i DlgEditor2D.obj
 0001:000700f0       ??_GDlgEditor2D@@UAEPAXI@Z 004710f0 f i DlgEditor2D.obj
 0001:000700f0       ??_EDlgEditor2D@@UAEPAXI@Z 004710f0 f i DlgEditor2D.obj
 0001:00070130       ??1PathShape@@QAE@XZ       00471130 f i DlgEditor2D.obj
 0001:000701e0       ??1DlgEditor2D@@UAE@XZ     004711e0 f i DlgEditor2D.obj
 0001:00070320       ?DoDataExchange@DlgEditor2D@@MAEXPAVCDataExchange@@@Z 00471320 f   DlgEditor2D.obj
 0001:000703e0       ?GetMessageMap@DlgEditor2D@@MBEPBUAFX_MSGMAP@@XZ 004713e0 f   DlgEditor2D.obj
 0001:000703f0       ?GetThisMessageMap@DlgEditor2D@@KGPBUAFX_MSGMAP@@XZ 004713f0 f   DlgEditor2D.obj
 0001:00070400       ?SizeHere@@YAXPAVCWnd@@HH@Z 00471400 f   DlgEditor2D.obj
 0001:00070420       ?SetCursorHere@@YAHIW4V_ACTION@@AAVCPoint@@AAVV3@@@Z 00471420 f   DlgEditor2D.obj
 0001:000704c0       ?MouseHere@@YAHIW4V_ACTION@@AAVCPoint@@AAVV3@@@Z 004714c0 f   DlgEditor2D.obj
 0001:00070590       ?PaintHere@@YAXPAVCWnd@@W4V_MODE@@@Z 00471590 f   DlgEditor2D.obj
 0001:00071db0       ?OnInitDialog@DlgEditor2D@@MAEHXZ 00472db0 f   DlgEditor2D.obj
 0001:000720f0       ?SetViewport@CStaticGL@@QAEXD@Z 004730f0 f i DlgEditor2D.obj
 0001:000721b0       ?OnDestroy@DlgEditor2D@@IAEXXZ 004731b0 f   DlgEditor2D.obj
 0001:00072290       ?OnOk@DlgEditor2D@@IAEXXZ  00473290 f   DlgEditor2D.obj
 0001:000724b0       ?OnPaint@DlgEditor2D@@IAEXXZ 004734b0 f   DlgEditor2D.obj
 0001:000724e0       ?OnLButtonDown@DlgEditor2D@@QAEHIAAVCPoint@@AAVV3@@@Z 004734e0 f   DlgEditor2D.obj
 0001:00072580       ?OnLButtonUp@DlgEditor2D@@QAEHIAAVCPoint@@AAVV3@@@Z 00473580 f   DlgEditor2D.obj
 0001:00072ac0       ?OnSetCursor@DlgEditor2D@@QAEHIAAVCPoint@@VV3@@@Z 00473ac0 f   DlgEditor2D.obj
 0001:00072de0       ?OnMouseMove@DlgEditor2D@@QAEHIAAVCPoint@@AAVV3@@@Z 00473de0 f   DlgEditor2D.obj
 0001:00072f60       ?OnRButtonDown@DlgEditor2D@@QAEHIAAVCPoint@@AAVV3@@@Z 00473f60 f   DlgEditor2D.obj
 0001:00073280       ?OnRButtonUp@DlgEditor2D@@QAEHIAAVCPoint@@AAVV3@@@Z 00474280 f   DlgEditor2D.obj
 0001:00073290       ?OnContextMenu@CSampleView@@IAEXPAVCWnd@@VCPoint@@@Z 00474290 f   SampleView.obj
 0001:00073290       ?OnSize@DlgEditor2D@@QAEXIHH@Z 00474290 f   DlgEditor2D.obj
 0001:00073290       ?OnStartMoveRotScale@CZ_ed2Doc@@QAEXHPAPAVSceItem@@H@Z 00474290 f   z_ed2Doc.obj
 0001:00073290       ?OnStartMoveRotScale@CZ_ed2Doc@@QAEXHPAPAVBrush@@H@Z 00474290 f   z_ed2Doc.obj
 0001:000732a0       ?OnPrev@DlgEditor2D@@IAEXXZ 004742a0 f   DlgEditor2D.obj
 0001:00073400       ?OnNext@DlgEditor2D@@IAEXXZ 00474400 f   DlgEditor2D.obj
 0001:00073580       ?EvaluateStep@DlgEditor2D@@QAEXXZ 00474580 f   DlgEditor2D.obj
 0001:00073860       ?OnClear@DlgEditor2D@@IAEXXZ 00474860 f   DlgEditor2D.obj
 0001:000738f0       ?Clear@PathShape@@QAEXXZ   004748f0 f i DlgEditor2D.obj
 0001:00073970       ?OnSpline@DlgEditor2D@@IAEXXZ 00474970 f   DlgEditor2D.obj
 0001:00073a70       ?OnNurb@DlgEditor2D@@IAEXXZ 00474a70 f   DlgEditor2D.obj
 0001:00073a90       ?OnRect@DlgEditor2D@@IAEXXZ 00474a90 f   DlgEditor2D.obj
 0001:00073b50       ?OnChangeCpcts@DlgEditor2D@@IAEXXZ 00474b50 f   DlgEditor2D.obj
 0001:00073cb0       ?OnChangeStpcts@DlgEditor2D@@IAEXXZ 00474cb0 f   DlgEditor2D.obj
 0001:00073dd0       ?OnMake@DlgEditor2D@@IAEXXZ 00474dd0 f   DlgEditor2D.obj
 0001:00073ee0       ?MakeShape@DlgEditor2D@@IAEXXZ 00474ee0 f   DlgEditor2D.obj
 0001:00074100       ?OnActivate@DlgEditor2D@@IAEXIPAVCWnd@@H@Z 00475100 f   DlgEditor2D.obj
 0001:00074140       ?CreateBrush@DlgEditor2D@@QAEXXZ 00475140 f   DlgEditor2D.obj
 0001:00075140       ?MRotAround@@YA?AVM4@@ABVV3@@M@Z 00476140 f i DlgEditor2D.obj
 0001:00075380       ??1?$vvector@V?$vvector@VV3@@@@@@QAE@XZ 00476380 f i DlgEditor2D.obj
 0001:000753f0       ?MakeSpline@DlgEditor2D@@IAEXXZ 004763f0 f   DlgEditor2D.obj
 0001:00075770       ?OnChangeXYZ@DlgEditor2D@@IAEXXZ 00476770 f   DlgEditor2D.obj
 0001:000758e0       ??1?$vvector@UVNT@@@@QAE@XZ 004768e0 f i DlgEditor2D.obj
 0001:000758e0       ??1?$vector@UVNT@@V?$allocator@UVNT@@@std@@@std@@QAE@XZ 004768e0 f i DlgEditor2D.obj
 0001:00075950       ??4?$vector@UVNT@@V?$allocator@UVNT@@@std@@@std@@QAEAAV01@ABV01@@Z 00476950 f i DlgEditor2D.obj
 0001:00075db0       ?at@?$vector@UVNT@@V?$allocator@UVNT@@@std@@@std@@QAEAAUVNT@@I@Z 00476db0 f i DlgEditor2D.obj
 0001:00075e50       ?back@?$vector@UVNT@@V?$allocator@UVNT@@@std@@@std@@QAEAAUVNT@@XZ 00476e50 f i DlgEditor2D.obj
 0001:00075ed0       ??G?$_Vector_iterator@UVNT@@V?$allocator@UVNT@@@std@@@std@@QBEHABV?$_Vector_const_iterator@UVNT@@V?$allocator@UVNT@@@std@@@1@@Z 00476ed0 f i DlgEditor2D.obj
 0001:00075ed0       ??G?$_Vector_iterator@V?$basic_string@DU?$char_traits@D@std@@V?$allocator@D@2@@std@@V?$allocator@V?$basic_string@DU?$char_traits@D@std@@V?$allocator@D@2@@std@@@2@@std@@QBEHABV?$_Vector_const_iterator@V?$basic_string@DU?$char_traits@D@std@@V?$allocator@D@2@@std@@V?$allocator@V?$basic_string@DU?$char_traits@D@std@@V?$allocator@D@2@@std@@@2@@1@@Z 00476ed0 f i z_ed2DocSave.obj
 0001:00075f30       ?reserve@?$vector@UVNT@@V?$allocator@UVNT@@@std@@@std@@QAEXI@Z 00476f30 f i DlgEditor2D.obj
 0001:00076260       ?erase@?$vector@UVNT@@V?$allocator@UVNT@@@std@@@std@@QAE?AV?$_Vector_iterator@UVNT@@V?$allocator@UVNT@@@std@@@2@V?$_Vector_const_iterator@UVNT@@V?$allocator@UVNT@@@std@@@2@@Z 00477260 f i DlgEditor2D.obj
 0001:00076320       ?_Tidy@?$vector@UVNT@@V?$allocator@UVNT@@@std@@@std@@IAEXXZ 00477320 f i DlgEditor2D.obj
 0001:000763d0       ?at@?$vector@VV3@@V?$allocator@VV3@@@std@@@std@@QAEAAVV3@@I@Z 004773d0 f i DlgEditor2D.obj
 0001:00076470       ?_Tidy@?$vector@V?$vvector@VV3@@@@V?$allocator@V?$vvector@VV3@@@@@std@@@std@@IAEXXZ 00477470 f i DlgEditor2D.obj
 0001:000764f0       ?_Xran@?$vector@VV3@@V?$allocator@VV3@@@std@@@std@@KAXXZ 004774f0 f i DlgEditor2D.obj
 0001:000764f0       ?_Xran@?$vector@UVNT@@V?$allocator@UVNT@@@std@@@std@@KAXXZ 004774f0 f i DlgEditor2D.obj
 0001:000764f0       ?_Xran@?$vector@PAVPoly@@V?$allocator@PAVPoly@@@std@@@std@@KAXXZ 004774f0 f i LMProc.obj
 0001:000764f0       ?_Xran@?$vector@VItemCat@@V?$allocator@VItemCat@@@std@@@std@@KAXXZ 004774f0 f i DlgClassItem.obj
 0001:000764f0       ?_Xran@?$vector@VPoly@@V?$allocator@VPoly@@@std@@@std@@KAXXZ 004774f0 f i MiniBsp.obj
 0001:00076570       ??E?$_Vector_const_iterator@UVNT@@V?$allocator@UVNT@@@std@@@std@@QAEAAV01@XZ 00477570 f i DlgEditor2D.obj
 0001:00076570       ??E?$_Vector_const_iterator@V?$basic_string@DU?$char_traits@D@std@@V?$allocator@D@2@@std@@V?$allocator@V?$basic_string@DU?$char_traits@D@std@@V?$allocator@D@2@@std@@@2@@std@@QAEAAV01@XZ 00477570 f i CompilerStream.obj
 0001:000765f0       ?push_back@?$vector@V?$vvector@VV3@@@@V?$allocator@V?$vvector@VV3@@@@@std@@@std@@QAEXABV?$vvector@VV3@@@@@Z 004775f0 f i DlgEditor2D.obj
 0001:00076700       ?_Destroy@?$vector@V?$vvector@VV3@@@@V?$allocator@V?$vvector@VV3@@@@@std@@@std@@IAEXPAV?$vvector@VV3@@@@0@Z 00477700 f i DlgEditor2D.obj
 0001:000767b0       ?insert@?$vector@V?$vvector@VV3@@@@V?$allocator@V?$vvector@VV3@@@@@std@@@std@@QAE?AV?$_Vector_iterator@V?$vvector@VV3@@@@V?$allocator@V?$vvector@VV3@@@@@std@@@2@V?$_Vector_const_iterator@V?$vvector@VV3@@@@V?$allocator@V?$vvector@VV3@@@@@std@@@2@ABV?$vvector@VV3@@@@@Z 004777b0 f i DlgEditor2D.obj
 0001:000768f0       ?_Insert_n@?$vector@V?$vvector@VV3@@@@V?$allocator@V?$vvector@VV3@@@@@std@@@std@@IAEXV?$_Vector_const_iterator@V?$vvector@VV3@@@@V?$allocator@V?$vvector@VV3@@@@@std@@@2@IABV?$vvector@VV3@@@@@Z 004778f0 f i DlgEditor2D.obj
 0001:00077230       ??Y?$_Vector_const_iterator@UVNT@@V?$allocator@UVNT@@@std@@@std@@QAEAAV01@H@Z 00478230 f i Curve_Class.obj
 0001:00077230       ??Y?$_Vector_const_iterator@V?$basic_string@DU?$char_traits@D@std@@V?$allocator@D@2@@std@@V?$allocator@V?$basic_string@DU?$char_traits@D@std@@V?$allocator@D@2@@std@@@2@@std@@QAEAAV01@H@Z 00478230 f i CompilerStream.obj
 0001:00077230       ??Y?$_Vector_const_iterator@V?$vvector@VV3@@@@V?$allocator@V?$vvector@VV3@@@@@std@@@std@@QAEAAV01@H@Z 00478230 f i DlgEditor2D.obj
 0001:000772f0       ??$_Copy_opt@PAUVNT@@PAU1@@std@@YAPAUVNT@@PAU1@00Urandom_access_iterator_tag@0@U_Nonscalar_ptr_iterator_tag@0@U_Range_checked_iterator_tag@0@@Z 004782f0 f i DlgEditor2D.obj
 0001:00077360       ??$_Unchecked_uninitialized_move@V?$_Vector_iterator@UVNT@@V?$allocator@UVNT@@@std@@@std@@PAUVNT@@V?$allocator@UVNT@@@2@@stdext@@YAPAUVNT@@V?$_Vector_iterator@UVNT@@V?$allocator@UVNT@@@std@@@std@@0PAU1@AAV?$allocator@UVNT@@@3@@Z 00478360 f i DlgEditor2D.obj
 0001:000773e0       ??$_Uninit_fill_n@PAV?$vvector@VV3@@@@IV1@V?$allocator@V?$vvector@VV3@@@@@std@@@std@@YAXPAV?$vvector@VV3@@@@IABV1@AAV?$allocator@V?$vvector@VV3@@@@@0@U_Nonscalar_ptr_iterator_tag@0@U_Range_checked_iterator_tag@0@@Z 004783e0 f i DlgEditor2D.obj
 0001:00077500       ??$_Unchecked_uninitialized_move@PAV?$vvector@VV3@@@@PAV1@V?$allocator@V?$vvector@VV3@@@@@std@@@stdext@@YAPAV?$vvector@VV3@@@@PAV1@00AAV?$allocator@V?$vvector@VV3@@@@@std@@@Z 00478500 f i DlgEditor2D.obj
 0001:00077580       ??$_Move_backward_opt@PAV?$vvector@VV3@@@@PAV1@Urandom_access_iterator_tag@std@@U_Undefined_move_tag@3@@std@@YAPAV?$vvector@VV3@@@@PAV1@00Urandom_access_iterator_tag@0@U_Undefined_move_tag@0@U_Range_checked_iterator_tag@0@@Z 00478580 f i DlgEditor2D.obj
 0001:000775c0       ??$_Copy_backward_opt@PAV?$vvector@VV3@@@@PAV1@@std@@YAPAV?$vvector@VV3@@@@PAV1@00Urandom_access_iterator_tag@0@U_Nonscalar_ptr_iterator_tag@0@U_Range_checked_iterator_tag@0@@Z 004785c0 f i DlgEditor2D.obj
 0001:00077670       ??$unchecked_uninitialized_copy@PAV?$vvector@VV3@@@@PAV1@V?$allocator@V?$vvector@VV3@@@@@std@@@stdext@@YAPAV?$vvector@VV3@@@@PAV1@00AAV?$allocator@V?$vvector@VV3@@@@@std@@@Z 00478670 f i DlgEditor2D.obj
 0001:000776c0       ??$_Uninit_copy@PAV?$vvector@VV3@@@@PAV1@V?$allocator@V?$vvector@VV3@@@@@std@@@std@@YAPAV?$vvector@VV3@@@@PAV1@00AAV?$allocator@V?$vvector@VV3@@@@@0@U_Nonscalar_ptr_iterator_tag@0@U_Range_checked_iterator_tag@0@@Z 004786c0 f i DlgEditor2D.obj
 0001:000777e0       ??0CDlgGs@@QAE@PAVCWnd@@@Z 004787e0 f   DlgGs.obj
 0001:000778d0       ??_ECDlgGs@@UAEPAXI@Z      004788d0 f i DlgGs.obj
 0001:000778d0       ??_GCDlgGs@@UAEPAXI@Z      004788d0 f i DlgGs.obj
 0001:00077900       ??1CDlgGs@@UAE@XZ          00478900 f i DlgGs.obj
 0001:000779c0       ?DoDataExchange@CDlgGs@@MAEXPAVCDataExchange@@@Z 004789c0 f   DlgGs.obj
 0001:00077a40       ?GetMessageMap@CDlgGs@@MBEPBUAFX_MSGMAP@@XZ 00478a40 f   DlgGs.obj
 0001:00077a50       ?GetThisMessageMap@CDlgGs@@KGPBUAFX_MSGMAP@@XZ 00478a50 f   DlgGs.obj
 0001:00077a60       ?OnDeleteItem@CDlgGs@@IAEXHPAUtagDELETEITEMSTRUCT@@@Z 00478a60 f   DlgGs.obj
 0001:00077a60       ?OnDeleteItem@CDirTree@@IAEXHPAUtagDELETEITEMSTRUCT@@@Z 00478a60 f   DirTree.obj
 0001:00077a80       ?OnInitDialog@CDlgGs@@MAEHXZ 00478a80 f   DlgGs.obj
 0001:00077e60       ?OnOk@CDlgGs@@IAEXXZ       00478e60 f   DlgGs.obj
 0001:00078270       ?OnDeltaposSpin1@CDlgGs@@IAEXPAUtagNMHDR@@PAJ@Z 00479270 f   DlgGs.obj
 0001:000782f0       ?OnCheck1@CDlgGs@@IAEXXZ   004792f0 f   DlgGs.obj
 0001:00078310       ?OnBackface@CDlgGs@@IAEXXZ 00479310 f   DlgGs.obj
 0001:00078340       ?OnLight@CDlgGs@@IAEXXZ    00479340 f   DlgGs.obj
 0001:00078360       ?OnShowcuts@CDlgGs@@IAEXXZ 00479360 f   DlgGs.obj
 0001:00078380       ?OnForce@CDlgGs@@IAEXXZ    00479380 f   DlgGs.obj
 0001:000783a0       ?OnCarve@CDlgGs@@IAEXXZ    004793a0 f   DlgGs.obj
 0001:000783c0       ?OnHomedir@CDlgGs@@IAEXXZ  004793c0 f   DlgGs.obj
 0001:00078490       ??0CDlgLeafs@@QAE@PAVCWnd@@@Z 00479490 f   DlgLeafs.obj
 0001:00078550       ??_GCDlgLeafs@@UAEPAXI@Z   00479550 f i DlgLeafs.obj
 0001:00078550       ??_ECDlgLeafs@@UAEPAXI@Z   00479550 f i DlgLeafs.obj
 0001:00078580       ??1CDlgLeafs@@UAE@XZ       00479580 f i DlgLeafs.obj
 0001:00078620       ?DoDataExchange@CDlgLeafs@@MAEXPAVCDataExchange@@@Z 00479620 f   DlgLeafs.obj
 0001:00078680       ?GetMessageMap@CDlgLeafs@@MBEPBUAFX_MSGMAP@@XZ 00479680 f   DlgLeafs.obj
 0001:00078690       ?GetThisMessageMap@CDlgLeafs@@KGPBUAFX_MSGMAP@@XZ 00479690 f   DlgLeafs.obj
 0001:000786a0       ?OnInitDialog@CDlgLeafs@@MAEHXZ 004796a0 f   DlgLeafs.obj
 0001:000789b0       ?OnItemChanged@CDlgLeafs@@IAEJIJ@Z 004799b0 f   DlgLeafs.obj
 0001:00078bc0       ?OnClickTexrefs@CDlgLeafs@@IAEXPAUtagNMHDR@@PAJ@Z 00479bc0 f   DlgLeafs.obj
 0001:00078c10       ?OnDestroy@CDlgLeafs@@IAEXXZ 00479c10 f   DlgLeafs.obj
 0001:00078d00       ?OnCancel@CDlgLeafs@@MAEXXZ 00479d00 f   DlgLeafs.obj
 0001:00078d00       ?OnOk@CDlgLeafs@@IAEXXZ    00479d00 f   DlgLeafs.obj
 0001:00078d20       ?OnSelchangeContent@CDlgLeafs@@IAEXXZ 00479d20 f   DlgLeafs.obj
 0001:00078f50       ??0DlgMotionState@@QAE@PAUMState@@@Z 00479f50 f   DlgMotionState.obj
 0001:00078f90       ??_GDlgMotionState@@UAEPAXI@Z 00479f90 f i DlgMotionState.obj
 0001:00078f90       ??_EDlgMotionState@@UAEPAXI@Z 00479f90 f i DlgMotionState.obj
 0001:00078fc0       ?GetMessageMap@DlgMotionState@@MBEPBUAFX_MSGMAP@@XZ 00479fc0 f   DlgMotionState.obj
 0001:00078fd0       ?GetThisMessageMap@DlgMotionState@@KGPBUAFX_MSGMAP@@XZ 00479fd0 f   DlgMotionState.obj
 0001:00078fe0       ?OnInitDialog@DlgMotionState@@MAEHXZ 00479fe0 f   DlgMotionState.obj
 0001:00079330       ?OnOk@DlgMotionState@@IAEXXZ 0047a330 f   DlgMotionState.obj
 0001:00079770       ?OnCmdMsg@DlgMotionState@@UAEHIHPAXPAUAFX_CMDHANDLERINFO@@@Z 0047a770 f   DlgMotionState.obj
 0001:000797d0       ??0DlgMurrChs@@QAE@PAVCWnd@@@Z 0047a7d0 f   DlgMurrChs.obj
 0001:00079800       ??_EDlgMurrChs@@UAEPAXI@Z  0047a800 f i DlgMurrChs.obj
 0001:00079800       ??_GDlgMurrChs@@UAEPAXI@Z  0047a800 f i DlgMurrChs.obj
 0001:00079830       ?GetMessageMap@DlgMurrChs@@MBEPBUAFX_MSGMAP@@XZ 0047a830 f   DlgMurrChs.obj
 0001:00079840       ?GetThisMessageMap@DlgMurrChs@@KGPBUAFX_MSGMAP@@XZ 0047a840 f   DlgMurrChs.obj
 0001:00079850       ?OnCancel@DlgMurrChs@@MAEXXZ 0047a850 f   DlgMurrChs.obj
 0001:00079850       ?OnOk@DlgMurrChs@@IAEXXZ   0047a850 f   DlgMurrChs.obj
 0001:00079870       ?OnChar@DlgMurrChs@@IAEXIII@Z 0047a870 f   DlgMurrChs.obj
 0001:00079890       ?PreTranslateMessage@DlgMurrChs@@UAEHPAUtagMSG@@@Z 0047a890 f   DlgMurrChs.obj
 0001:000798d0       ??0CDlgNewBrush@@QAE@PAVCWnd@@@Z 0047a8d0 f   DlgNewBrush.obj
 0001:00079aa0       ??_GCDlgNewBrush@@UAEPAXI@Z 0047aaa0 f i DlgNewBrush.obj
 0001:00079aa0       ??_ECDlgNewBrush@@UAEPAXI@Z 0047aaa0 f i DlgNewBrush.obj
 0001:00079ad0       ??1CDlgNewBrush@@UAE@XZ    0047aad0 f i DlgNewBrush.obj
 0001:00079c00       ?DoDataExchange@CDlgNewBrush@@MAEXPAVCDataExchange@@@Z 0047ac00 f   DlgNewBrush.obj
 0001:00079d00       ?GetMessageMap@CDlgNewBrush@@MBEPBUAFX_MSGMAP@@XZ 0047ad00 f   DlgNewBrush.obj
 0001:00079d10       ?GetThisMessageMap@CDlgNewBrush@@KGPBUAFX_MSGMAP@@XZ 0047ad10 f   DlgNewBrush.obj
 0001:00079d20       ?OnInitDialog@CDlgNewBrush@@MAEHXZ 0047ad20 f   DlgNewBrush.obj
 0001:0007a450       ?OnOk@CDlgNewBrush@@IAEXXZ 0047b450 f   DlgNewBrush.obj
 0001:0007a9d0       ?OnShell@CDlgNewBrush@@IAEXXZ 0047b9d0 f   DlgNewBrush.obj
 0001:0007aaa0       ?OnSplitable@CDlgNewBrush@@IAEXXZ 0047baa0 f   DlgNewBrush.obj
 0001:0007ab60       ?OnSkydom@CDlgNewBrush@@IAEXXZ 0047bb60 f   DlgNewBrush.obj
 0001:0007ac10       ?OnSplitter@CDlgNewBrush@@IAEXXZ 0047bc10 f   DlgNewBrush.obj
 0001:0007acc0       ?OnZone@CDlgNewBrush@@IAEXXZ 0047bcc0 f   DlgNewBrush.obj
 0001:0007ad70       ??0DlgNewItem@@QAE@PAVCWnd@@@Z 0047bd70 f   DlgNewItem.obj
 0001:0007aed0       ??0GameItem@@QAE@XZ        0047bed0 f i DlgNewItem.obj
 0001:0007af80       ?SetPos@SceItem@@UAEXAAVV3@@@Z 0047bf80 f i DlgNewItem.obj
 0001:0007afc0       ?Move@SceItem@@UAEXAAVV3@@@Z 0047bfc0 f i DlgNewItem.obj
 0001:0007b050       ?Scale@SceItem@@UAEXAAVV3@@V2@M@Z 0047c050 f i DlgNewItem.obj
 0001:0007b0e0       ?Size@SceItem@@UAEHXZ      0047c0e0 f i DlgNewItem.obj
 0001:0007b0f0       ?GetBox@SceItem@@UAE?AVBox@@XZ 0047c0f0 f i DlgNewItem.obj
 0001:0007b160       ?GetWBox@SceItem@@UAE?AVBox@@XZ 0047c160 f i DlgNewItem.obj
 0001:0007b230       ??_GGameItem@@UAEPAXI@Z    0047c230 f i DlgNewItem.obj
 0001:0007b230       ??_EGameItem@@UAEPAXI@Z    0047c230 f i DlgNewItem.obj
 0001:0007b260       ??_GDlgNewItem@@UAEPAXI@Z  0047c260 f i DlgNewItem.obj
 0001:0007b260       ??_EDlgNewItem@@UAEPAXI@Z  0047c260 f i DlgNewItem.obj
 0001:0007b290       ??1DlgSoundItem@@UAE@XZ    0047c290 f i DlgNewItem.obj
 0001:0007b380       ??1DlgLightItem@@UAE@XZ    0047c380 f i DlgNewItem.obj
 0001:0007b460       ??1DlgTriggerItem@@UAE@XZ  0047c460 f i DlgNewItem.obj
 0001:0007b520       ??1DlgGameItem@@UAE@XZ     0047c520 f i DlgNewItem.obj
 0001:0007b590       ??1DlgNewItem@@UAE@XZ      0047c590 f i DlgNewItem.obj
 0001:0007b6d0       ??1DlgStartPlayItem@@UAE@XZ 0047c6d0 f i DlgNewItem.obj
 0001:0007b780       ?DoDataExchange@DlgNewItem@@MAEXPAVCDataExchange@@@Z 0047c780 f   DlgNewItem.obj
 0001:0007b800       ?GetMessageMap@DlgNewItem@@MBEPBUAFX_MSGMAP@@XZ 0047c800 f   DlgNewItem.obj
 0001:0007b810       ?GetThisMessageMap@DlgNewItem@@KGPBUAFX_MSGMAP@@XZ 0047c810 f   DlgNewItem.obj
 0001:0007b820       ?OnInitDialog@DlgNewItem@@MAEHXZ 0047c820 f   DlgNewItem.obj
 0001:0007be60       ?OnDestroy@DlgNewItem@@IAEXXZ 0047ce60 f   DlgNewItem.obj
 0001:0007bef0       ?UpdateFromCat@DlgNewItem@@IAEXPAVGameItem@@@Z 0047cef0 f   DlgNewItem.obj
 0001:0007bfa0       ?GetCat@Scene@@QAEPAVItemCat@@PBD@Z 0047cfa0 f i DlgNewItem.obj
 0001:0007c0a0       ?UpdateItemPosition@DlgNewItem@@IAEXPAVSceItem@@@Z 0047d0a0 f   DlgNewItem.obj
 0001:0007c1d0       ?OnOk@DlgNewItem@@IAEXXZ   0047d1d0 f   DlgNewItem.obj
 0001:0007c960       ?Clean@CDlgBar@@QAEXXZ     0047d960 f i DlgNewItem.obj
 0001:0007c9c0       ?OnSelchangeItems@DlgNewItem@@IAEXXZ 0047d9c0 f   DlgNewItem.obj
 0001:0007cd80       ??4?$vector@UNameTypeValue@@V?$allocator@UNameTypeValue@@@std@@@std@@QAEAAV01@ABV01@@Z 0047dd80 f i DlgNewItem.obj
 0001:0007d1e0       ??0?$vector@UNameTypeValue@@V?$allocator@UNameTypeValue@@@std@@@std@@QAE@XZ 0047e1e0 f i DlgNewItem.obj
 0001:0007d2c0       ?clear@?$vector@UNameTypeValue@@V?$allocator@UNameTypeValue@@@std@@@std@@QAEXXZ 0047e2c0 f i DlgNewItem.obj
 0001:0007d3b0       ?_Buy@?$vector@UNameTypeValue@@V?$allocator@UNameTypeValue@@@std@@@std@@IAE_NI@Z 0047e3b0 f i DlgNewItem.obj
 0001:0007d480       ?erase@?$vector@UNameTypeValue@@V?$allocator@UNameTypeValue@@@std@@@std@@QAE?AV?$_Vector_iterator@UNameTypeValue@@V?$allocator@UNameTypeValue@@@std@@@2@V?$_Vector_const_iterator@UNameTypeValue@@V?$allocator@UNameTypeValue@@@std@@@2@0@Z 0047e480 f i DlgNewItem.obj
 0001:0007d590       ??$unchecked_copy@PAUNameTypeValue@@PAU1@@stdext@@YAPAUNameTypeValue@@PAU1@00@Z 0047e590 f i DlgNewItem.obj
 0001:0007d640       ??$_Allocate@UNameTypeValue@@@std@@YAPAUNameTypeValue@@IPAU1@@Z 0047e640 f i DlgNewItem.obj
 0001:0007d640       ??$_Allocate@U_Node@?$_Tree_nod@V?$_Tmap_traits@V?$basic_string@DU?$char_traits@D@std@@V?$allocator@D@2@@std@@U_Plg_Texture@@U?$less@V?$basic_string@DU?$char_traits@D@std@@V?$allocator@D@2@@std@@@2@V?$allocator@U?$pair@$$CBV?$basic_string@DU?$char_traits@D@std@@V?$allocator@D@2@@std@@U_Plg_Texture@@@std@@@2@$0A@@std@@@std@@@std@@YAPAU_Node@?$_Tree_nod@V?$_Tmap_traits@V?$basic_string@DU?$char_traits@D@std@@V?$allocator@D@2@@std@@U_Plg_Texture@@U?$less@V?$basic_string@DU?$char_traits@D@std@@V?$allocator@D@2@@std@@@2@V?$allocator@U?$pair@$$CBV?$basic_string@DU?$char_traits@D@std@@V?$allocator@D@2@@std@@U_Plg_Texture@@@std@@@2@$0A@@std@@@0@IPAU120@@Z 0047e640 f i z_edmap.obj
 0001:0007d6b0       ??$_Copy_opt@PAUNameTypeValue@@PAU1@@std@@YAPAUNameTypeValue@@PAU1@00Urandom_access_iterator_tag@0@U_Nonscalar_ptr_iterator_tag@0@U_Range_checked_iterator_tag@0@@Z 0047e6b0 f i DlgNewItem.obj
 0001:0007d730       ??$_Uninit_copy@PBUNameTypeValue@@PAU1@V?$allocator@UNameTypeValue@@@std@@@std@@YAPAUNameTypeValue@@PBU1@0PAU1@AAV?$allocator@UNameTypeValue@@@0@U_Nonscalar_ptr_iterator_tag@0@U_Range_checked_iterator_tag@0@@Z 0047e730 f i Scene.obj
 0001:0007d730       ??$_Uninit_copy@PAUNameTypeValue@@PAU1@V?$allocator@UNameTypeValue@@@std@@@std@@YAPAUNameTypeValue@@PAU1@00AAV?$allocator@UNameTypeValue@@@0@U_Nonscalar_ptr_iterator_tag@0@U_Range_checked_iterator_tag@0@@Z 0047e730 f i DlgNewItem.obj
 0001:0007d810       ??0DlgNewPref@@QAE@PAVCWnd@@@Z 0047e810 f   DlgNewPref.obj
 0001:0007d950       ??_EDlgNewPref@@UAEPAXI@Z  0047e950 f i DlgNewPref.obj
 0001:0007d950       ??_GDlgNewPref@@UAEPAXI@Z  0047e950 f i DlgNewPref.obj
 0001:0007d980       ??1?$vvector@UTexture@@@@QAE@XZ 0047e980 f i DlgNewPref.obj
 0001:0007d9f0       ??1DlgNewPref@@UAE@XZ      0047e9f0 f   DlgNewPref.obj
 0001:0007db50       ?DoDataExchange@DlgNewPref@@MAEXPAVCDataExchange@@@Z 0047eb50 f   DlgNewPref.obj
 0001:0007dbd0       ?GetMessageMap@DlgNewPref@@MBEPBUAFX_MSGMAP@@XZ 0047ebd0 f   DlgNewPref.obj
 0001:0007dbe0       ?GetThisMessageMap@DlgNewPref@@KGPBUAFX_MSGMAP@@XZ 0047ebe0 f   DlgNewPref.obj
 0001:0007dbf0       ?OnInitDialog@DlgNewPref@@MAEHXZ 0047ebf0 f   DlgNewPref.obj
 0001:0007df20       ??0CDirChange@baseg@@QAE@PBD@Z 0047ef20 f i DlgNewPref.obj
 0001:0007e000       ??1CDirChange@baseg@@QAE@XZ 0047f000 f i DlgNewPref.obj
 0001:0007e020       ?OnTreeChanged@DlgNewPref@@IAEJIJ@Z 0047f020 f   DlgNewPref.obj
 0001:0007e2a0       ?OnDestroy@DlgNewPref@@IAEXXZ 0047f2a0 f   DlgNewPref.obj
 0001:0007e2e0       ?OnOk@DlgNewPref@@IAEXXZ   0047f2e0 f   DlgNewPref.obj
 0001:0007e5b0       ?OnCancel@DlgNewPref@@MAEXXZ 0047f5b0 f   DlgNewPref.obj
 0001:0007e640       ?OnPaint@DlgNewPref@@IAEXXZ 0047f640 f   DlgNewPref.obj
 0001:0007e6c0       ?OnSelchangePrefs@DlgNewPref@@IAEXXZ 0047f6c0 f   DlgNewPref.obj
 0001:0007eb90       ?OnDblclkPrefs@DlgNewPref@@IAEXXZ 0047fb90 f   DlgNewPref.obj
 0001:0007ebb0       ?OnCut@DlgNewPref@@IAEXXZ  0047fbb0 f   DlgNewPref.obj
 0001:0007ec10       ?OnCutall@DlgNewPref@@IAEXXZ 0047fc10 f   DlgNewPref.obj
 0001:0007ec70       ?OnSplitable@DlgNewPref@@IAEXXZ 0047fc70 f   DlgNewPref.obj
 0001:0007ecf0       ?OnSolid@DlgNewPref@@IAEXXZ 0047fcf0 f   DlgNewPref.obj
 0001:0007ed40       ??0?$vector@UTexture@@V?$allocator@UTexture@@@std@@@std@@QAE@XZ 0047fd40 f i DlgNewPref.obj
 0001:0007ee20       ?clear@?$vector@UTexture@@V?$allocator@UTexture@@@std@@@std@@QAEXXZ 0047fe20 f i DlgNewPref.obj
 0001:0007ef10       ?_Tidy@?$vector@UTexture@@V?$allocator@UTexture@@@std@@@std@@IAEXXZ 0047ff10 f i DlgNewPref.obj
 0001:0007efd0       ?erase@?$vector@UTexture@@V?$allocator@UTexture@@@std@@@std@@QAE?AV?$_Vector_iterator@UTexture@@V?$allocator@UTexture@@@std@@@2@V?$_Vector_const_iterator@UTexture@@V?$allocator@UTexture@@@std@@@2@0@Z 0047ffd0 f i DlgNewPref.obj
 0001:0007f0f0       ?_Buy@?$vector@UTexture@@V?$allocator@UTexture@@@std@@@std@@IAE_NI@Z 004800f0 f i DlgNewPref.obj
 0001:0007f1b0       ?_Xlen@?$vector@UXmlFace@@V?$allocator@UXmlFace@@@std@@@std@@KAXXZ 004801b0 f i z_ed2DocSave.obj
 0001:0007f1b0       ?_Xlen@?$vector@PAVCLeaf@@V?$allocator@PAVCLeaf@@@std@@@std@@KAXXZ 004801b0 f i BspTree.obj
 0001:0007f1b0       ?_Xlen@?$vector@PAUSBytes@@V?$allocator@PAUSBytes@@@std@@@std@@KAXXZ 004801b0 f i Compiler.obj
 0001:0007f1b0       ?_Xlen@?$vector@PAVPlane@@V?$allocator@PAVPlane@@@std@@@std@@KAXXZ 004801b0 f i BspTree.obj
 0001:0007f1b0       ?_Xlen@?$vector@UPolyEdge@@V?$allocator@UPolyEdge@@@std@@@std@@KAXXZ 004801b0 f i z_ed2Doc.obj
 0001:0007f1b0       ?_Xlen@?$vector@VCLR@@V?$allocator@VCLR@@@std@@@std@@KAXXZ 004801b0 f i z_ed2DocSave.obj
 0001:0007f1b0       ?_Xlen@?$vector@KV?$allocator@K@std@@@std@@KAXXZ 004801b0 f i CompilerStream.obj
 0001:0007f1b0       ?_Xlen@?$vector@PAVCSoundItem@@V?$allocator@PAVCSoundItem@@@std@@@std@@KAXXZ 004801b0 f i z_ed2Doc.obj
 0001:0007f1b0       ?_Xlen@?$vector@PAVCMotion@@V?$allocator@PAVCMotion@@@std@@@std@@KAXXZ 004801b0 f i z_ed2Doc.obj
 0001:0007f1b0       ?_Xlen@?$vector@V?$vvector@VV3@@@@V?$allocator@V?$vvector@VV3@@@@@std@@@std@@KAXXZ 004801b0 f i DlgEditor2D.obj
 0001:0007f1b0       ?_Xlen@?$vector@PAV?$map@HHU?$less@H@std@@V?$allocator@U?$pair@$$CBHH@std@@@2@@std@@V?$allocator@PAV?$map@HHU?$less@H@std@@V?$allocator@U?$pair@$$CBHH@std@@@2@@std@@@2@@std@@KAXXZ 004801b0 f i CompilerStream.obj
 0001:0007f1b0       ?_Xlen@?$vector@VCLRNOA@@V?$allocator@VCLRNOA@@@std@@@std@@KAXXZ 004801b0 f i LMProc.obj
 0001:0007f1b0       ?_Xlen@?$vector@PAVPoly@@V?$allocator@PAVPoly@@@std@@@std@@KAXXZ 004801b0 f i BspTree.obj
 0001:0007f1b0       ?_Xlen@?$vector@PAULmSizeBuff@@V?$allocator@PAULmSizeBuff@@@std@@@std@@KAXXZ 004801b0 f i Compiler.obj
 0001:0007f1b0       ?_Xlen@?$vector@PAVCBspTree@@V?$allocator@PAVCBspTree@@@std@@@std@@KAXXZ 004801b0 f i BspTree.obj
 0001:0007f1b0       ?_Xlen@?$vector@MV?$allocator@M@std@@@std@@KAXXZ 004801b0 f i TerTree.obj
 0001:0007f1b0       ?_Xlen@?$vector@UTexture@@V?$allocator@UTexture@@@std@@@std@@KAXXZ 004801b0 f i DlgNewPref.obj
 0001:0007f1b0       ?_Xlen@?$vector@VV3@@V?$allocator@VV3@@@std@@@std@@KAXXZ 004801b0 f i CompilerStream.obj
 0001:0007f1b0       ?_Xlen@?$vector@PAVCLightBulb@@V?$allocator@PAVCLightBulb@@@std@@@std@@KAXXZ 004801b0 f i LMProc.obj
 0001:0007f1b0       ?_Xlen@?$vector@USPlugIn@CZ_ed2App@@V?$allocator@USPlugIn@CZ_ed2App@@@std@@@std@@KAXXZ 004801b0 f i z_edmap.obj
 0001:0007f1b0       ?_Xlen@?$vector@PAVTerLeaf@@V?$allocator@PAVTerLeaf@@@std@@@std@@KAXXZ 004801b0 f i TerTree.obj
 0001:0007f1b0       ?_Xlen@?$vector@PAVCMiniNode@@V?$allocator@PAVCMiniNode@@@std@@@std@@KAXXZ 004801b0 f i BspTree.obj
 0001:0007f1b0       ?_Xlen@?$vector@PAVScriptItem@@V?$allocator@PAVScriptItem@@@std@@@std@@KAXXZ 004801b0 f i z_ed2Doc.obj
 0001:0007f1b0       ?_Xlen@?$vector@PAVTerNode@@V?$allocator@PAVTerNode@@@std@@@std@@KAXXZ 004801b0 f i TerTree.obj
 0001:0007f1b0       ?_Xlen@?$vector@UNameTypeValue@@V?$allocator@UNameTypeValue@@@std@@@std@@KAXXZ 004801b0 f i DlgNewItem.obj
 0001:0007f1b0       ?_Xlen@?$vector@URecord@CUndo@@V?$allocator@URecord@CUndo@@@std@@@std@@KAXXZ 004801b0 f i Undo.obj
 0001:0007f1b0       ?_Xlen@?$vector@PAUGroup@CVertDlgDlg@@V?$allocator@PAUGroup@CVertDlgDlg@@@std@@@std@@KAXXZ 004801b0 f i VertDlgDlg.obj
 0001:0007f1b0       ?_Xlen@?$vector@VPlane@@V?$allocator@VPlane@@@std@@@std@@KAXXZ 004801b0 f i BspTree.obj
 0001:0007f1b0       ?_Xlen@?$vector@PAVV3@@V?$allocator@PAVV3@@@std@@@std@@KAXXZ 004801b0 f i z_ed2View.obj
 0001:0007f1b0       ?_Xlen@?$vector@V?$basic_string@DU?$char_traits@D@std@@V?$allocator@D@2@@std@@V?$allocator@V?$basic_string@DU?$char_traits@D@std@@V?$allocator@D@2@@std@@@2@@std@@KAXXZ 004801b0 f i CompilerStream.obj
 0001:0007f1b0       ?_Xlen@?$vector@PADV?$allocator@PAD@std@@@std@@KAXXZ 004801b0 f i Scene.obj
 0001:0007f1b0       ?_Xlen@?$vector@VCRect@@V?$allocator@VCRect@@@std@@@std@@KAXXZ 004801b0 f i VertDlgDlg.obj
 0001:0007f1b0       ?_Xlen@?$vector@PAUPortalData@@V?$allocator@PAUPortalData@@@std@@@std@@KAXXZ 004801b0 f i Compiler.obj
 0001:0007f1b0       ?_Xlen@?$vector@UUV@@V?$allocator@UUV@@@std@@@std@@KAXXZ 004801b0 f i z_ed2DocSave.obj
 0001:0007f1b0       ?_Xlen@?$vector@PAVSceItem@@V?$allocator@PAVSceItem@@@std@@@std@@KAXXZ 004801b0 f i z_ed2Doc.obj
 0001:0007f1b0       ?_Xlen@?$vector@UFlowNode@@V?$allocator@UFlowNode@@@std@@@std@@KAXXZ 004801b0 f i Compiler.obj
 0001:0007f1b0       ?_Xlen@?$vector@PAVVtx2@@V?$allocator@PAVVtx2@@@std@@@std@@KAXXZ 004801b0 f i z_ed2Doc.obj
 0001:0007f1b0       ?_Xlen@?$vector@VItemCat@@V?$allocator@VItemCat@@@std@@@std@@KAXXZ 004801b0 f i Scene.obj
 0001:0007f1b0       ?_Xlen@?$vector@VPortal@@V?$allocator@VPortal@@@std@@@std@@KAXXZ 004801b0 f i Compiler.obj
 0001:0007f1b0       ?_Xlen@?$vector@UMState@@V?$allocator@UMState@@@std@@@std@@KAXXZ 004801b0 f i DlgBrshProp.obj
 0001:0007f1b0       ?_Xlen@?$vector@PAVCBaseDlg@@V?$allocator@PAVCBaseDlg@@@std@@@std@@KAXXZ 004801b0 f i DlgBar.obj
 0001:0007f1b0       ?_Xlen@?$vector@PAUHWND__@@V?$allocator@PAUHWND__@@@std@@@std@@KAXXZ 004801b0 f i VertDlgDlg.obj
 0001:0007f1b0       ?_Xlen@?$vector@PAVBrush@@V?$allocator@PAVBrush@@@std@@@std@@KAXXZ 004801b0 f i Compiler.obj
 0001:0007f1b0       ?_Xlen@?$vector@VPoly@@V?$allocator@VPoly@@@std@@@std@@KAXXZ 004801b0 f i BspTree.obj
 0001:0007f1b0       ?_Xlen@?$vector@UVNT@@V?$allocator@UVNT@@@std@@@std@@KAXXZ 004801b0 f i Curve_Class.obj
 0001:0007f1b0       ?_Xlen@?$vector@HV?$allocator@H@std@@@std@@KAXXZ 004801b0 f i BspTree.obj
 0001:0007f1b0       ?_Xlen@?$vector@VVtx2@@V?$allocator@VVtx2@@@std@@@std@@KAXXZ 004801b0 f i PortalPRC.obj
 0001:0007f230       ??$unchecked_copy@PAUTexture@@PAU1@@stdext@@YAPAUTexture@@PAU1@00@Z 00480230 f i DlgNewPref.obj
 0001:0007f2d0       ??$_Allocate@UTexture@@@std@@YAPAUTexture@@IPAU1@@Z 004802d0 f i DlgNewPref.obj
 0001:0007f330       ??0CDlgNewTerrain@@QAE@PAVCWnd@@@Z 00480330 f   DlgNewTerrain.obj
 0001:0007f410       ??_GCDlgNewTerrain@@UAEPAXI@Z 00480410 f i DlgNewTerrain.obj
 0001:0007f410       ??_ECDlgNewTerrain@@UAEPAXI@Z 00480410 f i DlgNewTerrain.obj
 0001:0007f440       ??1CDlgNewTerrain@@UAE@XZ  00480440 f i DlgNewTerrain.obj
 0001:0007f4f0       ?DoDataExchange@CDlgNewTerrain@@MAEXPAVCDataExchange@@@Z 004804f0 f   DlgNewTerrain.obj
 0001:0007f4f0       ?DoDataExchange@CDlgBigTerrain@@MAEXPAVCDataExchange@@@Z 004804f0 f   DlgBigTerrain.obj
 0001:0007f550       ?GetMessageMap@CDlgNewTerrain@@MBEPBUAFX_MSGMAP@@XZ 00480550 f   DlgNewTerrain.obj
 0001:0007f560       ?GetThisMessageMap@CDlgNewTerrain@@KGPBUAFX_MSGMAP@@XZ 00480560 f   DlgNewTerrain.obj
 0001:0007f570       ?OnInitDialog@CDlgNewTerrain@@MAEHXZ 00480570 f   DlgNewTerrain.obj
 0001:0007f690       ?OnDestroy@CDlgBigTerrain@@IAEXXZ 00480690 f   DlgBigTerrain.obj
 0001:0007f690       ?OnDestroy@CDlgNewTerrain@@IAEXXZ 00480690 f   DlgNewTerrain.obj
 0001:0007f6e0       ?OnGen@CDlgNewTerrain@@IAEXXZ 004806e0 f   DlgNewTerrain.obj
 0001:0007f700       ?OnOK@DlgTexMody@@MAEXXZ   00480700 f   DlgTexMody.obj
 0001:0007f700       ?OnOk@CDlgNewTerrain@@IAEXXZ 00480700 f   DlgNewTerrain.obj
 0001:0007f720       ?OnCancel@CDlgNewTerrain@@MAEXXZ 00480720 f   DlgNewTerrain.obj
 0001:0007f790       ?CreateMesh@CDlgNewTerrain@@IAEXXZ 00480790 f   DlgNewTerrain.obj
 0001:0007f850       ?OnPaint@CDlgBigTerrain@@IAEXXZ 00480850 f   DlgBigTerrain.obj
 0001:0007f850       ?OnPaint@CDlgNewTerrain@@IAEXXZ 00480850 f   DlgNewTerrain.obj
 0001:0007f8e0       ?PutVal@CDlgNewTerrain@@IAEXPAEHHE@Z 004808e0 f   DlgNewTerrain.obj
 0001:0007f910       ?HandelTextureSel@CDlgNewTerrain@@IAEJIJ@Z 00480910 f   DlgNewTerrain.obj
 0001:0007ff40       ??0DlgResBrowser@@QAE@PAVCWnd@@@Z 00480f40 f   DlgResBrowser.obj
 0001:00080090       ?GetTextureFullName@CarryTex@@UAEPBDH@Z 00481090 f i DlgResBrowser.obj
 0001:000800b0       ??0CTexLbox@@QAE@XZ        004810b0 f i DlgResBrowser.obj
 0001:000801c0       ??0CBitmap@@QAE@XZ         004811c0 f i DlgResBrowser.obj
 0001:000801f0       ?GetTextureFullName@DlgResBrowser@@MAEPBDH@Z 004811f0 f i DlgResBrowser.obj
 0001:000802a0       ??_GDlgResBrowser@@UAEPAXI@Z 004812a0 f i DlgResBrowser.obj
 0001:000802a0       ??_EDlgResBrowser@@UAEPAXI@Z 004812a0 f i DlgResBrowser.obj
 0001:000802d0       ?DoDataExchange@DlgResBrowser@@MAEXPAVCDataExchange@@@Z 004812d0 f   DlgResBrowser.obj
 0001:00080340       ?GetMessageMap@DlgResBrowser@@MBEPBUAFX_MSGMAP@@XZ 00481340 f   DlgResBrowser.obj
 0001:00080350       ?GetThisMessageMap@DlgResBrowser@@KGPBUAFX_MSGMAP@@XZ 00481350 f   DlgResBrowser.obj
 0001:00080360       ?OnInitDialog@DlgResBrowser@@MAEHXZ 00481360 f   DlgResBrowser.obj
 0001:000803b0       ?OnSelchangedDirs@DlgResBrowser@@IAEJIJ@Z 004813b0 f   DlgResBrowser.obj
 0001:00080430       ?PopSubDirText@DlgResBrowser@@IAEXPBD@Z 00481430 f   DlgResBrowser.obj
 0001:000808e0       ?clear@?$vector@V?$basic_string@DU?$char_traits@D@std@@V?$allocator@D@2@@std@@V?$allocator@V?$basic_string@DU?$char_traits@D@std@@V?$allocator@D@2@@std@@@2@@std@@QAEXXZ 004818e0 f i DlgResBrowser.obj
 0001:000809d0       ?append@?$basic_string@DU?$char_traits@D@std@@V?$allocator@D@2@@std@@QAEAAV12@PBDI@Z 004819d0 f i DlgResBrowser.obj
 0001:00080b10       ?erase@?$vector@V?$basic_string@DU?$char_traits@D@std@@V?$allocator@D@2@@std@@V?$allocator@V?$basic_string@DU?$char_traits@D@std@@V?$allocator@D@2@@std@@@2@@std@@QAE?AV?$_Vector_iterator@V?$basic_string@DU?$char_traits@D@std@@V?$allocator@D@2@@std@@V?$allocator@V?$basic_string@DU?$char_traits@D@std@@V?$allocator@D@2@@std@@@2@@2@V?$_Vector_const_iterator@V?$basic_string@DU?$char_traits@D@std@@V?$allocator@D@2@@std@@V?$allocator@V?$basic_string@DU?$char_traits@D@std@@V?$allocator@D@2@@std@@@2@@2@0@Z 00481b10 f i DlgResBrowser.obj
 0001:00080cb0       ?append@?$basic_string@DU?$char_traits@D@std@@V?$allocator@D@2@@std@@QAEAAV12@ABV12@II@Z 00481cb0 f i DlgResBrowser.obj
 0001:00080e00       ??$_Copy_opt@PAV?$basic_string@DU?$char_traits@D@std@@V?$allocator@D@2@@std@@PAV12@@std@@YAPAV?$basic_string@DU?$char_traits@D@std@@V?$allocator@D@2@@0@PAV10@00Urandom_access_iterator_tag@0@U_Nonscalar_ptr_iterator_tag@0@U_Range_checked_iterator_tag@0@@Z 00481e00 f i DlgResBrowser.obj
 0001:00080e80       ??0DlgTexMody@@QAE@PAVCWnd@@@Z 00481e80 f   DlgTexMody.obj
 0001:00080f90       ??_EDlgTexMody@@UAEPAXI@Z  00481f90 f i DlgTexMody.obj
 0001:00080f90       ??_GDlgTexMody@@UAEPAXI@Z  00481f90 f i DlgTexMody.obj
 0001:00080fc0       ??1DlgTexMody@@UAE@XZ      00481fc0 f i DlgTexMody.obj
 0001:00081080       ?DoDataExchange@DlgTexMody@@MAEXPAVCDataExchange@@@Z 00482080 f   DlgTexMody.obj
 0001:00081110       ?GetMessageMap@DlgTexMody@@MBEPBUAFX_MSGMAP@@XZ 00482110 f   DlgTexMody.obj
 0001:00081120       ?GetThisMessageMap@DlgTexMody@@KGPBUAFX_MSGMAP@@XZ 00482120 f   DlgTexMody.obj
 0001:00081130       ?OnCancel@DlgTexMody@@MAEXXZ 00482130 f   DlgTexMody.obj
 0001:00081130       ?OnCancel@DlgMotionState@@MAEXXZ 00482130 f   DlgMotionState.obj
 0001:00081130       ?OnCancel@DlgCpxPrimnames@@MAEXXZ 00482130 f   DlgCpxPrimnames.obj
 0001:00081130       ?OnCancel@DlgNewItem@@MAEXXZ 00482130 f   DlgNewItem.obj
 0001:00081130       ?OnCancel@CDlgNewBrush@@MAEXXZ 00482130 f   DlgNewBrush.obj
 0001:00081130       ?OnCancel@CDlgBigTerrain@@MAEXXZ 00482130 f   DlgBigTerrain.obj
 0001:00081130       ?OnCancel@DlgClassItem@@MAEXXZ 00482130 f   DlgClassItem.obj
 0001:00081150       ?OnInitDialog@DlgTexMody@@MAEHXZ 00482150 f   DlgTexMody.obj
 0001:00081310       ?OnBw@DlgTexMody@@IAEXXZ   00482310 f   DlgTexMody.obj
 0001:00081360       ?OnBw2@DlgTexMody@@IAEXXZ  00482360 f   DlgTexMody.obj
 0001:000813d0       ?OnRadio1@DlgTexMody@@IAEXXZ 004823d0 f   DlgTexMody.obj
 0001:000813f0       ?OnRadio2@DlgTexMody@@IAEXXZ 004823f0 f   DlgTexMody.obj
 0001:00081410       ?OnRadio3@DlgTexMody@@IAEXXZ 00482410 f   DlgTexMody.obj
 0001:00081430       ?OnRadio4@DlgTexMody@@IAEXXZ 00482430 f   DlgTexMody.obj
 0001:00081450       ?OnReload@DlgTexMody@@IAEXXZ 00482450 f   DlgTexMody.obj
 0001:000814c0       ??0CDlgTexRefs@@QAE@PAVCWnd@@@Z 004824c0 f   DlgTexRefs.obj
 0001:00081550       ??_ECDlgTexRefs@@UAEPAXI@Z 00482550 f i DlgTexRefs.obj
 0001:00081550       ??_GCDlgTexRefs@@UAEPAXI@Z 00482550 f i DlgTexRefs.obj
 0001:000815e0       ?DoDataExchange@CDlgTexRefs@@MAEXPAVCDataExchange@@@Z 004825e0 f   DlgTexRefs.obj
 0001:00081630       ?GetMessageMap@CDlgTexRefs@@MBEPBUAFX_MSGMAP@@XZ 00482630 f   DlgTexRefs.obj
 0001:00081640       ?GetThisMessageMap@CDlgTexRefs@@KGPBUAFX_MSGMAP@@XZ 00482640 f   DlgTexRefs.obj
 0001:00081650       ?OnInitDialog@CDlgTexRefs@@MAEHXZ 00482650 f   DlgTexRefs.obj
 0001:00081a20       ?OnItemChanged@CDlgTexRefs@@IAEJIJ@Z 00482a20 f   DlgTexRefs.obj
 0001:00081a80       ?OnClickTexrefs@CDlgTexRefs@@IAEXPAUtagNMHDR@@PAJ@Z 00482a80 f   DlgTexRefs.obj
 0001:00081af0       ?OnPaint@CDlgTexRefs@@IAEXXZ 00482af0 f   DlgTexRefs.obj
 0001:00082300       ??1LmSizeBuff@@QAE@XZ      00483300 f i DlgTexRefs.obj
 0001:00082330       ?PreTranslateMessage@CDlgTexRefs@@MAEHPAUtagMSG@@@Z 00483330 f   DlgTexRefs.obj
 0001:000823e0       ?CreateObject@CDlgBar@@SGPAVCObject@@XZ 004833e0 f   DlgBar.obj
 0001:00082460       ?GetRuntimeClass@CDlgBar@@UBEPAUCRuntimeClass@@XZ 00483460 f   DlgBar.obj
 0001:00082470       ?GetMessageMap@CDlgBar@@MBEPBUAFX_MSGMAP@@XZ 00483470 f   DlgBar.obj
 0001:00082480       ?GetThisMessageMap@CDlgBar@@KGPBUAFX_MSGMAP@@XZ 00483480 f   DlgBar.obj
 0001:00082490       ?OnCtlColor@CDlgBar@@IAEPAUHBRUSH__@@PAVCDC@@PAVCWnd@@I@Z 00483490 f   DlgBar.obj
 0001:000824e0       ??0CDlgBar@@QAE@PAVCWnd@@@Z 004834e0 f   DlgBar.obj
 0001:000826f0       ??1CBrush@@UAE@XZ          004836f0 f i DlgBar.obj
 0001:00082710       ?get_accChild@CFormView@@UAEJUtagVARIANT@@PAPAUIDispatch@@@Z 00483710 f i DlgBar.obj
 0001:00082750       ?get_accChildCount@CFormView@@UAEJPAJ@Z 00483750 f i DlgBar.obj
 0001:00082770       ?get_accName@CFormView@@UAEJUtagVARIANT@@PAPA_W@Z 00483770 f i DlgBar.obj
 0001:000827b0       ?accLocation@CFormView@@UAEJPAJ000UtagVARIANT@@@Z 004837b0 f i DlgBar.obj
 0001:00082800       ?accHitTest@CFormView@@UAEJJJPAUtagVARIANT@@@Z 00483800 f i DlgBar.obj
 0001:00082830       ??_ECDlgBar@@UAEPAXI@Z     00483830 f i DlgBar.obj
 0001:00082830       ??_GCDlgBar@@UAEPAXI@Z     00483830 f i DlgBar.obj
 0001:00082860       ??1DlgItems@@UAE@XZ        00483860 f i DlgBar.obj
 0001:00082930       ??1CDlgScene@@UAE@XZ       00483930 f i DlgBar.obj
 0001:00082a50       ??1DlgFaceProp@@UAE@XZ     00483a50 f i DlgBar.obj
 0001:00082c90       ??1CCheckListBox@@UAE@XZ   00483c90 f i DlgBar.obj
 0001:00082cb0       ??1CStaticGL@@UAE@XZ       00483cb0 f i DlgBar.obj
 0001:00082d90       ??1MMove@@UAE@XZ           00483d90 f i DlgBar.obj
 0001:00082db0       ??1Camera@@UAE@XZ          00483db0 f i DlgBar.obj
 0001:00082df0       ??_ECStaticGL@@UAEPAXI@Z   00483df0 f i DlgBar.obj
 0001:00082df0       ??_GCStaticGL@@UAEPAXI@Z   00483df0 f i DlgBar.obj
 0001:00082e20       ??1DlgBrshProp@@UAE@XZ     00483e20 f i DlgBar.obj
 0001:00083040       ??1CDlgBar@@UAE@XZ         00484040 f i DlgBar.obj
 0001:000831f0       ?CommonInitializer@CDlgBar@@IAEXXZ 004841f0 f   DlgBar.obj
 0001:000835e0       ?OnCreate@CDlgBar@@IAEHPAUtagCREATESTRUCTA@@@Z 004845e0 f   DlgBar.obj
 0001:00083610       ?OnInitialUpdate@CDlgBar@@UAEXXZ 00484610 f   DlgBar.obj
 0001:00083630       ?OnInitDialog@CDlgBar@@MAEHXZ 00484630 f   DlgBar.obj
 0001:00083650       ?ShowItemProps@CDlgBar@@QAEXK@Z 00484650 f   DlgBar.obj
 0001:00083870       ?OnBrushesSelected@CDlgBar@@QAEXXZ 00484870 f   DlgBar.obj
 0001:000838f0       ?OnItemsSelected@CDlgBar@@QAEXXZ 004848f0 f   DlgBar.obj
 0001:00083910       ?OnFacesSelected@CDlgBar@@QAEXXZ 00484910 f   DlgBar.obj
 0001:000839a0       ?GetSelPolys@CZ_ed2Doc@@QAEPAPAVPoly@@AAH@Z 004849a0 f i DlgBar.obj
 0001:00083a10       ?OnApply@CDlgBar@@QAEXXZ   00484a10 f   DlgBar.obj
 0001:000840c0       ?GetSelItems@CZ_ed2Doc@@QAEPAPAVSceItem@@AAH@Z 004850c0 f i DlgBar.obj
 0001:00084130       ?ShowBrushesProperties@CDlgBar@@QAEXPAPAVBrush@@H@Z 00485130 f   DlgBar.obj
 0001:00084190       ?ShowFacesProperties@CDlgBar@@QAEXPAPAVPoly@@H@Z 00485190 f   DlgBar.obj
 0001:000842b0       ?GettexGenFlag@CDlgBar@@QAEKXZ 004852b0 f   DlgBar.obj
 0001:000842f0       ?GetCurSelTexture@CDlgBar@@QAEPADXZ 004852f0 f   DlgBar.obj
 0001:00084350       ?OnCmdMsg@CDlgBar@@UAEHIHPAXPAUAFX_CMDHANDLERINFO@@@Z 00485350 f   DlgBar.obj
 0001:000843b0       ?AddItem@CDlgBar@@QAEXPAVSceItem@@@Z 004853b0 f   DlgBar.obj
 0001:00084430       ?DelItem@CDlgBar@@QAEXPAVSceItem@@@Z 00485430 f   DlgBar.obj
 0001:000844b0       ?OnItemPropsChanged@CDlgBar@@QAEXPAVSceItem@@@Z 004854b0 f   DlgBar.obj
 0001:00084530       ?ShowItemDlg@CDlgBar@@QAEXPAVSceItem@@@Z 00485530 f   DlgBar.obj
 0001:000845a0       ?DeselectItems@CDlgBar@@QAEXH@Z 004855a0 f   DlgBar.obj
 0001:00084690       ?OnItemSelected@CDlgBar@@QAEXPAVSceItem@@H@Z 00485690 f   DlgBar.obj
 0001:00084830       ?UpdateItmProps@CDlgBar@@QAEXPAVSceItem@@@Z 00485830 f   DlgBar.obj
 0001:00084a10       ?RefreshItemsList@CDlgBar@@QAEXXZ 00485a10 f   DlgBar.obj
 0001:00084a80       ?Dirty@CDlgBar@@QAEXXZ     00485a80 f i DlgBar.obj
 0001:00084b20       ?OnDestroy@CDlgBar@@IAEXXZ 00485b20 f   DlgBar.obj
 0001:00084b40       ?UpdateMotionProps@CDlgBar@@QAEXPAVBrush@@PAVCMotion@@@Z 00485b40 f   DlgBar.obj
 0001:00084b80       ?OnSize@CDlgBar@@IAEXIHH@Z 00485b80 f   DlgBar.obj
 0001:00084bb0       ?Rescan@CDlgBar@@QAEXXZ    00485bb0 f   DlgBar.obj
 0001:00084be0       ?Refresh@CDlgBar@@QAEXXZ   00485be0 f   DlgBar.obj
 0001:00084c40       ?ResetDlgsContent@CDlgBar@@QAEXXZ 00485c40 f   DlgBar.obj
 0001:00084c80       ?RedrawCHildren@CDlgBar@@QAEJIJ@Z 00485c80 f   DlgBar.obj
 0001:00084cc0       ?OnUsrMsgRepaint@CZ_ed2View@@IAEJIJ@Z 00485cc0 f   z_ed2View.obj
 0001:00084cc0       ?OnPostInit@z_ed3View@@IAEJIJ@Z 00485cc0 f   z_ed3View.obj
 0001:00084cc0       ?OnPostInit@CDlgBar@@IAEJJI@Z 00485cc0 f   DlgBar.obj
 0001:00084cc0       ?OnKeyTab@CDlgBar@@IAEJIJ@Z 00485cc0 f   DlgBar.obj
 0001:00084cd0       ??A?$map@PAVBrush@@HU?$less@PAVBrush@@@std@@V?$allocator@U?$pair@QAVBrush@@H@std@@@3@@std@@QAEAAHABQAVBrush@@@Z 00485cd0 f i DlgBar.obj
 0001:00084cd0       ??A?$map@PAVCDialog@@IU?$less@PAVCDialog@@@std@@V?$allocator@U?$pair@QAVCDialog@@I@std@@@3@@std@@QAEAAIABQAVCDialog@@@Z 00485cd0 f i TabDlgSel.obj
 0001:00084de0       ?insert@?$_Tree@V?$_Tmap_traits@PAVBrush@@HU?$less@PAVBrush@@@std@@V?$allocator@U?$pair@QAVBrush@@H@std@@@3@$0A@@std@@@std@@QAE?AViterator@12@Vconst_iterator@12@ABU?$pair@QAVBrush@@H@2@@Z 00485de0 f i DlgBar.obj
 0001:00084de0       ?insert@?$_Tree@V?$_Tmap_traits@PAVCDialog@@IU?$less@PAVCDialog@@@std@@V?$allocator@U?$pair@QAVCDialog@@I@std@@@3@$0A@@std@@@std@@QAE?AViterator@12@Vconst_iterator@12@ABU?$pair@QAVCDialog@@I@2@@Z 00485de0 f i TabDlgSel.obj
 0001:00085530       ?insert@?$_Tree@V?$_Tmap_traits@PAVBrush@@HU?$less@PAVBrush@@@std@@V?$allocator@U?$pair@QAVBrush@@H@std@@@3@$0A@@std@@@std@@QAE?AU?$pair@Viterator@?$_Tree@V?$_Tmap_traits@PAVBrush@@HU?$less@PAVBrush@@@std@@V?$allocator@U?$pair@QAVBrush@@H@std@@@3@$0A@@std@@@std@@_N@2@ABU?$pair@QAVBrush@@H@2@@Z 00486530 f i DlgBar.obj
 0001:00085530       ?insert@?$_Tree@V?$_Tmap_traits@PAVCDialog@@IU?$less@PAVCDialog@@@std@@V?$allocator@U?$pair@QAVCDialog@@I@std@@@3@$0A@@std@@@std@@QAE?AU?$pair@Viterator@?$_Tree@V?$_Tmap_traits@PAVCDialog@@IU?$less@PAVCDialog@@@std@@V?$allocator@U?$pair@QAVCDialog@@I@std@@@3@$0A@@std@@@std@@_N@2@ABU?$pair@QAVCDialog@@I@2@@Z 00486530 f i TabDlgSel.obj
 0001:00085770       ?_Lbound@?$_Tree@V?$_Tmap_traits@PAVBrush@@HU?$less@PAVBrush@@@std@@V?$allocator@U?$pair@QAVBrush@@H@std@@@3@$0A@@std@@@std@@IBEPAU_Node@?$_Tree_nod@V?$_Tmap_traits@PAVBrush@@HU?$less@PAVBrush@@@std@@V?$allocator@U?$pair@QAVBrush@@H@std@@@3@$0A@@std@@@2@ABQAVBrush@@@Z 00486770 f i DlgBar.obj
 0001:00085770       ?_Lbound@?$_Tree@V?$_Tmap_traits@PAVCDialog@@IU?$less@PAVCDialog@@@std@@V?$allocator@U?$pair@QAVCDialog@@I@std@@@3@$0A@@std@@@std@@IBEPAU_Node@?$_Tree_nod@V?$_Tmap_traits@PAVCDialog@@IU?$less@PAVCDialog@@@std@@V?$allocator@U?$pair@QAVCDialog@@I@std@@@3@$0A@@std@@@2@ABQAVCDialog@@@Z 00486770 f i TabDlgSel.obj
 0001:000857e0       ?clear@?$_Tree@V?$_Tmap_traits@PAVBrush@@HU?$less@PAVBrush@@@std@@V?$allocator@U?$pair@QAVBrush@@H@std@@@3@$0A@@std@@@std@@QAEXXZ 004867e0 f i DlgBar.obj
 0001:000857e0       ?clear@?$_Tree@V?$_Tmap_traits@HHU?$less@H@std@@V?$allocator@U?$pair@$$CBHH@std@@@2@$0A@@std@@@std@@QAEXXZ 004867e0 f i CompilerStream.obj
 0001:000857e0       ?clear@?$_Tree@V?$_Tmap_traits@PAVCDialog@@IU?$less@PAVCDialog@@@std@@V?$allocator@U?$pair@QAVCDialog@@I@std@@@3@$0A@@std@@@std@@QAEXXZ 004867e0 f i TabDlgSel.obj
 0001:000857e0       ?clear@?$_Tree@V?$_Tmap_traits@HPAVBrush@@U?$less@H@std@@V?$allocator@U?$pair@$$CBHPAVBrush@@@std@@@3@$0A@@std@@@std@@QAEXXZ 004867e0 f i z_ed2DocSave.obj
 0001:00085840       ?_Inc@const_iterator@?$_Tree@V?$_Tmap_traits@PAVCDialog@@IU?$less@PAVCDialog@@@std@@V?$allocator@U?$pair@QAVCDialog@@I@std@@@3@$0A@@std@@@std@@QAEXXZ 00486840 f i TabDlgSel.obj
 0001:00085840       ?_Inc@const_iterator@?$_Tree@V?$_Tmap_traits@PAVBrush@@HU?$less@PAVBrush@@@std@@V?$allocator@U?$pair@QAVBrush@@H@std@@@3@$0A@@std@@@std@@QAEXXZ 00486840 f i DlgBar.obj
 0001:00085840       ?_Inc@const_iterator@?$_Tree@V?$_Tmap_traits@HHU?$less@H@std@@V?$allocator@U?$pair@$$CBHH@std@@@2@$0A@@std@@@std@@QAEXXZ 00486840 f i BspTree.obj
 0001:00085840       ?_Inc@const_iterator@?$_Tree@V?$_Tmap_traits@HPAVBrush@@U?$less@H@std@@V?$allocator@U?$pair@$$CBHPAVBrush@@@std@@@3@$0A@@std@@@std@@QAEXXZ 00486840 f i z_ed2DocSave.obj
 0001:00085910       ?_Erase@?$_Tree@V?$_Tmap_traits@PAVBrush@@HU?$less@PAVBrush@@@std@@V?$allocator@U?$pair@QAVBrush@@H@std@@@3@$0A@@std@@@std@@IAEXPAU_Node@?$_Tree_nod@V?$_Tmap_traits@PAVBrush@@HU?$less@PAVBrush@@@std@@V?$allocator@U?$pair@QAVBrush@@H@std@@@3@$0A@@std@@@2@@Z 00486910 f i DlgBar.obj
 0001:00085910       ?_Erase@?$_Tree@V?$_Tmap_traits@HPAVBrush@@U?$less@H@std@@V?$allocator@U?$pair@$$CBHPAVBrush@@@std@@@3@$0A@@std@@@std@@IAEXPAU_Node@?$_Tree_nod@V?$_Tmap_traits@HPAVBrush@@U?$less@H@std@@V?$allocator@U?$pair@$$CBHPAVBrush@@@std@@@3@$0A@@std@@@2@@Z 00486910 f i z_ed2DocSave.obj
 0001:00085910       ?_Erase@?$_Tree@V?$_Tmap_traits@HHU?$less@H@std@@V?$allocator@U?$pair@$$CBHH@std@@@2@$0A@@std@@@std@@IAEXPAU_Node@?$_Tree_nod@V?$_Tmap_traits@HHU?$less@H@std@@V?$allocator@U?$pair@$$CBHH@std@@@2@$0A@@std@@@2@@Z 00486910 f i CompilerStream.obj
 0001:00085910       ?_Erase@?$_Tree@V?$_Tmap_traits@PAVCDialog@@IU?$less@PAVCDialog@@@std@@V?$allocator@U?$pair@QAVCDialog@@I@std@@@3@$0A@@std@@@std@@IAEXPAU_Node@?$_Tree_nod@V?$_Tmap_traits@PAVCDialog@@IU?$less@PAVCDialog@@@std@@V?$allocator@U?$pair@QAVCDialog@@I@std@@@3@$0A@@std@@@2@@Z 00486910 f i TabDlgSel.obj
 0001:00085960       ??0DlgBrshProp@@QAE@PAVCWnd@@@Z 00486960 f   DlgBrshProp.obj
 0001:00085bd0       ??_GDlgBrshProp@@UAEPAXI@Z 00486bd0 f i DlgBrshProp.obj
 0001:00085bd0       ??_EDlgBrshProp@@UAEPAXI@Z 00486bd0 f i DlgBrshProp.obj
 0001:00085c00       ?DoDataExchange@DlgBrshProp@@MAEXPAVCDataExchange@@@Z 00486c00 f   DlgBrshProp.obj
 0001:00085ce0       ?GetMessageMap@DlgBrshProp@@MBEPBUAFX_MSGMAP@@XZ 00486ce0 f   DlgBrshProp.obj
 0001:00085cf0       ?GetThisMessageMap@DlgBrshProp@@KGPBUAFX_MSGMAP@@XZ 00486cf0 f   DlgBrshProp.obj
 0001:00085d00       ?OnInitDialog@DlgBrshProp@@MAEHXZ 00486d00 f   DlgBrshProp.obj
 0001:00085e70       ?Update@DlgBrshProp@@QAEXPAVBrush@@H@Z 00486e70 f   DlgBrshProp.obj
 0001:00087160       ?Retreive@DlgBrshProp@@QAEXPAVBrush@@H@Z 00488160 f   DlgBrshProp.obj
 0001:00089380       ?OnDetail@DlgBrshProp@@IAEXXZ 0048a380 f   DlgBrshProp.obj
 0001:00089520       ?OnDynamic@DlgBrshProp@@IAEXXZ 0048a520 f   DlgBrshProp.obj
 0001:00089650       ?OnCut@DlgBrshProp@@IAEXXZ 0048a650 f   DlgBrshProp.obj
 0001:00089760       ?OnCloseupContent@DlgBrshProp@@IAEXXZ 0048a760 f   DlgBrshProp.obj
 0001:000897a0       ?OnOk@DlgLightItem@@IAEXXZ 0048a7a0 f   DlgLightItem.obj
 0001:000897a0       ?OnOk@DlgItems@@IAEXXZ     0048a7a0 f   DlgItems.obj
 0001:000897a0       ?OnOk@DlgBrshProp@@IAEXXZ  0048a7a0 f   DlgBrshProp.obj
 0001:000897a0       ?OnOk@DlgFaceProp@@IAEXXZ  0048a7a0 f   DlgFaceProp.obj
 0001:000897a0       ?OnOk@DlgGameItem@@IAEXXZ  0048a7a0 f   DlgGameItem.obj
 0001:000897c0       ?OnShowWindow@DlgBrshProp@@IAEXHI@Z 0048a7c0 f   DlgBrshProp.obj
 0001:00089820       ?OnItemSelected@DlgBrshProp@@QAEJIJ@Z 0048a820 f   DlgBrshProp.obj
 0001:00089880       ?OnCancel@DlgBrshProp@@MAEXXZ 0048a880 f   DlgBrshProp.obj
 0001:00089910       ?Clean@DlgBrshProp@@QAEXXZ 0048a910 f   DlgBrshProp.obj
 0001:00089930       ?Dirty@DlgBrshProp@@UAEXXZ 0048a930 f   DlgBrshProp.obj
 0001:00089990       ?UpdateMotionProps@DlgBrshProp@@QAEXPAVBrush@@PAVCMotion@@H@Z 0048a990 f   DlgBrshProp.obj
 0001:0008a0f0       ?OnAdd@DlgBrshProp@@IAEXXZ 0048b0f0 f   DlgBrshProp.obj
 0001:0008a290       ??0CMotion@@QAE@PAVBrush@@HH@Z 0048b290 f i DlgBrshProp.obj
 0001:0008a3a0       ??1?$vvector@UMState@@@@QAE@XZ 0048b3a0 f i DlgBrshProp.obj
 0001:0008a410       ?OnItemDoubleClicked@DlgBrshProp@@QAEJIJ@Z 0048b410 f   DlgBrshProp.obj
 0001:0008a510       ?GetSelState@CMotion@@QAEPAUMState@@XZ 0048b510 f i DlgBrshProp.obj
 0001:0008a560       ??1DlgMotionState@@UAE@XZ  0048b560 f i DlgBrshProp.obj
 0001:0008a580       ?OnSkydom@DlgBrshProp@@IAEXXZ 0048b580 f   DlgBrshProp.obj
 0001:0008a5c0       ?OnRotate@DlgBrshProp@@IAEXXZ 0048b5c0 f   DlgBrshProp.obj
 0001:0008a640       ?OnCloseupGroup@DlgBrshProp@@IAEXXZ 0048b640 f   DlgBrshProp.obj
 0001:0008a680       ?OnP2@DlgBrshProp@@IAEXXZ  0048b680 f   DlgBrshProp.obj
 0001:0008a680       ?OnP3@DlgBrshProp@@IAEXXZ  0048b680 f   DlgBrshProp.obj
 0001:0008a6f0       ?OnP32@DlgBrshProp@@IAEXXZ 0048b6f0 f   DlgBrshProp.obj
 0001:0008a6f0       ?OnP1@DlgBrshProp@@IAEXXZ  0048b6f0 f   DlgBrshProp.obj
 0001:0008a760       ?find@?$_Tree@V?$_Tset_traits@PAVV3@@U?$less@PAVV3@@@std@@V?$allocator@PAVV3@@@3@$0A@@std@@@std@@QAE?AViterator@12@ABQAVV3@@@Z 0048b760 f i z_ed2DocDraw.obj
 0001:0008a760       ?find@?$_Tree@V?$_Tset_traits@IU?$less@I@std@@V?$allocator@I@2@$0A@@std@@@std@@QAE?AViterator@12@ABI@Z 0048b760 f i DlgBrshProp.obj
 0001:0008a870       ?reserve@?$vector@UMState@@V?$allocator@UMState@@@std@@@std@@QAEXI@Z 0048b870 f i DlgBrshProp.obj
 0001:0008aba0       ??A?$vector@UMState@@V?$allocator@UMState@@@std@@@std@@QAEAAUMState@@I@Z 0048bba0 f i DlgBrshProp.obj
 0001:0008abe0       ??0?$vector@UMState@@V?$allocator@UMState@@@std@@@std@@QAE@XZ 0048bbe0 f i DlgBrshProp.obj
 0001:0008acc0       ?_Tidy@?$vector@UMState@@V?$allocator@UMState@@@std@@@std@@IAEXXZ 0048bcc0 f i DlgBrshProp.obj
 0001:0008ad70       ?_Lbound@?$_Tree@V?$_Tset_traits@PAVV3@@U?$less@PAVV3@@@std@@V?$allocator@PAVV3@@@3@$0A@@std@@@std@@IBEPAU_Node@?$_Tree_nod@V?$_Tset_traits@PAVV3@@U?$less@PAVV3@@@std@@V?$allocator@PAVV3@@@3@$0A@@std@@@2@ABQAVV3@@@Z 0048bd70 f i z_ed2DocDraw.obj
 0001:0008ad70       ?_Lbound@?$_Tree@V?$_Tset_traits@IU?$less@I@std@@V?$allocator@I@2@$0A@@std@@@std@@IBEPAU_Node@?$_Tree_nod@V?$_Tset_traits@IU?$less@I@std@@V?$allocator@I@2@$0A@@std@@@2@ABI@Z 0048bd70 f i DlgBrshProp.obj
 0001:0008ade0       ?_Buynode@?$_Tree@V?$_Tset_traits@PAVV3@@U?$less@PAVV3@@@std@@V?$allocator@PAVV3@@@3@$0A@@std@@@std@@IAEPAU_Node@?$_Tree_nod@V?$_Tset_traits@PAVV3@@U?$less@PAVV3@@@std@@V?$allocator@PAVV3@@@3@$0A@@std@@@2@PAU342@00ABQAVV3@@D@Z 0048bde0 f i z_ed2DocDraw.obj
 0001:0008ade0       ?_Buynode@?$_Tree@V?$_Tset_traits@PAVPoly@@U?$less@PAVPoly@@@std@@V?$allocator@PAVPoly@@@3@$0A@@std@@@std@@IAEPAU_Node@?$_Tree_nod@V?$_Tset_traits@PAVPoly@@U?$less@PAVPoly@@@std@@V?$allocator@PAVPoly@@@3@$0A@@std@@@2@PAU342@00ABQAVPoly@@D@Z 0048bde0 f i DialogEvalDets.obj
 0001:0008ade0       ?_Buynode@?$_Tree@V?$_Tset_traits@HU?$less@H@std@@V?$allocator@H@2@$0A@@std@@@std@@IAEPAU_Node@?$_Tree_nod@V?$_Tset_traits@HU?$less@H@std@@V?$allocator@H@2@$0A@@std@@@2@PAU342@00ABHD@Z 0048bde0 f i BspTree.obj
 0001:0008ade0       ?_Buynode@?$_Tree@V?$_Tset_traits@PAVBrush@@U?$less@PAVBrush@@@std@@V?$allocator@PAVBrush@@@3@$0A@@std@@@std@@IAEPAU_Node@?$_Tree_nod@V?$_Tset_traits@PAVBrush@@U?$less@PAVBrush@@@std@@V?$allocator@PAVBrush@@@3@$0A@@std@@@2@PAU342@00ABQAVBrush@@D@Z 0048bde0 f i DialogEvalDets.obj
 0001:0008ade0       ?_Buynode@?$_Tree@V?$_Tset_traits@IU?$less@I@std@@V?$allocator@I@2@$0A@@std@@@std@@IAEPAU_Node@?$_Tree_nod@V?$_Tset_traits@IU?$less@I@std@@V?$allocator@I@2@$0A@@std@@@2@PAU342@00ABID@Z 0048bde0 f i DlgBrshProp.obj
 0001:0008aec0       ?_Buy@?$vector@UMState@@V?$allocator@UMState@@@std@@@std@@IAE_NI@Z 0048bec0 f i DlgBrshProp.obj
 0001:0008af80       ??$_Allocate@UMState@@@std@@YAPAUMState@@IPAU1@@Z 0048bf80 f i DlgBrshProp.obj
 0001:0008afe0       ??$_Unchecked_uninitialized_move@V?$_Vector_iterator@UMState@@V?$allocator@UMState@@@std@@@std@@PAUMState@@V?$allocator@UMState@@@2@@stdext@@YAPAUMState@@V?$_Vector_iterator@UMState@@V?$allocator@UMState@@@std@@@std@@0PAU1@AAV?$allocator@UMState@@@3@@Z 0048bfe0 f i DlgBrshProp.obj
 0001:0008b060       ??$_Uninit_copy@PAUMState@@PAU1@V?$allocator@UMState@@@std@@@std@@YAPAUMState@@PAU1@00AAV?$allocator@UMState@@@0@U_Nonscalar_ptr_iterator_tag@0@U_Range_checked_iterator_tag@0@@Z 0048c060 f i DlgBrshProp.obj
 0001:0008b140       ??0MState@@QAE@ABU0@@Z     0048c140 f i DlgBrshProp.obj
 0001:0008b230       ??0CDlgCompProgress@@QAE@PAVCWnd@@@Z 0048c230 f   DlgCompProgress.obj
 0001:0008b320       ??_GCProgressCtrl@@UAEPAXI@Z 0048c320 f i DlgCompProgress.obj
 0001:0008b320       ??_ECProgressCtrl@@UAEPAXI@Z 0048c320 f i DlgCompProgress.obj
 0001:0008b350       ??_ECDlgCompProgress@@UAEPAXI@Z 0048c350 f i DlgCompProgress.obj
 0001:0008b350       ??_GCDlgCompProgress@@UAEPAXI@Z 0048c350 f i DlgCompProgress.obj
 0001:0008b390       ??1CDlgCompProgress@@UAE@XZ 0048c390 f i DlgCompProgress.obj
 0001:0008b480       ?GetMessageMap@CDlgCompProgress@@MBEPBUAFX_MSGMAP@@XZ 0048c480 f   DlgCompProgress.obj
 0001:0008b490       ?GetThisMessageMap@CDlgCompProgress@@KGPBUAFX_MSGMAP@@XZ 0048c490 f   DlgCompProgress.obj
 0001:0008b4a0       ?OnInitDialog@CDlgCompProgress@@UAEHXZ 0048c4a0 f   DlgCompProgress.obj
 0001:0008b5b0       ?OnSize@CDlgCompProgress@@QAEXIHH@Z 0048c5b0 f   DlgCompProgress.obj
 0001:0008b6b0       ?OnCancel@CDlgCompProgress@@UAEXXZ 0048c6b0 f   DlgCompProgress.obj
 0001:0008b750       ?OnCheckCheck@CDlgCompProgress@@QAEXXZ 0048c750 f   DlgCompProgress.obj
 0001:0008b770       ?OnCloseBTN@CDlgCompProgress@@QAEXXZ 0048c770 f   DlgCompProgress.obj
 0001:0008b840       ?OnDestroy@CDlgCompProgress@@QAEXXZ 0048c840 f   DlgCompProgress.obj
 0001:0008b890       ?LogPos@CDlgCompProgress@@QAAXKAAVV3@@PBDZZ 0048c890 f   DlgCompProgress.obj
 0001:0008baa0       ?Log@CDlgCompProgress@@QAAXKPBDZZ 0048caa0 f   DlgCompProgress.obj
 0001:0008bbf0       ?OnDblclkLB@CDlgCompProgress@@QAEXXZ 0048cbf0 f   DlgCompProgress.obj
 0001:0008bc80       ?Progress@CDlgCompProgress@@QAEXH@Z 0048cc80 f   DlgCompProgress.obj
 0001:0008bd20       ??A?$map@HVV3@@U?$less@H@std@@V?$allocator@U?$pair@$$CBHVV3@@@std@@@3@@std@@QAEAAVV3@@ABH@Z 0048cd20 f i DlgCompProgress.obj
 0001:0008be40       ?clear@?$_Tree@V?$_Tmap_traits@HVV3@@U?$less@H@std@@V?$allocator@U?$pair@$$CBHVV3@@@std@@@3@$0A@@std@@@std@@QAEXXZ 0048ce40 f i DlgCompProgress.obj
 0001:0008bea0       ??0?$_Tree@V?$_Tmap_traits@HVV3@@U?$less@H@std@@V?$allocator@U?$pair@$$CBHVV3@@@std@@@3@$0A@@std@@@std@@QAE@ABU?$less@H@1@ABV?$allocator@U?$pair@$$CBHVV3@@@std@@@1@@Z 0048cea0 f i DlgCompProgress.obj
 0001:0008bf40       ?insert@?$_Tree@V?$_Tmap_traits@HVV3@@U?$less@H@std@@V?$allocator@U?$pair@$$CBHVV3@@@std@@@3@$0A@@std@@@std@@QAE?AViterator@12@Vconst_iterator@12@ABU?$pair@$$CBHVV3@@@2@@Z 0048cf40 f i DlgCompProgress.obj
 0001:0008c690       ?lower_bound@?$_Tree@V?$_Tmap_traits@HVV3@@U?$less@H@std@@V?$allocator@U?$pair@$$CBHVV3@@@std@@@3@$0A@@std@@@std@@QAE?AViterator@12@ABH@Z 0048d690 f i DlgCompProgress.obj
 0001:0008c6e0       ?_Erase@?$_Tree@V?$_Tmap_traits@HVV3@@U?$less@H@std@@V?$allocator@U?$pair@$$CBHVV3@@@std@@@3@$0A@@std@@@std@@IAEXPAU_Node@?$_Tree_nod@V?$_Tmap_traits@HVV3@@U?$less@H@std@@V?$allocator@U?$pair@$$CBHVV3@@@std@@@3@$0A@@std@@@2@@Z 0048d6e0 f i DlgCompProgress.obj
 0001:0008c730       ?_Tidy@?$_Tree@V?$_Tmap_traits@HVV3@@U?$less@H@std@@V?$allocator@U?$pair@$$CBHVV3@@@std@@@3@$0A@@std@@@std@@IAEXXZ 0048d730 f i DlgCompProgress.obj
 0001:0008c840       ?insert@?$_Tree@V?$_Tmap_traits@HVV3@@U?$less@H@std@@V?$allocator@U?$pair@$$CBHVV3@@@std@@@3@$0A@@std@@@std@@QAE?AU?$pair@Viterator@?$_Tree@V?$_Tmap_traits@HVV3@@U?$less@H@std@@V?$allocator@U?$pair@$$CBHVV3@@@std@@@3@$0A@@std@@@std@@_N@2@ABU?$pair@$$CBHVV3@@@2@@Z 0048d840 f i DlgCompProgress.obj
 0001:0008ca90       ?erase@?$_Tree@V?$_Tmap_traits@HVV3@@U?$less@H@std@@V?$allocator@U?$pair@$$CBHVV3@@@std@@@3@$0A@@std@@@std@@QAE?AViterator@12@Vconst_iterator@12@0@Z 0048da90 f i DlgCompProgress.obj
 0001:0008cc90       ?_Init@?$_Tree@V?$_Tmap_traits@HVV3@@U?$less@H@std@@V?$allocator@U?$pair@$$CBHVV3@@@std@@@3@$0A@@std@@@std@@IAEXXZ 0048dc90 f i DlgCompProgress.obj
 0001:0008cd00       ?_Insert@?$_Tree@V?$_Tmap_traits@HVV3@@U?$less@H@std@@V?$allocator@U?$pair@$$CBHVV3@@@std@@@3@$0A@@std@@@std@@IAE?AViterator@12@_NPAU_Node@?$_Tree_nod@V?$_Tmap_traits@HVV3@@U?$less@H@std@@V?$allocator@U?$pair@$$CBHVV3@@@std@@@3@$0A@@std@@@2@ABU?$pair@$$CBHVV3@@@2@@Z 0048dd00 f i DlgCompProgress.obj
 0001:0008d0e0       ?erase@?$_Tree@V?$_Tmap_traits@HVV3@@U?$less@H@std@@V?$allocator@U?$pair@$$CBHVV3@@@std@@@3@$0A@@std@@@std@@QAE?AViterator@12@Vconst_iterator@12@@Z 0048e0e0 f i DlgCompProgress.obj
 0001:0008d6e0       ?_Lrotate@?$_Tree@V?$_Tmap_traits@HVV3@@U?$less@H@std@@V?$allocator@U?$pair@$$CBHVV3@@@std@@@3@$0A@@std@@@std@@IAEXPAU_Node@?$_Tree_nod@V?$_Tmap_traits@HVV3@@U?$less@H@std@@V?$allocator@U?$pair@$$CBHVV3@@@std@@@3@$0A@@std@@@2@@Z 0048e6e0 f i DlgCompProgress.obj
 0001:0008d790       ?_Rrotate@?$_Tree@V?$_Tmap_traits@HVV3@@U?$less@H@std@@V?$allocator@U?$pair@$$CBHVV3@@@std@@@3@$0A@@std@@@std@@IAEXPAU_Node@?$_Tree_nod@V?$_Tmap_traits@HVV3@@U?$less@H@std@@V?$allocator@U?$pair@$$CBHVV3@@@std@@@3@$0A@@std@@@2@@Z 0048e790 f i DlgCompProgress.obj
 0001:0008d840       ?_Buynode@?$_Tree@V?$_Tmap_traits@HVV3@@U?$less@H@std@@V?$allocator@U?$pair@$$CBHVV3@@@std@@@3@$0A@@std@@@std@@IAEPAU_Node@?$_Tree_nod@V?$_Tmap_traits@HVV3@@U?$less@H@std@@V?$allocator@U?$pair@$$CBHVV3@@@std@@@3@$0A@@std@@@2@XZ 0048e840 f i DlgCompProgress.obj
 0001:0008d990       ?_Buynode@?$_Tree@V?$_Tmap_traits@HVV3@@U?$less@H@std@@V?$allocator@U?$pair@$$CBHVV3@@@std@@@3@$0A@@std@@@std@@IAEPAU_Node@?$_Tree_nod@V?$_Tmap_traits@HVV3@@U?$less@H@std@@V?$allocator@U?$pair@$$CBHVV3@@@std@@@3@$0A@@std@@@2@PAU342@00ABU?$pair@$$CBHVV3@@@2@D@Z 0048e990 f i DlgCompProgress.obj
 0001:0008dab0       ?_Dec@const_iterator@?$_Tree@V?$_Tmap_traits@HVV3@@U?$less@H@std@@V?$allocator@U?$pair@$$CBHVV3@@@std@@@3@$0A@@std@@@std@@QAEXXZ 0048eab0 f i DlgCompProgress.obj
 0001:0008dbb0       ?_Inc@const_iterator@?$_Tree@V?$_Tmap_traits@HVV3@@U?$less@H@std@@V?$allocator@U?$pair@$$CBHVV3@@@std@@@3@$0A@@std@@@std@@QAEXXZ 0048ebb0 f i DlgCompProgress.obj
 0001:0008dc80       ?allocate@?$allocator@U_Node@?$_Tree_nod@V?$_Tmap_traits@HVV3@@U?$less@H@std@@V?$allocator@U?$pair@$$CBHVV3@@@std@@@3@$0A@@std@@@std@@@std@@QAEPAU_Node@?$_Tree_nod@V?$_Tmap_traits@HVV3@@U?$less@H@std@@V?$allocator@U?$pair@$$CBHVV3@@@std@@@3@$0A@@std@@@2@I@Z 0048ec80 f i DlgCompProgress.obj
 0001:0008dca0       ??$_Allocate@USPlugIn@CZ_ed2App@@@std@@YAPAUSPlugIn@CZ_ed2App@@IPAU12@@Z 0048eca0 f i z_edmap.obj
 0001:0008dca0       ??$_Allocate@U_Node@?$_Tree_nod@V?$_Tmap_traits@HVV3@@U?$less@H@std@@V?$allocator@U?$pair@$$CBHVV3@@@std@@@3@$0A@@std@@@std@@@std@@YAPAU_Node@?$_Tree_nod@V?$_Tmap_traits@HVV3@@U?$less@H@std@@V?$allocator@U?$pair@$$CBHVV3@@@std@@@3@$0A@@std@@@0@IPAU120@@Z 0048eca0 f i DlgCompProgress.obj
 0001:0008dd00       ??_9CDlgCompProgress@@$BBFM@AE 0048ed00 f i DlgCompProgress.obj
 0001:0008dd10       ??0DlgFaceProp@@QAE@PAVCWnd@@@Z 0048ed10 f   DlgFaceProp.obj
 0001:0008df80       ??0CStaticGL@@QAE@XZ       0048ef80 f i DlgFaceProp.obj
 0001:0008e130       ??_GDlgFaceProp@@UAEPAXI@Z 0048f130 f i DlgFaceProp.obj
 0001:0008e130       ??_EDlgFaceProp@@UAEPAXI@Z 0048f130 f i DlgFaceProp.obj
 0001:0008e160       ?DoDataExchange@DlgFaceProp@@MAEXPAVCDataExchange@@@Z 0048f160 f   DlgFaceProp.obj
 0001:0008e250       ?GetMessageMap@DlgFaceProp@@MBEPBUAFX_MSGMAP@@XZ 0048f250 f   DlgFaceProp.obj
 0001:0008e260       ?GetThisMessageMap@DlgFaceProp@@KGPBUAFX_MSGMAP@@XZ 0048f260 f   DlgFaceProp.obj
 0001:0008e270       ?OnPostInit@DlgFaceProp@@IAEJJI@Z 0048f270 f   DlgFaceProp.obj
 0001:0008e3d0       ?OnInitDialog@DlgFaceProp@@MAEHXZ 0048f3d0 f   DlgFaceProp.obj
 0001:0008e7a0       ?OnCancel@DlgFaceProp@@MAEXXZ 0048f7a0 f   DlgFaceProp.obj
 0001:0008e7d0       ?Dirty@DlgFaceProp@@UAEXXZ 0048f7d0 f   DlgFaceProp.obj
 0001:0008e800       ?Update@DlgFaceProp@@QAEXPAVPoly@@H@Z 0048f800 f   DlgFaceProp.obj
 0001:0008f0e0       ?OnChkChange@DlgFaceProp@@IAEXXZ 004900e0 f   DlgFaceProp.obj
 0001:0008f120       ?Retreive@DlgFaceProp@@QAEXPAVPoly@@H@Z 00490120 f   DlgFaceProp.obj
 0001:000907d0       ?OnCutall@DlgBrshProp@@IAEXXZ 004917d0 f   DlgBrshProp.obj
 0001:000907d0       ?OnDisable@DlgBrshProp@@IAEXXZ 004917d0 f   DlgBrshProp.obj
 0001:000907d0       ?OnAction@DlgStartPlayItem@@MAEXXZ 004917d0 f   DlgStartPlayItem.obj
 0001:000907d0       ?OnAction@DlgSoundItem@@MAEXXZ 004917d0 f   DlgSoundItem.obj
 0001:000907d0       ?OnAction@DlgFaceProp@@UAEXXZ 004917d0 f   DlgFaceProp.obj
 0001:000907d0       ?OnAction@DlgTriggerItem@@MAEXXZ 004917d0 f   DlgTriggerItem.obj
 0001:000907d0       ?OnNobsp@DlgBrshProp@@IAEXXZ 004917d0 f   DlgBrshProp.obj
 0001:000907d0       ?OnAction@DlgLightItem@@UAEXXZ 004917d0 f   DlgLightItem.obj
 0001:000907d0       ?OnAction@DlgBrshProp@@UAEXXZ 004917d0 f   DlgBrshProp.obj
 0001:00090840       ?UpdateTextureStage@DlgFaceProp@@IAEXPAVPoly@@HH@Z 00491840 f   DlgFaceProp.obj
 0001:00090ac0       ?OnDifuze@DlgFaceProp@@IAEXXZ 00491ac0 f   DlgFaceProp.obj
 0001:00090bc0       ?OnResetsplits@DlgFaceProp@@IAEXXZ 00491bc0 f   DlgFaceProp.obj
 0001:00090e50       ?OnDestroy@DlgFaceProp@@IAEXXZ 00491e50 f   DlgFaceProp.obj
 0001:00090e70       ?OnShowWindow@DlgFaceProp@@IAEXHI@Z 00491e70 f   DlgFaceProp.obj
 0001:00090ed0       ?Reset@DlgFaceProp@@UAEXXZ 00491ed0 f   DlgFaceProp.obj
 0001:00090ef0       ?OnSelchangeEffects@DlgFaceProp@@IAEXXZ 00491ef0 f   DlgFaceProp.obj
 0001:00090ef0       ?OnGensc@DlgFaceProp@@IAEXXZ 00491ef0 f   DlgFaceProp.obj
 0001:00090ef0       ?OnGenss@DlgFaceProp@@IAEXXZ 00491ef0 f   DlgFaceProp.obj
 0001:00090ef0       ?OnDblclkTarget@DlgTriggerItem@@IAEXXZ 00491ef0 f   DlgTriggerItem.obj
 0001:00090ef0       ?OnNocoll@DlgBrshProp@@IAEXXZ 00491ef0 f   DlgBrshProp.obj
 0001:00090ef0       ?OnGensc2@DlgFaceProp@@IAEXXZ 00491ef0 f   DlgFaceProp.obj
 0001:00090ef0       ?OnGenss2@DlgFaceProp@@IAEXXZ 00491ef0 f   DlgFaceProp.obj
 0001:00090f10       ?OnResetTC@DlgFaceProp@@IAEXXZ 00491f10 f   DlgFaceProp.obj
 0001:00090f80       ??0DlgGameItem@@QAE@PAVCWnd@@@Z 00491f80 f   DlgGameItem.obj
 0001:00091000       ??_GDlgGameItem@@UAEPAXI@Z 00492000 f i DlgGameItem.obj
 0001:00091000       ??_EDlgGameItem@@UAEPAXI@Z 00492000 f i DlgGameItem.obj
 0001:00091080       ?DoDataExchange@DlgGameItem@@MAEXPAVCDataExchange@@@Z 00492080 f   DlgGameItem.obj
 0001:000910c0       ?GetMessageMap@DlgGameItem@@MBEPBUAFX_MSGMAP@@XZ 004920c0 f   DlgGameItem.obj
 0001:000910d0       ?GetThisMessageMap@DlgGameItem@@KGPBUAFX_MSGMAP@@XZ 004920d0 f   DlgGameItem.obj
 0001:000910e0       ?Update@DlgGameItem@@UAEXPAVSceItem@@H@Z 004920e0 f   DlgGameItem.obj
 0001:00091760       ?Retreive@DlgGameItem@@UAEXPAVSceItem@@H@Z 00492760 f   DlgGameItem.obj
 0001:00091e30       ?Update@DlgGameItem@@QAEXPAVItemCat@@@Z 00492e30 f   DlgGameItem.obj
 0001:00092440       ?NotyFoo@DlgGameItem@@QAEHPAVCLbDlg@@@Z 00493440 f   DlgGameItem.obj
 0001:00092470       ?OnKillFocus@DlgGameItem@@IAEXPAVCWnd@@@Z 00493470 f   DlgGameItem.obj
 0001:000924e0       ?OnShowWindow@DlgGameItem@@IAEXHI@Z 004934e0 f   DlgGameItem.obj
 0001:00092540       ?OnRepaint@DlgGameItem@@IAEJIJ@Z 00493540 f   DlgGameItem.obj
 0001:000925c0       ?Show@DlgGameItem@@UAEXH@Z 004935c0 f   DlgGameItem.obj
 0001:00092610       ??0DlgItems@@QAE@PAVCWnd@@@Z 00493610 f   DlgItems.obj
 0001:000926e0       ??_EDlgItems@@UAEPAXI@Z    004936e0 f i DlgItems.obj
 0001:000926e0       ??_GDlgItems@@UAEPAXI@Z    004936e0 f i DlgItems.obj
 0001:00092720       ?DoDataExchange@DlgItems@@MAEXPAVCDataExchange@@@Z 00493720 f   DlgItems.obj
 0001:00092770       ?GetMessageMap@DlgItems@@MBEPBUAFX_MSGMAP@@XZ 00493770 f   DlgItems.obj
 0001:00092780       ?GetThisMessageMap@DlgItems@@KGPBUAFX_MSGMAP@@XZ 00493780 f   DlgItems.obj
 0001:00092790       ?OnInitDialog@DlgItems@@MAEHXZ 00493790 f   DlgItems.obj
 0001:00092860       ?OnCancel@DlgItems@@MAEXXZ 00493860 f   DlgItems.obj
 0001:00092890       ?Update@DlgItems@@UAEXPAVSceItem@@H@Z 00493890 f   DlgItems.obj
 0001:00092ab0       ?Retreive@DlgItems@@UAEXPAVSceItem@@H@Z 00493ab0 f   DlgItems.obj
 0001:00092f20       ?OnShowWindow@DlgItems@@IAEXHI@Z 00493f20 f   DlgItems.obj
 0001:00092fb0       ?Dirty@DlgItems@@UAEXXZ    00493fb0 f   DlgItems.obj
 0001:00092fd0       ?DelItem@DlgItems@@QAEXPAVSceItem@@@Z 00493fd0 f   DlgItems.obj
 0001:00093060       ?OnItemPropsChanged@DlgItems@@QAEXPAVSceItem@@@Z 00494060 f   DlgItems.obj
 0001:000931a0       ?OnItemSelected@DlgItems@@QAEHPAVSceItem@@H@Z 004941a0 f   DlgItems.obj
 0001:00093320       ?OnCloseupGroup@DlgItems@@IAEXXZ 00494320 f   DlgItems.obj
 0001:00093360       ?RefreshItemsList@DlgItems@@QAEXXZ 00494360 f   DlgItems.obj
 0001:00093510       ?AddItem@DlgItems@@QAEXPAVSceItem@@@Z 00494510 f   DlgItems.obj
 0001:00093550       ?UpdateItem@DlgItems@@IAEXPAVSceItem@@H@Z 00494550 f   DlgItems.obj
 0001:00093580       ?OnSelchangeList1@DlgItems@@IAEXXZ 00494580 f   DlgItems.obj
 0001:00093800       ?IsNotSameTypeItemsSelected@DlgItems@@QAEHXZ 00494800 f   DlgItems.obj
 0001:000938c0       ??0DlgLightItem@@QAE@PAVCWnd@@@Z 004948c0 f   DlgLightItem.obj
 0001:00093990       ??_EDlgLightItem@@UAEPAXI@Z 00494990 f i DlgLightItem.obj
 0001:00093990       ??_GDlgLightItem@@UAEPAXI@Z 00494990 f i DlgLightItem.obj
 0001:000939c0       ?GetMessageMap@DlgLightItem@@MBEPBUAFX_MSGMAP@@XZ 004949c0 f   DlgLightItem.obj
 0001:000939d0       ?GetThisMessageMap@DlgLightItem@@KGPBUAFX_MSGMAP@@XZ 004949d0 f   DlgLightItem.obj
 0001:000939e0       ?OnInitDialog@DlgLightItem@@MAEHXZ 004949e0 f   DlgLightItem.obj
 0001:00093d60       ?OnSpec@DlgLightItem@@IAEXXZ 00494d60 f   DlgLightItem.obj
 0001:00093e70       ?OnColor@DlgLightItem@@IAEXXZ 00494e70 f   DlgLightItem.obj
 0001:00093f80       ?Update@DlgLightItem@@UAEXPAVSceItem@@H@Z 00494f80 f   DlgLightItem.obj
 0001:00094610       ?Retreive@DlgLightItem@@UAEXPAVSceItem@@H@Z 00495610 f   DlgLightItem.obj
 0001:00095180       ?OnSpot@DlgLightItem@@IAEXXZ 00496180 f   DlgLightItem.obj
 0001:00095240       ?OnHallo@DlgLightItem@@IAEXXZ 00496240 f   DlgLightItem.obj
 0001:00095330       ?OnRadioButtons@DlgLightItem@@IAEXI@Z 00496330 f   DlgLightItem.obj
 0001:00095350       ?OnDlight@DlgLightItem@@IAEXXZ 00496350 f   DlgLightItem.obj
 0001:00095400       ?OnQuadratic@DlgLightItem@@IAEXXZ 00496400 f   DlgLightItem.obj
 0001:00095430       ??0CDlgScene@@QAE@PAVCWnd@@@Z 00496430 f   DlgScene.obj
 0001:00095530       ??_GCDlgScene@@UAEPAXI@Z   00496530 f i DlgScene.obj
 0001:00095530       ??_ECDlgScene@@UAEPAXI@Z   00496530 f i DlgScene.obj
 0001:00095560       ?DoDataExchange@CDlgScene@@MAEXPAVCDataExchange@@@Z 00496560 f   DlgScene.obj
 0001:00095610       ?GetMessageMap@CDlgScene@@MBEPBUAFX_MSGMAP@@XZ 00496610 f   DlgScene.obj
 0001:00095620       ?GetThisMessageMap@CDlgScene@@KGPBUAFX_MSGMAP@@XZ 00496620 f   DlgScene.obj
 0001:00095630       ?OnDirty@CDlgScene@@IAEJIJ@Z 00496630 f i DlgScene.obj
 0001:00095650       ?OnInitDialog@CDlgScene@@MAEHXZ 00496650 f   DlgScene.obj
 0001:000957b0       ?OnShowWindow@CDlgScene@@IAEXHI@Z 004967b0 f   DlgScene.obj
 0001:00095850       ?Retreive@CDlgScene@@QAEXXZ 00496850 f   DlgScene.obj
 0001:00095e20       ?OnOk@CDlgScene@@IAEXXZ    00496e20 f   DlgScene.obj
 0001:00095e50       ?Dirty@CDlgScene@@UAEXXZ   00496e50 f   DlgScene.obj
 0001:00095e70       ?OnKillFocus@CDlgScene@@IAEXPAVCWnd@@@Z 00496e70 f   DlgScene.obj
 0001:00095eb0       ?OnSetFocus@CDlgScene@@IAEXPAVCWnd@@@Z 00496eb0 f   DlgScene.obj
 0001:00095ef0       ?Update@CDlgScene@@QAEXXZ  00496ef0 f   DlgScene.obj
 0001:000965c0       ?OnPaint@CDlgScene@@IAEXXZ 004975c0 f   DlgScene.obj
 0001:000965c0       ?OnPaint@DlgTexMody@@IAEXXZ 004975c0 f   DlgTexMody.obj
 0001:000965c0       ?OnPaint@CDlgTextures@@IAEXXZ 004975c0 f   DlgTextures.obj
 0001:000965c0       ?OnPaint@CDlgLeafs@@IAEXXZ 004975c0 f   DlgLeafs.obj
 0001:00096600       ?OnRefresh@CDlgScene@@IAEXXZ 00497600 f   DlgScene.obj
 0001:00096620       ?PopTreeScene@CDlgScene@@IAEXXZ 00497620 f   DlgScene.obj
 0001:00096d40       ?OnSelchangingTab1@CDlgCompile@@IAEXPAUtagNMHDR@@PAJ@Z 00497d40 f   DlgCompile.obj
 0001:00096d40       ?OnReturnScene@DlgBarScript@@IAEXPAUtagNMHDR@@PAJ@Z 00497d40 f   DlgBarScript.obj
 0001:00096d40       ?OnDblclkTree1@CDlgScene@@IAEXPAUtagNMHDR@@PAJ@Z 00497d40 f   DlgScene.obj
 0001:00096d60       ?OnSelchangingTree1@CDlgScene@@IAEXPAUtagNMHDR@@PAJ@Z 00497d60 f   DlgScene.obj
 0001:00096d80       ?OnSelchangedTree1@CDlgScene@@IAEXPAUtagNMHDR@@PAJ@Z 00497d80 f   DlgScene.obj
 0001:00097530       ?OnKillfocusDetails@CDlgScene@@IAEXXZ 00498530 f   DlgScene.obj
 0001:00097760       ?PreSubclassWindow@CDrawOut@@MAEXXZ 00498760 f   Drawout1.obj
 0001:00097760       ?PreSubclassWindow@C_Static@@MAEXXZ 00498760 f   UiEnhancer.obj
 0001:00097760       ?PreSubclassWindow@CDlgScene@@MAEXXZ 00498760 f   DlgScene.obj
 0001:00097780       ?PreTranslateMessage@CDlgScene@@UAEHPAUtagMSG@@@Z 00498780 f   DlgScene.obj
 0001:000977c0       ?OnLogo@CDlgScene@@IAEXXZ  004987c0 f   DlgScene.obj
 0001:00097ab0       ?OnDellogo@CDlgScene@@IAEXXZ 00498ab0 f   DlgScene.obj
 0001:00097ad0       ?OnExpanded@CDlgScene@@UAEXXZ 00498ad0 f   DlgScene.obj
 0001:00097b00       ?Find@?$CStringT@DV?$StrTraitMFC@DV?$ChTraitsCRT@D@ATL@@@@@ATL@@QBEHPBDH@Z 00498b00 f i DlgScene.obj
 0001:00097b80       ??A?$map@V?$basic_string@DU?$char_traits@D@std@@V?$allocator@D@2@@std@@V12@U?$less@V?$basic_string@DU?$char_traits@D@std@@V?$allocator@D@2@@std@@@2@V?$allocator@U?$pair@$$CBV?$basic_string@DU?$char_traits@D@std@@V?$allocator@D@2@@std@@V12@@std@@@2@@std@@QAEAAV?$basic_string@DU?$char_traits@D@std@@V?$allocator@D@2@@1@ABV21@@Z 00498b80 f i DlgScene.obj
 0001:00097d60       ?find@?$_Tree@V?$_Tmap_traits@V?$basic_string@DU?$char_traits@D@std@@V?$allocator@D@2@@std@@V12@U?$less@V?$basic_string@DU?$char_traits@D@std@@V?$allocator@D@2@@std@@@2@V?$allocator@U?$pair@$$CBV?$basic_string@DU?$char_traits@D@std@@V?$allocator@D@2@@std@@V12@@std@@@2@$0A@@std@@@std@@QAE?AViterator@12@ABV?$basic_string@DU?$char_traits@D@std@@V?$allocator@D@2@@2@@Z 00498d60 f i DlgScene.obj
 0001:00097e70       ??1?$pair@$$CBV?$basic_string@DU?$char_traits@D@std@@V?$allocator@D@2@@std@@V12@@std@@QAE@XZ 00498e70 f i DlgScene.obj
 0001:00097ed0       ?insert@?$_Tree@V?$_Tmap_traits@V?$basic_string@DU?$char_traits@D@std@@V?$allocator@D@2@@std@@V12@U?$less@V?$basic_string@DU?$char_traits@D@std@@V?$allocator@D@2@@std@@@2@V?$allocator@U?$pair@$$CBV?$basic_string@DU?$char_traits@D@std@@V?$allocator@D@2@@std@@V12@@std@@@2@$0A@@std@@@std@@QAE?AViterator@12@Vconst_iterator@12@ABU?$pair@$$CBV?$basic_string@DU?$char_traits@D@std@@V?$allocator@D@2@@std@@V12@@2@@Z 00498ed0 f i DlgScene.obj
 0001:00098670       ?insert@?$_Tree@V?$_Tmap_traits@V?$basic_string@DU?$char_traits@D@std@@V?$allocator@D@2@@std@@V12@U?$less@V?$basic_string@DU?$char_traits@D@std@@V?$allocator@D@2@@std@@@2@V?$allocator@U?$pair@$$CBV?$basic_string@DU?$char_traits@D@std@@V?$allocator@D@2@@std@@V12@@std@@@2@$0A@@std@@@std@@QAE?AU?$pair@Viterator@?$_Tree@V?$_Tmap_traits@V?$basic_string@DU?$char_traits@D@std@@V?$allocator@D@2@@std@@V12@U?$less@V?$basic_string@DU?$char_traits@D@std@@V?$allocator@D@2@@std@@@2@V?$allocator@U?$pair@$$CBV?$basic_string@DU?$char_traits@D@std@@V?$allocator@D@2@@std@@V12@@std@@@2@$0A@@std@@@std@@_N@2@ABU?$pair@$$CBV?$basic_string@DU?$char_traits@D@std@@V?$allocator@D@2@@std@@V12@@2@@Z 00499670 f i DlgScene.obj
 0001:000988c0       ?_Insert@?$_Tree@V?$_Tmap_traits@V?$basic_string@DU?$char_traits@D@std@@V?$allocator@D@2@@std@@V12@U?$less@V?$basic_string@DU?$char_traits@D@std@@V?$allocator@D@2@@std@@@2@V?$allocator@U?$pair@$$CBV?$basic_string@DU?$char_traits@D@std@@V?$allocator@D@2@@std@@V12@@std@@@2@$0A@@std@@@std@@IAE?AViterator@12@_NPAU_Node@?$_Tree_nod@V?$_Tmap_traits@V?$basic_string@DU?$char_traits@D@std@@V?$allocator@D@2@@std@@V12@U?$less@V?$basic_string@DU?$char_traits@D@std@@V?$allocator@D@2@@std@@@2@V?$allocator@U?$pair@$$CBV?$basic_string@DU?$char_traits@D@std@@V?$allocator@D@2@@std@@V12@@std@@@2@$0A@@std@@@2@ABU?$pair@$$CBV?$basic_string@DU?$char_traits@D@std@@V?$allocator@D@2@@std@@V12@@2@@Z 004998c0 f i DlgScene.obj
 0001:00098ca0       ?_Lbound@?$_Tree@V?$_Tmap_traits@V?$basic_string@DU?$char_traits@D@std@@V?$allocator@D@2@@std@@V12@U?$less@V?$basic_string@DU?$char_traits@D@std@@V?$allocator@D@2@@std@@@2@V?$allocator@U?$pair@$$CBV?$basic_string@DU?$char_traits@D@std@@V?$allocator@D@2@@std@@V12@@std@@@2@$0A@@std@@@std@@IBEPAU_Node@?$_Tree_nod@V?$_Tmap_traits@V?$basic_string@DU?$char_traits@D@std@@V?$allocator@D@2@@std@@V12@U?$less@V?$basic_string@DU?$char_traits@D@std@@V?$allocator@D@2@@std@@@2@V?$allocator@U?$pair@$$CBV?$basic_string@DU?$char_traits@D@std@@V?$allocator@D@2@@std@@V12@@std@@@2@$0A@@std@@@2@ABV?$basic_string@DU?$char_traits@D@std@@V?$allocator@D@2@@2@@Z 00499ca0 f i DlgScene.obj
 0001:00098d10       ?_Lrotate@?$_Tree@V?$_Tmap_traits@V?$basic_string@DU?$char_traits@D@std@@V?$allocator@D@2@@std@@V12@U?$less@V?$basic_string@DU?$char_traits@D@std@@V?$allocator@D@2@@std@@@2@V?$allocator@U?$pair@$$CBV?$basic_string@DU?$char_traits@D@std@@V?$allocator@D@2@@std@@V12@@std@@@2@$0A@@std@@@std@@IAEXPAU_Node@?$_Tree_nod@V?$_Tmap_traits@V?$basic_string@DU?$char_traits@D@std@@V?$allocator@D@2@@std@@V12@U?$less@V?$basic_string@DU?$char_traits@D@std@@V?$allocator@D@2@@std@@@2@V?$allocator@U?$pair@$$CBV?$basic_string@DU?$char_traits@D@std@@V?$allocator@D@2@@std@@V12@@std@@@2@$0A@@std@@@2@@Z 00499d10 f i DlgScene.obj
 0001:00098dc0       ?_Rrotate@?$_Tree@V?$_Tmap_traits@V?$basic_string@DU?$char_traits@D@std@@V?$allocator@D@2@@std@@V12@U?$less@V?$basic_string@DU?$char_traits@D@std@@V?$allocator@D@2@@std@@@2@V?$allocator@U?$pair@$$CBV?$basic_string@DU?$char_traits@D@std@@V?$allocator@D@2@@std@@V12@@std@@@2@$0A@@std@@@std@@IAEXPAU_Node@?$_Tree_nod@V?$_Tmap_traits@V?$basic_string@DU?$char_traits@D@std@@V?$allocator@D@2@@std@@V12@U?$less@V?$basic_string@DU?$char_traits@D@std@@V?$allocator@D@2@@std@@@2@V?$allocator@U?$pair@$$CBV?$basic_string@DU?$char_traits@D@std@@V?$allocator@D@2@@std@@V12@@std@@@2@$0A@@std@@@2@@Z 00499dc0 f i DlgScene.obj
 0001:00098e70       ?_Buynode@?$_Tree@V?$_Tmap_traits@V?$basic_string@DU?$char_traits@D@std@@V?$allocator@D@2@@std@@V12@U?$less@V?$basic_string@DU?$char_traits@D@std@@V?$allocator@D@2@@std@@@2@V?$allocator@U?$pair@$$CBV?$basic_string@DU?$char_traits@D@std@@V?$allocator@D@2@@std@@V12@@std@@@2@$0A@@std@@@std@@IAEPAU_Node@?$_Tree_nod@V?$_Tmap_traits@V?$basic_string@DU?$char_traits@D@std@@V?$allocator@D@2@@std@@V12@U?$less@V?$basic_string@DU?$char_traits@D@std@@V?$allocator@D@2@@std@@@2@V?$allocator@U?$pair@$$CBV?$basic_string@DU?$char_traits@D@std@@V?$allocator@D@2@@std@@V12@@std@@@2@$0A@@std@@@2@PAU342@00ABU?$pair@$$CBV?$basic_string@DU?$char_traits@D@std@@V?$allocator@D@2@@std@@V12@@2@D@Z 00499e70 f i DlgScene.obj
 0001:00098f60       ?_Dec@const_iterator@?$_Tree@V?$_Tmap_traits@V?$basic_string@DU?$char_traits@D@std@@V?$allocator@D@2@@std@@V12@U?$less@V?$basic_string@DU?$char_traits@D@std@@V?$allocator@D@2@@std@@@2@V?$allocator@U?$pair@$$CBV?$basic_string@DU?$char_traits@D@std@@V?$allocator@D@2@@std@@V12@@std@@@2@$0A@@std@@@std@@QAEXXZ 00499f60 f i DlgScene.obj
 0001:00099060       ??0?$pair@$$CBV?$basic_string@DU?$char_traits@D@std@@V?$allocator@D@2@@std@@V12@@std@@QAE@ABU01@@Z 0049a060 f i DlgScene.obj
 0001:00099120       ??$_Allocate@U_Node@?$_Tree_nod@V?$_Tmap_traits@V?$basic_string@DU?$char_traits@D@std@@V?$allocator@D@2@@std@@V12@U?$less@V?$basic_string@DU?$char_traits@D@std@@V?$allocator@D@2@@std@@@2@V?$allocator@U?$pair@$$CBV?$basic_string@DU?$char_traits@D@std@@V?$allocator@D@2@@std@@V12@@std@@@2@$0A@@std@@@std@@@std@@YAPAU_Node@?$_Tree_nod@V?$_Tmap_traits@V?$basic_string@DU?$char_traits@D@std@@V?$allocator@D@2@@std@@V12@U?$less@V?$basic_string@DU?$char_traits@D@std@@V?$allocator@D@2@@std@@@2@V?$allocator@U?$pair@$$CBV?$basic_string@DU?$char_traits@D@std@@V?$allocator@D@2@@std@@V12@@std@@@2@$0A@@std@@@0@IPAU120@@Z 0049a120 f i DlgScene.obj
 0001:00099180       ??0DlgSoundItem@@QAE@PAVCWnd@@@Z 0049a180 f   DlgSoundItem.obj
 0001:00099270       ??_EDlgSoundItem@@UAEPAXI@Z 0049a270 f i DlgSoundItem.obj
 0001:00099270       ??_GDlgSoundItem@@UAEPAXI@Z 0049a270 f i DlgSoundItem.obj
 0001:000992a0       ?DoDataExchange@DlgSoundItem@@MAEXPAVCDataExchange@@@Z 0049a2a0 f   DlgSoundItem.obj
 0001:00099300       ?GetMessageMap@DlgSoundItem@@MBEPBUAFX_MSGMAP@@XZ 0049a300 f   DlgSoundItem.obj
 0001:00099310       ?GetThisMessageMap@DlgSoundItem@@KGPBUAFX_MSGMAP@@XZ 0049a310 f   DlgSoundItem.obj
 0001:00099320       ?OnButton1@DlgSoundItem@@IAEXXZ 0049a320 f   DlgSoundItem.obj
 0001:000995f0       ?OnInitDialog@DlgSoundItem@@MAEHXZ 0049a5f0 f   DlgSoundItem.obj
 0001:00099630       ?Update@DlgSoundItem@@UAEXPAVSceItem@@H@Z 0049a630 f   DlgSoundItem.obj
 0001:00099a20       ?Retreive@DlgSoundItem@@UAEXPAVSceItem@@H@Z 0049aa20 f   DlgSoundItem.obj
 0001:0009a080       ?OnSpot@DlgSoundItem@@IAEXXZ 0049b080 f   DlgSoundItem.obj
 0001:0009a180       ?OnAmbient@DlgSoundItem@@IAEXXZ 0049b180 f   DlgSoundItem.obj
 0001:0009a1c0       ??0DlgStartPlayItem@@QAE@PAVCWnd@@@Z 0049b1c0 f   DlgStartPlayItem.obj
 0001:0009a270       ?IsDlgVisible@DlgGameItem@@UAEHXZ 0049b270 f i DlgGameItem.obj
 0001:0009a270       ?IsDlgVisible@DlgStartPlayItem@@UAEHXZ 0049b270 f i DlgStartPlayItem.obj
 0001:0009a270       ?IsDlgVisible@DlgLightItem@@UAEHXZ 0049b270 f i DlgLightItem.obj
 0001:0009a270       ?IsDlgVisible@DlgSoundItem@@UAEHXZ 0049b270 f i DlgSoundItem.obj
 0001:0009a270       ?IsDlgVisible@DlgTriggerItem@@UAEHXZ 0049b270 f i DlgTriggerItem.obj
 0001:0009a290       ??_GDlgStartPlayItem@@UAEPAXI@Z 0049b290 f i DlgStartPlayItem.obj
 0001:0009a290       ??_EDlgStartPlayItem@@UAEPAXI@Z 0049b290 f i DlgStartPlayItem.obj
 0001:0009a2c0       ?GetMessageMap@DlgStartPlayItem@@MBEPBUAFX_MSGMAP@@XZ 0049b2c0 f   DlgStartPlayItem.obj
 0001:0009a2d0       ?GetThisMessageMap@DlgStartPlayItem@@KGPBUAFX_MSGMAP@@XZ 0049b2d0 f   DlgStartPlayItem.obj
 0001:0009a2e0       ?OnInitDialog@DlgStartPlayItem@@MAEHXZ 0049b2e0 f   DlgStartPlayItem.obj
 0001:0009a310       ?OnDestroy@DlgStartPlayItem@@IAEXXZ 0049b310 f   DlgStartPlayItem.obj
 0001:0009a310       ?OnDestroy@DlgLightItem@@IAEXXZ 0049b310 f   DlgLightItem.obj
 0001:0009a310       ?OnDestroy@DlgSoundItem@@IAEXXZ 0049b310 f   DlgSoundItem.obj
 0001:0009a330       ?Update@DlgStartPlayItem@@UAEXPAVSceItem@@H@Z 0049b330 f   DlgStartPlayItem.obj
 0001:0009a360       ?Retreive@DlgStartPlayItem@@UAEXPAVSceItem@@H@Z 0049b360 f   DlgStartPlayItem.obj
 0001:0009a380       ?Show@DlgTriggerItem@@UAEXH@Z 0049b380 f   DlgTriggerItem.obj
 0001:0009a380       ?Show@DlgSoundItem@@UAEXH@Z 0049b380 f   DlgSoundItem.obj
 0001:0009a380       ?Show@DlgStartPlayItem@@UAEXH@Z 0049b380 f   DlgStartPlayItem.obj
 0001:0009a380       ?Show@DlgLightItem@@UAEXH@Z 0049b380 f   DlgLightItem.obj
 0001:0009a3c0       ??0CDlgTextures@@QAE@PAVCWnd@@@Z 0049b3c0 f   DlgTextures.obj
 0001:0009a7a0       ??0CBitmapButton@@QAE@XZ   0049b7a0 f i DlgTextures.obj
 0001:0009a860       ??_GCBitmapButton@@UAEPAXI@Z 0049b860 f i DlgTextures.obj
 0001:0009a860       ??_ECBitmapButton@@UAEPAXI@Z 0049b860 f i DlgTextures.obj
 0001:0009a890       ?GetTextureFullName@CDlgTextures@@UAEPBDH@Z 0049b890 f i DlgTextures.obj
 0001:0009a940       ??_GCDlgTextures@@UAEPAXI@Z 0049b940 f i DlgTextures.obj
 0001:0009a940       ??_ECDlgTextures@@UAEPAXI@Z 0049b940 f i DlgTextures.obj
 0001:0009a970       ?DoDataExchange@CDlgTextures@@MAEXPAVCDataExchange@@@Z 0049b970 f   DlgTextures.obj
 0001:0009ab10       ?GetMessageMap@CDlgTextures@@MBEPBUAFX_MSGMAP@@XZ 0049bb10 f   DlgTextures.obj
 0001:0009ab20       ?GetThisMessageMap@CDlgTextures@@KGPBUAFX_MSGMAP@@XZ 0049bb20 f   DlgTextures.obj
 0001:0009ab30       ?OnButton1@CDlgTextures@@IAEXXZ 0049bb30 f   DlgTextures.obj
 0001:0009aca0       ?OnInitDialog@CDlgTextures@@MAEHXZ 0049bca0 f   DlgTextures.obj
 0001:0009b070       ?OnDestroy@CDlgTextures@@IAEXXZ 0049c070 f   DlgTextures.obj
 0001:0009b0d0       ?BuildFileList@CDlgTextures@@IAEXXZ 0049c0d0 f   DlgTextures.obj
 0001:0009b4c0       ?PopSubDirText@CDlgTextures@@IAEXPBD@Z 0049c4c0 f   DlgTextures.obj
 0001:0009bd40       ?GetCurSel@CDlgTextures@@QAEHPAD@Z 0049cd40 f   DlgTextures.obj
 0001:0009bd90       ?ShowPicture@CDlgTextures@@IAEXH@Z 0049cd90 f   DlgTextures.obj
 0001:0009be90       ?OnCreate@CDlgTextures@@IAEHPAUtagCREATESTRUCTA@@@Z 0049ce90 f   DlgTextures.obj
 0001:0009bed0       ?OnDblclkList1@CDlgTextures@@IAEXXZ 0049ced0 f   DlgTextures.obj
 0001:0009bf00       ?OnSelchangeList1@CDlgTextures@@IAEXXZ 0049cf00 f   DlgTextures.obj
 0001:0009c220       ?OnCmdMsg@CDlgTextures@@UAEHIHPAXPAUAFX_CMDHANDLERINFO@@@Z 0049d220 f   DlgTextures.obj
 0001:0009c390       ?SetTexCoords@CDlgTextures@@QAEXAAUTexCoords@@@Z 0049d390 f   DlgTextures.obj
 0001:0009c5e0       ?OnOk@CDlgTextures@@IAEXXZ 0049d5e0 f   DlgTextures.obj
 0001:0009c620       ?OnGetDlgCode@CDlgTextures@@IAEIXZ 0049d620 f   DlgTextures.obj
 0001:0009c640       ?OnKeyDown@CDlgTextures@@IAEXIII@Z 0049d640 f   DlgTextures.obj
 0001:0009c690       ?OnChangeEdit3@CDlgTextures@@IAEXXZ 0049d690 f   DlgTextures.obj
 0001:0009c720       ?OnChangeEdit2@CDlgTextures@@IAEXXZ 0049d720 f   DlgTextures.obj
 0001:0009c7b0       ?OnChangeEdit5@CDlgTextures@@IAEXXZ 0049d7b0 f   DlgTextures.obj
 0001:0009c840       ?OnChangeEdit4@CDlgTextures@@IAEXXZ 0049d840 f   DlgTextures.obj
 0001:0009c8d0       ?OnDeltaposSpinShiftV@CDlgTextures@@IAEXPAUtagNMHDR@@PAJ@Z 0049d8d0 f   DlgTextures.obj
 0001:0009c950       ?OnDeltaposSpinShiftH@CDlgTextures@@IAEXPAUtagNMHDR@@PAJ@Z 0049d950 f   DlgTextures.obj
 0001:0009c9d0       ?OnDeltaposSpinScaleV@CDlgTextures@@IAEXPAUtagNMHDR@@PAJ@Z 0049d9d0 f   DlgTextures.obj
 0001:0009ca50       ?OnDeltaposSpinScaleH@CDlgTextures@@IAEXPAUtagNMHDR@@PAJ@Z 0049da50 f   DlgTextures.obj
 0001:0009cad0       ?SelectFaceTexture@CDlgTextures@@QAEXPBD@Z 0049dad0 f   DlgTextures.obj
 0001:0009cbb0       ?EnableTexControls@CDlgTextures@@QAEXH@Z 0049dbb0 f   DlgTextures.obj
 0001:0009ccd0       ?OnFliph@CDlgTextures@@IAEXXZ 0049dcd0 f   DlgTextures.obj
 0001:0009ccf0       ?OnFlipv@CDlgTextures@@IAEXXZ 0049dcf0 f   DlgTextures.obj
 0001:0009cd10       ?OnRotate@CDlgTextures@@IAEXXZ 0049dd10 f   DlgTextures.obj
 0001:0009cd50       ?Fliptexture@CDlgTextures@@IAEXD@Z 0049dd50 f   DlgTextures.obj
 0001:0009cda0       ?OnTexCoordChanged@CDlgTextures@@IAEXXZ 0049dda0 f   DlgTextures.obj
 0001:0009cde0       ?OnApplytex@CDlgTextures@@QAEHXZ 0049dde0 f   DlgTextures.obj
 0001:0009ce80       ?SetTexture@CDlgTextures@@QAEHAAVPoly@@AAH@Z 0049de80 f   DlgTextures.obj
 0001:0009cea0       ?OnCommand@CDlgTextures@@MAEHIJ@Z 0049dea0 f   DlgTextures.obj
 0001:0009cef0       ?OnSeltbt@CDlgTextures@@IAEXXZ 0049def0 f   DlgTextures.obj
 0001:0009cf80       ?DocSetTexture@CDlgTextures@@IAEHAAVSceItem@@AAH@Z 0049df80 f   DlgTextures.obj
 0001:0009d150       ?SetTex@TexCarrier@@QAEAAVHtex@@PBDHK@Z 0049e150 f i DlgTextures.obj
 0001:0009d1d0       ?DocSetTexture@CDlgTextures@@IAEHAAVPoly@@AAH@Z 0049e1d0 f   DlgTextures.obj
 0001:0009d4c0       ?DocOnApplytex@CDlgTextures@@IAEHXZ 0049e4c0 f   DlgTextures.obj
 0001:0009d990       ?DocOnTexCoordChanged@CDlgTextures@@IAEXXZ 0049e990 f   DlgTextures.obj
 0001:0009dcd0       ?DocFliptexture@CDlgTextures@@IAEXD@Z 0049ecd0 f   DlgTextures.obj
 0001:0009dec0       ?DocOnRotate@CDlgTextures@@IAEXXZ 0049eec0 f   DlgTextures.obj
 0001:0009e0b0       ?GetTextureSubPaths@CDlgTextures@@UAEXAAV?$vvector@V?$basic_string@DU?$char_traits@D@std@@V?$allocator@D@2@@std@@@@@Z 0049f0b0 f   DlgTextures.obj
 0001:0009e1b0       ?SelectSubPath@CDlgTextures@@UAEXH@Z 0049f1b0 f   DlgTextures.obj
 0001:0009e200       ?GettexGenFlag@CDlgTextures@@QAEKXZ 0049f200 f   DlgTextures.obj
 0001:0009e330       ?OnDeltex@CDlgTextures@@IAEXXZ 0049f330 f   DlgTextures.obj
 0001:0009e360       ?OnCloseupTab1@CDlgTextures@@IAEXXZ 0049f360 f   DlgTextures.obj
 0001:0009e410       ?OnAction@CDlgTextures@@UAEXXZ 0049f410 f   DlgTextures.obj
 0001:0009e430       ??0?$basic_string@DU?$char_traits@D@std@@V?$allocator@D@2@@std@@QAE@XZ 0049f430 f i DlgTextures.obj
 0001:0009e460       ??0?$vvector@V?$basic_string@DU?$char_traits@D@std@@V?$allocator@D@2@@std@@@@QAE@XZ 0049f460 f i DlgTextures.obj
 0001:0009e4a0       ??$forall@V?$vvector@VPoly@@@@VCDlgTextures@@P82@AEHAAVPoly@@AAH@ZH@@YAXAAV?$vvector@VPoly@@@@PAVCDlgTextures@@P81@AEHAAVPoly@@AAH@Z3@Z 0049f4a0 f i DlgTextures.obj
 0001:0009e520       ?end@?$vector@PAUHWND__@@V?$allocator@PAUHWND__@@@std@@@std@@QAE?AV?$_Vector_iterator@PAUHWND__@@V?$allocator@PAUHWND__@@@std@@@2@XZ 0049f520 f i VertDlgDlg.obj
 0001:0009e520       ?end@?$vector@VVtx2@@V?$allocator@VVtx2@@@std@@@std@@QAE?AV?$_Vector_iterator@VVtx2@@V?$allocator@VVtx2@@@std@@@2@XZ 0049f520 f i BspTree.obj
 0001:0009e520       ?end@?$vector@PAVV3@@V?$allocator@PAVV3@@@std@@@std@@QAE?AV?$_Vector_iterator@PAVV3@@V?$allocator@PAVV3@@@std@@@2@XZ 0049f520 f i z_ed2View.obj
 0001:0009e520       ?end@?$vector@PAVBrush@@V?$allocator@PAVBrush@@@std@@@std@@QAE?AV?$_Vector_iterator@PAVBrush@@V?$allocator@PAVBrush@@@std@@@2@XZ 0049f520 f i brush.obj
 0001:0009e520       ?end@?$vector@PAULmSizeBuff@@V?$allocator@PAULmSizeBuff@@@std@@@std@@QAE?AV?$_Vector_iterator@PAULmSizeBuff@@V?$allocator@PAULmSizeBuff@@@std@@@2@XZ 0049f520 f i LMProc.obj
 0001:0009e520       ?end@?$vector@V?$basic_string@DU?$char_traits@D@std@@V?$allocator@D@2@@std@@V?$allocator@V?$basic_string@DU?$char_traits@D@std@@V?$allocator@D@2@@std@@@2@@std@@QAE?AV?$_Vector_iterator@V?$basic_string@DU?$char_traits@D@std@@V?$allocator@D@2@@std@@V?$allocator@V?$basic_string@DU?$char_traits@D@std@@V?$allocator@D@2@@std@@@2@@2@XZ 0049f520 f i LbEditable.obj
 0001:0009e520       ?end@?$vector@PAUGroup@CVertDlgDlg@@V?$allocator@PAUGroup@CVertDlgDlg@@@std@@@std@@QAE?AV?$_Vector_iterator@PAUGroup@CVertDlgDlg@@V?$allocator@PAUGroup@CVertDlgDlg@@@std@@@2@XZ 0049f520 f i VertDlgDlg.obj
 0001:0009e520       ?end@?$vector@VPoly@@V?$allocator@VPoly@@@std@@@std@@QAE?AV?$_Vector_iterator@VPoly@@V?$allocator@VPoly@@@std@@@2@XZ 0049f520 f i DlgTextures.obj
 0001:0009e520       ?end@?$vector@PAVCLightBulb@@V?$allocator@PAVCLightBulb@@@std@@@std@@QAE?AV?$_Vector_iterator@PAVCLightBulb@@V?$allocator@PAVCLightBulb@@@std@@@2@XZ 0049f520 f i LMProc.obj
 0001:0009e520       ?end@?$vector@USPlugIn@CZ_ed2App@@V?$allocator@USPlugIn@CZ_ed2App@@@std@@@std@@QAE?AV?$_Vector_iterator@USPlugIn@CZ_ed2App@@V?$allocator@USPlugIn@CZ_ed2App@@@std@@@2@XZ 0049f520 f i z_edmap.obj
 0001:0009e580       ??0DlgTriggerItem@@QAE@PAVCWnd@@@Z 0049f580 f   DlgTriggerItem.obj
 0001:0009e6a0       ??_GDlgTriggerItem@@UAEPAXI@Z 0049f6a0 f i DlgTriggerItem.obj
 0001:0009e6a0       ??_EDlgTriggerItem@@UAEPAXI@Z 0049f6a0 f i DlgTriggerItem.obj
 0001:0009e6d0       ?DoDataExchange@DlgTriggerItem@@MAEXPAVCDataExchange@@@Z 0049f6d0 f   DlgTriggerItem.obj
 0001:0009e710       ?GetMessageMap@DlgTriggerItem@@MBEPBUAFX_MSGMAP@@XZ 0049f710 f   DlgTriggerItem.obj
 0001:0009e720       ?GetThisMessageMap@DlgTriggerItem@@KGPBUAFX_MSGMAP@@XZ 0049f720 f   DlgTriggerItem.obj
 0001:0009e730       ?OnInitDialog@DlgTriggerItem@@MAEHXZ 0049f730 f   DlgTriggerItem.obj
 0001:0009e770       ?Update@DlgTriggerItem@@UAEXPAVSceItem@@H@Z 0049f770 f   DlgTriggerItem.obj
 0001:0009e880       ?Retreive@DlgTriggerItem@@UAEXPAVSceItem@@H@Z 0049f880 f   DlgTriggerItem.obj
 0001:0009e960       ?SetEfectBrush@TriggerItem@@QAEXPAVBrush@@H@Z 0049f960 f i DlgTriggerItem.obj
 0001:0009eb00       ?RefreshTriggerEfects@DlgTriggerItem@@IAEXXZ 0049fb00 f   DlgTriggerItem.obj
 0001:0009ecc0       ?OnShowWindow@DlgTriggerItem@@IAEXHI@Z 0049fcc0 f   DlgTriggerItem.obj
 0001:0009ecf0       ?DialogProc@@YAHPAUHWND__@@IIJ@Z 0049fcf0 f   ProgressDlg.obj
 0001:0009eea0       ?Show@ProgressDlg@@QAEXHPBDI@Z 0049fea0 f   ProgressDlg.obj
 0001:0009f040       ?ThreadProc@@YAIPAX@Z      004a0040 f   ProgressDlg.obj
 0001:0009f080       ??0TabDlgSel@@QAE@XZ       004a0080 f   TabDlgSel.obj
 0001:0009f110       ??_ETabDlgSel@@UAEPAXI@Z   004a0110 f i TabDlgSel.obj
 0001:0009f110       ??_GTabDlgSel@@UAEPAXI@Z   004a0110 f i TabDlgSel.obj
 0001:0009f140       ??1TabDlgSel@@UAE@XZ       004a0140 f   TabDlgSel.obj
 0001:0009f1f0       ?GetMessageMap@TabDlgSel@@MBEPBUAFX_MSGMAP@@XZ 004a01f0 f   TabDlgSel.obj
 0001:0009f200       ?GetThisMessageMap@TabDlgSel@@KGPBUAFX_MSGMAP@@XZ 004a0200 f   TabDlgSel.obj
 0001:0009f210       ?OnSelchangeDlgs@TabDlgSel@@QAEXPAUtagNMHDR@@PAJ@Z 004a0210 f   TabDlgSel.obj
 0001:0009f3a0       ?OnSelchangingDlgs@TabDlgSel@@QAEXPAUtagNMHDR@@PAJ@Z 004a03a0 f   TabDlgSel.obj
 0001:0009f470       ?AddDialog@TabDlgSel@@QAEXPAVCBaseDlg@@PBDHI@Z 004a0470 f   TabDlgSel.obj
 0001:0009f530       ??0?$_Tree@V?$_Tmap_traits@HHU?$less@H@std@@V?$allocator@U?$pair@$$CBHH@std@@@2@$0A@@std@@@std@@QAE@ABU?$less@H@1@ABV?$allocator@U?$pair@$$CBHH@std@@@1@@Z 004a0530 f i CompilerStream.obj
 0001:0009f530       ??0?$_Tree@V?$_Tmap_traits@PAVCDialog@@IU?$less@PAVCDialog@@@std@@V?$allocator@U?$pair@QAVCDialog@@I@std@@@3@$0A@@std@@@std@@QAE@ABU?$less@PAVCDialog@@@1@ABV?$allocator@U?$pair@QAVCDialog@@I@std@@@1@@Z 004a0530 f i TabDlgSel.obj
 0001:0009f530       ??0?$_Tree@V?$_Tmap_traits@HPAVBrush@@U?$less@H@std@@V?$allocator@U?$pair@$$CBHPAVBrush@@@std@@@3@$0A@@std@@@std@@QAE@ABU?$less@H@1@ABV?$allocator@U?$pair@$$CBHPAVBrush@@@std@@@1@@Z 004a0530 f i z_ed2DocSave.obj
 0001:0009f530       ??0?$_Tree@V?$_Tmap_traits@PAVBrush@@HU?$less@PAVBrush@@@std@@V?$allocator@U?$pair@QAVBrush@@H@std@@@3@$0A@@std@@@std@@QAE@ABU?$less@PAVBrush@@@1@ABV?$allocator@U?$pair@QAVBrush@@H@std@@@1@@Z 004a0530 f i DlgBar.obj
 0001:0009f5d0       ?_Tidy@?$_Tree@V?$_Tmap_traits@PAVBrush@@HU?$less@PAVBrush@@@std@@V?$allocator@U?$pair@QAVBrush@@H@std@@@3@$0A@@std@@@std@@IAEXXZ 004a05d0 f i DlgBar.obj
 0001:0009f5d0       ?_Tidy@?$_Tree@V?$_Tmap_traits@PAVCDialog@@IU?$less@PAVCDialog@@@std@@V?$allocator@U?$pair@QAVCDialog@@I@std@@@3@$0A@@std@@@std@@IAEXXZ 004a05d0 f i TabDlgSel.obj
 0001:0009f5d0       ?_Tidy@?$_Tree@V?$_Tmap_traits@HPAVBrush@@U?$less@H@std@@V?$allocator@U?$pair@$$CBHPAVBrush@@@std@@@3@$0A@@std@@@std@@IAEXXZ 004a05d0 f i z_ed2DocSave.obj
 0001:0009f5d0       ?_Tidy@?$_Tree@V?$_Tmap_traits@HHU?$less@H@std@@V?$allocator@U?$pair@$$CBHH@std@@@2@$0A@@std@@@std@@IAEXXZ 004a05d0 f i CompilerStream.obj
 0001:0009f6e0       ?erase@?$_Tree@V?$_Tmap_traits@HPAVBrush@@U?$less@H@std@@V?$allocator@U?$pair@$$CBHPAVBrush@@@std@@@3@$0A@@std@@@std@@QAE?AViterator@12@Vconst_iterator@12@0@Z 004a06e0 f i z_ed2DocSave.obj
 0001:0009f6e0       ?erase@?$_Tree@V?$_Tmap_traits@HHU?$less@H@std@@V?$allocator@U?$pair@$$CBHH@std@@@2@$0A@@std@@@std@@QAE?AViterator@12@Vconst_iterator@12@0@Z 004a06e0 f i CompilerStream.obj
 0001:0009f6e0       ?erase@?$_Tree@V?$_Tmap_traits@PAVCDialog@@IU?$less@PAVCDialog@@@std@@V?$allocator@U?$pair@QAVCDialog@@I@std@@@3@$0A@@std@@@std@@QAE?AViterator@12@Vconst_iterator@12@0@Z 004a06e0 f i TabDlgSel.obj
 0001:0009f6e0       ?erase@?$_Tree@V?$_Tmap_traits@PAVBrush@@HU?$less@PAVBrush@@@std@@V?$allocator@U?$pair@QAVBrush@@H@std@@@3@$0A@@std@@@std@@QAE?AViterator@12@Vconst_iterator@12@0@Z 004a06e0 f i DlgBar.obj
 0001:0009f8e0       ?_Init@?$_Tree@V?$_Tmap_traits@PAVBrush@@HU?$less@PAVBrush@@@std@@V?$allocator@U?$pair@QAVBrush@@H@std@@@3@$0A@@std@@@std@@IAEXXZ 004a08e0 f i DlgBar.obj
 0001:0009f8e0       ?_Init@?$_Tree@V?$_Tmap_traits@HPAVBrush@@U?$less@H@std@@V?$allocator@U?$pair@$$CBHPAVBrush@@@std@@@3@$0A@@std@@@std@@IAEXXZ 004a08e0 f i z_ed2DocSave.obj
 0001:0009f8e0       ?_Init@?$_Tree@V?$_Tmap_traits@HHU?$less@H@std@@V?$allocator@U?$pair@$$CBHH@std@@@2@$0A@@std@@@std@@IAEXXZ 004a08e0 f i CompilerStream.obj
 0001:0009f8e0       ?_Init@?$_Tree@V?$_Tmap_traits@PAVCDialog@@IU?$less@PAVCDialog@@@std@@V?$allocator@U?$pair@QAVCDialog@@I@std@@@3@$0A@@std@@@std@@IAEXXZ 004a08e0 f i TabDlgSel.obj
 0001:0009f950       ?erase@?$_Tree@V?$_Tmap_traits@HHU?$less@H@std@@V?$allocator@U?$pair@$$CBHH@std@@@2@$0A@@std@@@std@@QAE?AViterator@12@Vconst_iterator@12@@Z 004a0950 f i CompilerStream.obj
 0001:0009f950       ?erase@?$_Tree@V?$_Tmap_traits@PAVBrush@@HU?$less@PAVBrush@@@std@@V?$allocator@U?$pair@QAVBrush@@H@std@@@3@$0A@@std@@@std@@QAE?AViterator@12@Vconst_iterator@12@@Z 004a0950 f i DlgBar.obj
 0001:0009f950       ?erase@?$_Tree@V?$_Tmap_traits@PAVCDialog@@IU?$less@PAVCDialog@@@std@@V?$allocator@U?$pair@QAVCDialog@@I@std@@@3@$0A@@std@@@std@@QAE?AViterator@12@Vconst_iterator@12@@Z 004a0950 f i TabDlgSel.obj
 0001:0009f950       ?erase@?$_Tree@V?$_Tmap_traits@HPAVBrush@@U?$less@H@std@@V?$allocator@U?$pair@$$CBHPAVBrush@@@std@@@3@$0A@@std@@@std@@QAE?AViterator@12@Vconst_iterator@12@@Z 004a0950 f i z_ed2DocSave.obj
 0001:0009ff50       ?_Buynode@?$_Tree@V?$_Tmap_traits@PAVCDialog@@IU?$less@PAVCDialog@@@std@@V?$allocator@U?$pair@QAVCDialog@@I@std@@@3@$0A@@std@@@std@@IAEPAU_Node@?$_Tree_nod@V?$_Tmap_traits@PAVCDialog@@IU?$less@PAVCDialog@@@std@@V?$allocator@U?$pair@QAVCDialog@@I@std@@@3@$0A@@std@@@2@XZ 004a0f50 f i TabDlgSel.obj
 0001:0009ff50       ?_Buynode@?$_Tree@V?$_Tmap_traits@PAVBrush@@HU?$less@PAVBrush@@@std@@V?$allocator@U?$pair@QAVBrush@@H@std@@@3@$0A@@std@@@std@@IAEPAU_Node@?$_Tree_nod@V?$_Tmap_traits@PAVBrush@@HU?$less@PAVBrush@@@std@@V?$allocator@U?$pair@QAVBrush@@H@std@@@3@$0A@@std@@@2@XZ 004a0f50 f i DlgBar.obj
 0001:0009ff50       ?_Buynode@?$_Tree@V?$_Tmap_traits@HPAVBrush@@U?$less@H@std@@V?$allocator@U?$pair@$$CBHPAVBrush@@@std@@@3@$0A@@std@@@std@@IAEPAU_Node@?$_Tree_nod@V?$_Tmap_traits@HPAVBrush@@U?$less@H@std@@V?$allocator@U?$pair@$$CBHPAVBrush@@@std@@@3@$0A@@std@@@2@XZ 004a0f50 f i z_ed2DocSave.obj
 0001:0009ff50       ?_Buynode@?$_Tree@V?$_Tmap_traits@HHU?$less@H@std@@V?$allocator@U?$pair@$$CBHH@std@@@2@$0A@@std@@@std@@IAEPAU_Node@?$_Tree_nod@V?$_Tmap_traits@HHU?$less@H@std@@V?$allocator@U?$pair@$$CBHH@std@@@2@$0A@@std@@@2@XZ 004a0f50 f i CompilerStream.obj
 0001:000a00a0       ??$tmin@J@@YAJJJ@Z         004a10a0 f i TabDlgSel.obj
 0001:000a00a0       ??$tmin@H@@YAHHH@Z         004a10a0 f i LMProc.obj
 0001:000a00d0       ?Serialize@CBigTerrain@@QAEXPAVFileWrap@baseg@@ABV?$vvector@UTexture@@@@AAV?$map@HHU?$less@H@std@@V?$allocator@U?$pair@$$CBHH@std@@@2@@std@@@Z 004a10d0 f   BigTerrain.obj
 0001:000a0340       ?Render@CBigTerrain@@QAEXH@Z 004a1340 f   BigTerrain.obj
 0001:000a0a30       ?AnimateSurfaceTexture@CBigTerrain@@QAEXAAUUV@@0@Z 004a1a30 f   BigTerrain.obj
 0001:000a0bb0       ?Create@CBigTerrain@@QAEHPBEABVV3@@1HH@Z 004a1bb0 f   BigTerrain.obj
 0001:000a0e60       ?Clear@CBigTerrain@@QAEXH@Z 004a1e60 f   BigTerrain.obj
 0001:000a0ee0       ??4CBigTerrain@@QAEAAV0@ABV0@@Z 004a1ee0 f   BigTerrain.obj
 0001:000a1090       ??4?$RawBuff@E@@QAEAAU0@ABU0@@Z 004a2090 f i BigTerrain.obj
 0001:000a1110       ??$Serialize@UUV@@@FileWrap@baseg@@QAEHAAUUV@@@Z 004a2110 f i BigTerrain.obj
 0001:000a1170       ??$tmin@E@@YAEEE@Z         004a2170 f i BigTerrain.obj
 0001:000a11a0       ??$tmax@E@@YAEEE@Z         004a21a0 f i BigTerrain.obj
 0001:000a11d0       ??0Brush@@QAE@XZ           004a21d0 f   brush.obj
 0001:000a1660       ??1BaseEntity@@UAE@XZ      004a2660 f i brush.obj
 0001:000a1680       ??_GBaseEntity@@UAEPAXI@Z  004a2680 f i brush.obj
 0001:000a1680       ??_EBaseEntity@@UAEPAXI@Z  004a2680 f i brush.obj
 0001:000a16c0       ??_EBrush@@UAEPAXI@Z       004a26c0 f i brush.obj
 0001:000a16c0       ??_GBrush@@UAEPAXI@Z       004a26c0 f i brush.obj
 0001:000a16f0       ??1Brush@@UAE@XZ           004a26f0 f   brush.obj
 0001:000a1920       ??0Brush@@QAE@ABV0@@Z      004a2920 f   brush.obj
 0001:000a1ce0       ?Equal@Brush@@QAEXABV1@H@Z 004a2ce0 f   brush.obj
 0001:000a2390       ?GetTxPolysCopy@Brush@@QAEXAAV?$vvector@VPoly@@@@@Z 004a3390 f   brush.obj
 0001:000a2730       ??6Brush@@QAEAAV0@ABV0@@Z  004a3730 f   brush.obj
 0001:000a28c0       ??6Brush@@QAEAAV0@AAVPoly@@@Z 004a38c0 f   brush.obj
 0001:000a2930       ?Clear@Brush@@QAEXXZ       004a3930 f   brush.obj
 0001:000a2b70       ?GetResult@Brush@@QAEAAV1@XZ 004a3b70 f   brush.obj
 0001:000a2b90       ?Recalc@Brush@@QAEXH@Z     004a3b90 f   brush.obj
 0001:000a2e40       ?Expand0@Box@@QAEXMM@Z     004a3e40 f i brush.obj
 0001:000a3000       ?FlagFaces@Brush@@QAEXK@Z  004a4000 f   brush.obj
 0001:000a3090       ?Reverse@Brush@@QAEXXZ     004a4090 f   brush.obj
 0001:000a3170       ?RemoveProjection@Brush@@QAEXPAV1@@Z 004a4170 f   brush.obj
 0001:000a31a0       ?AddCutter@Brush@@QAEXPAV1@@Z 004a41a0 f   brush.obj
 0001:000a3200       ?RemoveCutter@Brush@@QAEXPAV1@@Z 004a4200 f   brush.obj
 0001:000a3270       ?AppendPrim@Brush@@QAEXAAV1@@Z 004a4270 f   brush.obj
 0001:000a33d0       ?AddBrush@Brush@@QAEXPAV1@@Z 004a43d0 f   brush.obj
 0001:000a3400       ?RemoveBrush@Brush@@QAEXPAV1@@Z 004a4400 f   brush.obj
 0001:000a3430       ?MRadRotate@@YA?AVM4@@MMM@Z 004a4430 f i brush.obj
 0001:000a36d0       ?Move@Brush@@QAEXAAVV3@@@Z 004a46d0 f   brush.obj
 0001:000a38e0       ?RescalePolys@Brush@@AAEXHHAAVV3@@0AAVBox@@1@Z 004a48e0 f   brush.obj
 0001:000a3df0       ?Scale@Brush@@QAEXAAVV3@@0M@Z 004a4df0 f   brush.obj
 0001:000a4110       ?Raise@Brush@@QAEXAAVV3@@M@Z 004a5110 f   brush.obj
 0001:000a41a0       ?Shift@Brush@@AAEXAAVV3@@@Z 004a51a0 f   brush.obj
 0001:000a43f0       ?Rotate@Brush@@QAEXAAVV3@@H@Z 004a53f0 f   brush.obj
 0001:000a4b70       ?ApplyCuts@Brush@@QAEHXZ   004a5b70 f   brush.obj
 0001:000a5b90       ?UpdateSolidsTouches@Brush@@QAEXXZ 004a6b90 f   brush.obj
 0001:000a5c60       ?UpdateCutsTouches@Brush@@QAEXXZ 004a6c60 f   brush.obj
 0001:000a5da0       ?DeletePolys@Brush@@QAEXXZ 004a6da0 f   brush.obj
 0001:000a5ec0       ?Deleteface@Brush@@QAEXPAVPoly@@@Z 004a6ec0 f   brush.obj
 0001:000a5f90       ?DeleteResultPtr@Brush@@AAEXXZ 004a6f90 f   brush.obj
 0001:000a5fe0       ?AlocateResultPtr@Brush@@AAEXXZ 004a6fe0 f   brush.obj
 0001:000a60c0       ?MakeCube@Brush@@QAEXAAVV3@@W4_TEX_MAP@@@Z 004a70c0 f   brush.obj
 0001:000a8ff0       ?MakeCylinder@Brush@@QAEXMMHHW4_TEX_MAP@@@Z 004a9ff0 f   brush.obj
 0001:000aa9d0       ??0Vtx2@@QAE@XZ            004ab9d0 f i brush.obj
 0001:000aaa20       ?MakeCone@Brush@@QAEXMMHHW4_TEX_MAP@@@Z 004aba20 f   brush.obj
 0001:000abe30       ?ModifyTexCoord@Brush@@QAEXH@Z 004ace30 f   brush.obj
 0001:000ac110       ?CalctexCoord@Brush@@QAEXH@Z 004ad110 f   brush.obj
 0001:000ac1b0       ?MakeStairs@Brush@@QAEXAAVV3@@HHMW4_TEX_MAP@@@Z 004ad1b0 f   brush.obj
 0001:000ac5d0       ?MakeSphere@Brush@@QAEXMHHW4_TEX_MAP@@@Z 004ad5d0 f   brush.obj
 0001:000ae240       ?MakeSheet@Brush@@QAEXAAVV3@@HHW4_TEX_MAP@@@Z 004af240 f   brush.obj
 0001:000ae860       ?SetPos@Brush@@QAEXAAVV3@@@Z 004af860 f   brush.obj
 0001:000ae8e0       ?SetSize@Brush@@QAEXAAVBox@@@Z 004af8e0 f   brush.obj
 0001:000aed00       ?ResetTexCoords@Brush@@QAEXH@Z 004afd00 f   brush.obj
 0001:000aedf0       ?StoreInitiaTexCoord@Brush@@AAEXXZ 004afdf0 f   brush.obj
 0001:000af030       ?ErasePoly@Brush@@QAEXAAVPoly@@@Z 004b0030 f   brush.obj
 0001:000af0a0       ?AddPolys@Brush@@QAEXAAV?$vvector@VPoly@@@@@Z 004b00a0 f   brush.obj
 0001:000af1e0       ?AddPoly@Brush@@QAEXAAVPoly@@@Z 004b01e0 f   brush.obj
 0001:000af250       ?MakeTerrain@Brush@@QAEXAAVV3@@HHPAE@Z 004b0250 f   brush.obj
 0001:000af890       ?Split@Brush@@QAEHAAV1@00@Z 004b0890 f   brush.obj
 0001:000aff50       ?CalcEnvTc@Brush@@AAEXH@Z  004b0f50 f   brush.obj
 0001:000b0230       ?CopyDiametral@Brush@@QAEHABV1@@Z 004b1230 f   brush.obj
 0001:000b0e90       ?RecalcBoxAndNormals@Brush@@QAEHH@Z 004b1e90 f   brush.obj
 0001:000b11d0       ?FindNormal@Brush@@QAEXAAVVtx2@@AAV?$vvector@VPoly@@@@@Z 004b21d0 f   brush.obj
 0001:000b15c0       ?CalcVxNormals@Brush@@QAEXXZ 004b25c0 f   brush.obj
 0001:000b1610       ?CalcVxTask@Brush@@QAEHXZ  004b2610 f   brush.obj
 0001:000b1e20       ?Triangulate@Brush@@QAEHXZ 004b2e20 f   brush.obj
 0001:000b24d0       ?TriFanIt@Brush@@QAEXXZ    004b34d0 f   brush.obj
 0001:000b26e0       ?HasFlag@Brush@@QAEHK@Z    004b36e0 f   brush.obj
 0001:000b2700       ?IsCut@Brush@@QAEHXZ       004b3700 f   brush.obj
 0001:000b2750       ?IsProjector@Brush@@QAEHXZ 004b3750 f   brush.obj
 0001:000b2770       ?IsSplitter@Brush@@QAEHXZ  004b3770 f   brush.obj
 0001:000b2790       ?IsZone@Brush@@QAEHXZ      004b3790 f   brush.obj
 0001:000b27b0       ?IsSelection@Brush@@QAEHXZ 004b37b0 f   brush.obj
 0001:000b27f0       ?IsSpecial@Brush@@QAEHXZ   004b37f0 f   brush.obj
 0001:000b2830       ?GetNextPoly@Brush@@QAEPAVPoly@@PAV2@@Z 004b3830 f   brush.obj
 0001:000b2960       ?GetPrevPoly@Brush@@QAEPAVPoly@@PAV2@@Z 004b3960 f   brush.obj
 0001:000b2a70       ?findelement@?$vvector@VPoly@@@@QAE?AV?$_Vector_iterator@VPoly@@V?$allocator@VPoly@@@std@@@std@@AAVPoly@@@Z 004b3a70 f i brush.obj
 0001:000b2b80       ?push_unique@?$vvector@VPoly@@@@QAEHAAVPoly@@PAI@Z 004b3b80 f i brush.obj
 0001:000b2da0       ?erase_if@?$vvector@VPoly@@@@QAEHAAVPoly@@@Z 004b3da0 f i brush.obj
 0001:000b2ed0       ??0?$vector@VPoly@@V?$allocator@VPoly@@@std@@@std@@QAE@ABV01@@Z 004b3ed0 f i brush.obj
 0001:000b3140       ?erase_if@?$vvector@PAVBrush@@@@QAEHAAPAVBrush@@@Z 004b4140 f i brush.obj
 0001:000b3140       ?erase_if@?$vvector@PAVSceItem@@@@QAEHAAPAVSceItem@@@Z 004b4140 f i z_ed2Doc.obj
 0001:000b3140       ?erase_if@?$vvector@PAVPoly@@@@QAEHAAPAVPoly@@@Z 004b4140 f i z_ed2Doc.obj
 0001:000b3260       ?Add@?$TaskClass@VBrush@@@@QAEXPAVBrush@@P82@AEHXZ@Z 004b4260 f i brush.obj
 0001:000b32f0       ??G?$_Vector_iterator@VPoly@@V?$allocator@VPoly@@@std@@@std@@QBEHABV?$_Vector_const_iterator@VPoly@@V?$allocator@VPoly@@@std@@@1@@Z 004b42f0 f i brush.obj
 0001:000b3350       ?back@?$vector@VPoly@@V?$allocator@VPoly@@@std@@@std@@QAEAAVPoly@@XZ 004b4350 f i brush.obj
 0001:000b33d0       ?findelement@?$vvector@PAVPoly@@@@QAE?AV?$_Vector_iterator@PAVPoly@@V?$allocator@PAVPoly@@@std@@@std@@AAPAVPoly@@@Z 004b43d0 f i z_ed2Doc.obj
 0001:000b33d0       ?findelement@?$vvector@PAVSceItem@@@@QAE?AV?$_Vector_iterator@PAVSceItem@@V?$allocator@PAVSceItem@@@std@@@std@@AAPAVSceItem@@@Z 004b43d0 f i z_ed2Doc.obj
 0001:000b33d0       ?findelement@?$vvector@PAVVtx2@@@@QAE?AV?$_Vector_iterator@PAVVtx2@@V?$allocator@PAVVtx2@@@std@@@std@@AAPAVVtx2@@@Z 004b43d0 f i z_ed2Doc.obj
 0001:000b33d0       ?findelement@?$vvector@PAVBrush@@@@QAE?AV?$_Vector_iterator@PAVBrush@@V?$allocator@PAVBrush@@@std@@@std@@AAPAVBrush@@@Z 004b43d0 f i brush.obj
 0001:000b33d0       ?findelement@?$vvector@PAVCMotion@@@@QAE?AV?$_Vector_iterator@PAVCMotion@@V?$allocator@PAVCMotion@@@std@@@std@@AAPAVCMotion@@@Z 004b43d0 f i Compiler.obj
 0001:000b34e0       ?push_back@?$deque@USpr@?$TaskClass@VBrush@@@@V?$allocator@USpr@?$TaskClass@VBrush@@@@@std@@@std@@QAEXABUSpr@?$TaskClass@VBrush@@@@@Z 004b44e0 f i brush.obj
 0001:000b3640       ?_Growmap@?$deque@USpr@?$TaskClass@VBrush@@@@V?$allocator@USpr@?$TaskClass@VBrush@@@@@std@@@std@@IAEXI@Z 004b4640 f i brush.obj
 0001:000b3a00       ??F?$_Vector_const_iterator@VVtx2@@V?$allocator@VVtx2@@@std@@@std@@QAEAAV01@XZ 004b4a00 f i brush.obj
 0001:000b3a80       ?_Xlen@?$deque@USpr@?$TaskClass@VBrush@@@@V?$allocator@USpr@?$TaskClass@VBrush@@@@@std@@@std@@KAXXZ 004b4a80 f i brush.obj
 0001:000b3b00       ??$unchecked_uninitialized_copy@PAHPAHV?$allocator@H@std@@@stdext@@YAPAHPAH00AAV?$allocator@H@std@@@Z 004b4b00 f i BspTree.obj
 0001:000b3b00       ??$unchecked_uninitialized_copy@PAPAUGroup@CVertDlgDlg@@PAPAU12@V?$allocator@PAUGroup@CVertDlgDlg@@@std@@@stdext@@YAPAPAUGroup@CVertDlgDlg@@PAPAU12@00AAV?$allocator@PAUGroup@CVertDlgDlg@@@std@@@Z 004b4b00 f i VertDlgDlg.obj
 0001:000b3b00       ??$unchecked_uninitialized_copy@PAPAVPoly@@PAPAV1@V?$allocator@PAVPoly@@@std@@@stdext@@YAPAPAVPoly@@PAPAV1@00AAV?$allocator@PAVPoly@@@std@@@Z 004b4b00 f i BspTree.obj
 0001:000b3b00       ??$unchecked_uninitialized_copy@PAPAVCMotion@@PAPAV1@V?$allocator@PAVCMotion@@@std@@@stdext@@YAPAPAVCMotion@@PAPAV1@00AAV?$allocator@PAVCMotion@@@std@@@Z 004b4b00 f i z_ed2Doc.obj
 0001:000b3b00       ??$unchecked_uninitialized_copy@PAPAVSceItem@@PAPAV1@V?$allocator@PAVSceItem@@@std@@@stdext@@YAPAPAVSceItem@@PAPAV1@00AAV?$allocator@PAVSceItem@@@std@@@Z 004b4b00 f i z_ed2Doc.obj
 0001:000b3b00       ??$unchecked_uninitialized_copy@PAPAVTerNode@@PAPAV1@V?$allocator@PAVTerNode@@@std@@@stdext@@YAPAPAVTerNode@@PAPAV1@00AAV?$allocator@PAVTerNode@@@std@@@Z 004b4b00 f i TerTree.obj
 0001:000b3b00       ??$unchecked_uninitialized_copy@PAPAVCLightBulb@@PAPAV1@V?$allocator@PAVCLightBulb@@@std@@@stdext@@YAPAPAVCLightBulb@@PAPAV1@00AAV?$allocator@PAVCLightBulb@@@std@@@Z 004b4b00 f i LMProc.obj
 0001:000b3b00       ??$unchecked_uninitialized_copy@PAPAV?$map@HHU?$less@H@std@@V?$allocator@U?$pair@$$CBHH@std@@@2@@std@@PAPAV12@V?$allocator@PAV?$map@HHU?$less@H@std@@V?$allocator@U?$pair@$$CBHH@std@@@2@@std@@@2@@stdext@@YAPAPAV?$map@HHU?$less@H@std@@V?$allocator@U?$pair@$$CBHH@std@@@2@@std@@PAPAV12@00AAV?$allocator@PAV?$map@HHU?$less@H@std@@V?$allocator@U?$pair@$$CBHH@std@@@2@@std@@@2@@Z 004b4b00 f i CompilerStream.obj
 0001:000b3b00       ??$unchecked_uninitialized_copy@PAPAVCMiniNode@@PAPAV1@V?$allocator@PAVCMiniNode@@@std@@@stdext@@YAPAPAVCMiniNode@@PAPAV1@00AAV?$allocator@PAVCMiniNode@@@std@@@Z 004b4b00 f i BspTree.obj
 0001:000b3b00       ??$unchecked_uninitialized_copy@PAMPAMV?$allocator@M@std@@@stdext@@YAPAMPAM00AAV?$allocator@M@std@@@Z 004b4b00 f i TerTree.obj
 0001:000b3b00       ??$unchecked_uninitialized_copy@PAPADPAPADV?$allocator@PAD@std@@@stdext@@YAPAPADPAPAD00AAV?$allocator@PAD@std@@@Z 004b4b00 f i Scene.obj
 0001:000b3b00       ??$unchecked_uninitialized_copy@PAPAVScriptItem@@PAPAV1@V?$allocator@PAVScriptItem@@@std@@@stdext@@YAPAPAVScriptItem@@PAPAV1@00AAV?$allocator@PAVScriptItem@@@std@@@Z 004b4b00 f i z_ed2DocSave.obj
 0001:000b3b00       ??$unchecked_uninitialized_copy@PAPAVVtx2@@PAPAV1@V?$allocator@PAVVtx2@@@std@@@stdext@@YAPAPAVVtx2@@PAPAV1@00AAV?$allocator@PAVVtx2@@@std@@@Z 004b4b00 f i z_ed2Doc.obj
 0001:000b3b00       ??$unchecked_uninitialized_copy@PAPAVCLeaf@@PAPAV1@V?$allocator@PAVCLeaf@@@std@@@stdext@@YAPAPAVCLeaf@@PAPAV1@00AAV?$allocator@PAVCLeaf@@@std@@@Z 004b4b00 f i BspTree.obj
 0001:000b3b00       ??$unchecked_uninitialized_copy@PAPAVCBspTree@@PAPAV1@V?$allocator@PAVCBspTree@@@std@@@stdext@@YAPAPAVCBspTree@@PAPAV1@00AAV?$allocator@PAVCBspTree@@@std@@@Z 004b4b00 f i BspTree.obj
 0001:000b3b00       ??$unchecked_uninitialized_copy@PAKPAKV?$allocator@K@std@@@stdext@@YAPAKPAK00AAV?$allocator@K@std@@@Z 004b4b00 f i CompilerStream.obj
 0001:000b3b00       ??$unchecked_uninitialized_copy@PAPAULmSizeBuff@@PAPAU1@V?$allocator@PAULmSizeBuff@@@std@@@stdext@@YAPAPAULmSizeBuff@@PAPAU1@00AAV?$allocator@PAULmSizeBuff@@@std@@@Z 004b4b00 f i LMProc.obj
 0001:000b3b00       ??$unchecked_uninitialized_copy@PAPAVTerLeaf@@PAPAV1@V?$allocator@PAVTerLeaf@@@std@@@stdext@@YAPAPAVTerLeaf@@PAPAV1@00AAV?$allocator@PAVTerLeaf@@@std@@@Z 004b4b00 f i TerTree.obj
 0001:000b3b00       ??$unchecked_uninitialized_copy@PAPAVV3@@PAPAV1@V?$allocator@PAVV3@@@std@@@stdext@@YAPAPAVV3@@PAPAV1@00AAV?$allocator@PAVV3@@@std@@@Z 004b4b00 f i z_ed2View.obj
 0001:000b3b00       ??$unchecked_uninitialized_copy@PAPAUPortalData@@PAPAU1@V?$allocator@PAUPortalData@@@std@@@stdext@@YAPAPAUPortalData@@PAPAU1@00AAV?$allocator@PAUPortalData@@@std@@@Z 004b4b00 f i PVSPrc.obj
 0001:000b3b00       ??$unchecked_uninitialized_copy@PAPAUHWND__@@PAPAU1@V?$allocator@PAUHWND__@@@std@@@stdext@@YAPAPAUHWND__@@PAPAU1@00AAV?$allocator@PAUHWND__@@@std@@@Z 004b4b00 f i VertDlgDlg.obj
 0001:000b3b00       ??$unchecked_uninitialized_copy@PAPAVBrush@@PAPAV1@V?$allocator@PAVBrush@@@std@@@stdext@@YAPAPAVBrush@@PAPAV1@00AAV?$allocator@PAVBrush@@@std@@@Z 004b4b00 f i Compiler.obj
 0001:000b3b00       ??$unchecked_uninitialized_copy@PAPAUSpr@?$TaskClass@VBrush@@@@PAPAU12@V?$allocator@PAUSpr@?$TaskClass@VBrush@@@@@std@@@stdext@@YAPAPAUSpr@?$TaskClass@VBrush@@@@PAPAU12@00AAV?$allocator@PAUSpr@?$TaskClass@VBrush@@@@@std@@@Z 004b4b00 f i brush.obj
 0001:000b3b70       ??$_Uninit_copy@PAVPoly@@PAV1@V?$allocator@VPoly@@@std@@@std@@YAPAVPoly@@PAV1@00AAV?$allocator@VPoly@@@0@U_Nonscalar_ptr_iterator_tag@0@U_Range_checked_iterator_tag@0@@Z 004b4b70 f i BspTree.obj
 0001:000b3b70       ??$_Uninit_copy@PBVPoly@@PAV1@V?$allocator@VPoly@@@std@@@std@@YAPAVPoly@@PBV1@0PAV1@AAV?$allocator@VPoly@@@0@U_Nonscalar_ptr_iterator_tag@0@U_Range_checked_iterator_tag@0@@Z 004b4b70 f i brush.obj
 0001:000b3c80       ??$_Fill_n@PAPAUSpr@?$TaskClass@VBrush@@@@IPAU12@@std@@YAXPAPAUSpr@?$TaskClass@VBrush@@@@IABQAU12@Urandom_access_iterator_tag@0@U_Range_checked_iterator_tag@0@@Z 004b4c80 f i brush.obj
 0001:000b3ce0       ??0GameItem@@QAE@PBD@Z     004b4ce0 f   GameItem.obj
 0001:000b3da0       ??1GameItem@@UAE@XZ        004b4da0 f   GameItem.obj
 0001:000b3e30       ?InitCommit@GameItem@@UAEXXZ 004b4e30 f   GameItem.obj
 0001:000b3e70       ??1?$vvector@UNameTypeValue@@@@QAE@XZ 004b4e70 f i GameItem.obj
 0001:000b3ee0       ?GlDraw2D@GameItem@@UAEXPAVCZ_ed2View@@@Z 004b4ee0 f   GameItem.obj
 0001:000b4310       ?Serialize@GameItem@@UAEXPAVFileWrap@baseg@@ABV?$vvector@UTexture@@@@AAV?$map@HHU?$less@H@std@@V?$allocator@U?$pair@$$CBHH@std@@@2@@std@@@Z 004b5310 f   GameItem.obj
 0001:000b45e0       ??0NameTypeValue@@QAE@XZ   004b55e0 f i GameItem.obj
 0001:000b4640       ?push_back@?$vector@UNameTypeValue@@V?$allocator@UNameTypeValue@@@std@@@std@@QAEXABUNameTypeValue@@@Z 004b5640 f i GameItem.obj
 0001:000b4760       ?_Tidy@?$vector@UNameTypeValue@@V?$allocator@UNameTypeValue@@@std@@@std@@IAEXXZ 004b5760 f i GameItem.obj
 0001:000b4810       ?insert@?$vector@UNameTypeValue@@V?$allocator@UNameTypeValue@@@std@@@std@@QAE?AV?$_Vector_iterator@UNameTypeValue@@V?$allocator@UNameTypeValue@@@std@@@2@V?$_Vector_const_iterator@UNameTypeValue@@V?$allocator@UNameTypeValue@@@std@@@2@ABUNameTypeValue@@@Z 004b5810 f i GameItem.obj
 0001:000b4950       ?_Insert_n@?$vector@UNameTypeValue@@V?$allocator@UNameTypeValue@@@std@@@std@@IAEXV?$_Vector_const_iterator@UNameTypeValue@@V?$allocator@UNameTypeValue@@@std@@@2@IABUNameTypeValue@@@Z 004b5950 f i GameItem.obj
 0001:000b5230       ??Y?$_Vector_const_iterator@UNameTypeValue@@V?$allocator@UNameTypeValue@@@std@@@std@@QAEAAV01@H@Z 004b6230 f i GameItem.obj
 0001:000b5300       ??$_Unchecked_move_backward@PAUNameTypeValue@@PAU1@@stdext@@YAPAUNameTypeValue@@PAU1@00@Z 004b6300 f i GameItem.obj
 0001:000b5350       ??$unchecked_uninitialized_copy@PAUNameTypeValue@@PAU1@V?$allocator@UNameTypeValue@@@std@@@stdext@@YAPAUNameTypeValue@@PAU1@00AAV?$allocator@UNameTypeValue@@@std@@@Z 004b6350 f i GameItem.obj
 0001:000b53a0       ??$_Uninit_fill_n@PAUNameTypeValue@@IU1@V?$allocator@UNameTypeValue@@@std@@@std@@YAXPAUNameTypeValue@@IABU1@AAV?$allocator@UNameTypeValue@@@0@U_Nonscalar_ptr_iterator_tag@0@U_Range_checked_iterator_tag@0@@Z 004b63a0 f i GameItem.obj
 0001:000b5470       ??$_Unchecked_uninitialized_move@PAUNameTypeValue@@PAU1@V?$allocator@UNameTypeValue@@@std@@@stdext@@YAPAUNameTypeValue@@PAU1@00AAV?$allocator@UNameTypeValue@@@std@@@Z 004b6470 f i GameItem.obj
 0001:000b54f0       ??$_Move_backward_opt@PAUNameTypeValue@@PAU1@Urandom_access_iterator_tag@std@@U_Undefined_move_tag@3@@std@@YAPAUNameTypeValue@@PAU1@00Urandom_access_iterator_tag@0@U_Undefined_move_tag@0@U_Range_checked_iterator_tag@0@@Z 004b64f0 f i GameItem.obj
 0001:000b5590       ??0CLightBulb@@QAE@XZ      004b6590 f   LightBulb.obj
 0001:000b5800       ?GlDraw@CSoundItem@@UAEXPAVz_ed3View@@@Z 004b6800 f i SoundItem.obj
 0001:000b5800       ?GlDraw@CLightBulb@@UAEXPAVz_ed3View@@@Z 004b6800 f i LightBulb.obj
 0001:000b5800       ?GlDraw@CStartPlayItem@@UAEXPAVz_ed3View@@@Z 004b6800 f i StartPlayItem.obj
 0001:000b5820       ?GetWBox@CSoundItem@@UAE?AVBox@@XZ 004b6820 f i SoundItem.obj
 0001:000b5820       ?GetWBox@CStartPlayItem@@UAE?AVBox@@XZ 004b6820 f i StartPlayItem.obj
 0001:000b5820       ?GetWBox@CLightBulb@@UAE?AVBox@@XZ 004b6820 f i LightBulb.obj
 0001:000b58b0       ?Scale@CSoundItem@@UAEXAAVV3@@V2@M@Z 004b68b0 f i SoundItem.obj
 0001:000b58b0       ?Scale@CLightBulb@@UAEXAAVV3@@V2@M@Z 004b68b0 f i LightBulb.obj
 0001:000b5980       ?Size@CLightBulb@@UAEHXZ   004b6980 f i LightBulb.obj
 0001:000b5990       ??_ECLightBulb@@UAEPAXI@Z  004b6990 f i LightBulb.obj
 0001:000b5990       ??_GCLightBulb@@UAEPAXI@Z  004b6990 f i LightBulb.obj
 0001:000b59c0       ??0CLightBulb@@QAE@ABV0@@Z 004b69c0 f   LightBulb.obj
 0001:000b5b80       ??1CLightBulb@@UAE@XZ      004b6b80 f   LightBulb.obj
 0001:000b5ba0       ?GlDraw2D@CLightBulb@@UAEXPAVCZ_ed2View@@@Z 004b6ba0 f   LightBulb.obj
 0001:000b6f80       ?GetTexture@CLightBulb@@UAEAAVHtex@@XZ 004b7f80 f   LightBulb.obj
 0001:000b6fc0       ?Serialize@CLightBulb@@UAEXPAVFileWrap@baseg@@ABV?$vvector@UTexture@@@@AAV?$map@HHU?$less@H@std@@V?$allocator@U?$pair@$$CBHH@std@@@2@@std@@@Z 004b7fc0 f   LightBulb.obj
 0001:000b70f0       ?Create@CMotion@@QAEHXZ    004b80f0 f   Motion.obj
 0001:000b7250       ??0MState@@QAE@XZ          004b8250 f i Motion.obj
 0001:000b7350       ?GlDraw@CMotion@@QAEXXZ    004b8350 f   Motion.obj
 0001:000b7610       ?RefreshPosition@CMotion@@QAEXXZ 004b8610 f   Motion.obj
 0001:000b77b0       ?push_back@?$vector@UMState@@V?$allocator@UMState@@@std@@@std@@QAEXABUMState@@@Z 004b87b0 f i Motion.obj
 0001:000b78c0       ?insert@?$vector@UMState@@V?$allocator@UMState@@@std@@@std@@QAE?AV?$_Vector_iterator@UMState@@V?$allocator@UMState@@@std@@@2@V?$_Vector_const_iterator@UMState@@V?$allocator@UMState@@@std@@@2@ABUMState@@@Z 004b88c0 f i Motion.obj
 0001:000b7a00       ?_Insert_n@?$vector@UMState@@V?$allocator@UMState@@@std@@@std@@IAEXV?$_Vector_const_iterator@UMState@@V?$allocator@UMState@@@std@@@2@IABUMState@@@Z 004b8a00 f i Motion.obj
 0001:000b8340       ??Y?$_Vector_const_iterator@UMState@@V?$allocator@UMState@@@std@@@std@@QAEAAV01@H@Z 004b9340 f i Motion.obj
 0001:000b8400       ??$_Uninit_fill_n@PAUMState@@IU1@V?$allocator@UMState@@@std@@@std@@YAXPAUMState@@IABU1@AAV?$allocator@UMState@@@0@U_Nonscalar_ptr_iterator_tag@0@U_Range_checked_iterator_tag@0@@Z 004b9400 f i Motion.obj
 0001:000b84e0       ??$_Unchecked_uninitialized_move@PAUMState@@PAU1@V?$allocator@UMState@@@std@@@stdext@@YAPAUMState@@PAU1@00AAV?$allocator@UMState@@@std@@@Z 004b94e0 f i Motion.obj
 0001:000b8560       ??$_Move_backward_opt@PAUMState@@PAU1@Urandom_access_iterator_tag@std@@U_Undefined_move_tag@3@@std@@YAPAUMState@@PAU1@00Urandom_access_iterator_tag@0@U_Undefined_move_tag@0@U_Range_checked_iterator_tag@0@@Z 004b9560 f i Motion.obj
 0001:000b85f0       ??4MState@@QAEAAU0@ABU0@@Z 004b95f0 f i Motion.obj
 0001:000b8700       ??$unchecked_uninitialized_copy@PAUMState@@PAU1@V?$allocator@UMState@@@std@@@stdext@@YAPAUMState@@PAU1@00AAV?$allocator@UMState@@@std@@@Z 004b9700 f i Motion.obj
 0001:000b8750       ??0Poly@@QAE@XZ            004b9750 f   Poly.obj
 0001:000b8bf0       ??0Texs@@QAE@XZ            004b9bf0 f i Poly.obj
 0001:000b8c40       ??_ETexs@@UAEPAXI@Z        004b9c40 f i Poly.obj
 0001:000b8c40       ??_GTexs@@UAEPAXI@Z        004b9c40 f i Poly.obj
 0001:000b8c90       ??1TexCarrier@@QAE@XZ      004b9c90 f i Poly.obj
 0001:000b8cd0       ??1?$vvector@VVtx2@@@@QAE@XZ 004b9cd0 f i Poly.obj
 0001:000b8d40       ?CalcNormal@Poly@@QAEXXZ   004b9d40 f   Poly.obj
 0001:000b9070       ??6Poly@@QAEAAV0@AAVVtx2@@@Z 004ba070 f   Poly.obj
 0001:000b90f0       ??8Poly@@QAEHABV0@@Z       004ba0f0 f   Poly.obj
 0001:000b9380       ?Create@Poly@@QAEXHPAVVtx2@@PAVBrush@@@Z 004ba380 f   Poly.obj
 0001:000b9490       ?Create@Poly@@QAEXHPAVV3@@PAVBrush@@@Z 004ba490 f   Poly.obj
 0001:000b96a0       ?ContainPoint@Poly@@QAEHAAVV3@@@Z 004ba6a0 f   Poly.obj
 0001:000b9ac0       ?Reverse@Poly@@QAEXXZ      004baac0 f   Poly.obj
 0001:000b9d20       ??0Poly@@QAE@ABV0@@Z       004bad20 f   Poly.obj
 0001:000ba000       ??4Poly@@QAEAAV0@ABV0@@Z   004bb000 f   Poly.obj
 0001:000ba280       ?CopyProps@Poly@@QAEXAAV1@@Z 004bb280 f   Poly.obj
 0001:000ba660       ??4Texs@@QAEAAU0@ABU0@@Z   004bb660 f i Poly.obj
 0001:000ba6f0       ??4LmInfo@@QAEAAU0@ABU0@@Z 004bb6f0 f i Poly.obj
 0001:000ba790       ?Recalc@Poly@@QAEXXZ       004bb790 f   Poly.obj
 0001:000ba930       ??1Poly@@QAE@XZ            004bb930 f   Poly.obj
 0001:000baa30       ?Clear@Poly@@QAEXXZ        004bba30 f   Poly.obj
 0001:000baab0       ?Transform@Poly@@QAEXVM4@@@Z 004bbab0 f   Poly.obj
 0001:000bac10       ?Split@Poly@@QAEXAAVPlane@@AAV1@1H@Z 004bbc10 f   Poly.obj
 0001:000bb4c0       ?interpolate@Vtx@@QAEXAAU1@0M@Z 004bc4c0 f i Poly.obj
 0001:000bb700       ?Classify@Poly@@QAE?AW4_REL_POS@@AAVPlane@@@Z 004bc700 f   Poly.obj
 0001:000bb8e0       ?ApplyNewTexCoord@Poly@@QAEXXZ 004bc8e0 f   Poly.obj
 0001:000bba90       ?RotateTC@Poly@@QAEXHH@Z   004bca90 f   Poly.obj
 0001:000bbc90       ?FlipTC@Poly@@QAEXD@Z      004bcc90 f   Poly.obj
 0001:000bc000       ?SortVertexes@Poly@@QAEXXZ 004bd000 f   Poly.obj
 0001:000bc730       ?DeSelect@Poly@@QAEXXZ     004bd730 f   Poly.obj
 0001:000bc7c0       ?Select@Poly@@QAEXXZ       004bd7c0 f   Poly.obj
 0001:000bc850       ?IsInnerPoint@Poly@@QAEHAAVV3@@@Z 004bd850 f   Poly.obj
 0001:000bcbe0       ?GetAreea@Poly@@QAEMXZ     004bdbe0 f   Poly.obj
 0001:000bcf70       ?RotateTCRad@Poly@@QAEXMH@Z 004bdf70 f   Poly.obj
 0001:000bd4e0       ??DM4@@QBE?AVV3@@ABV1@@Z   004be4e0 f i Poly.obj
 0001:000bd5b0       ?rotate@M4@@QAEXABVV3@@M@Z 004be5b0 f i Poly.obj
 0001:000bd7c0       ?BuildTexEdges@Poly@@QAEXAAVV3@@00@Z 004be7c0 f   Poly.obj
 0001:000bda40       ?BuildTexAxes@Poly@@QAEXAAVV3@@0@Z 004bea40 f   Poly.obj
 0001:000bdc60       ?PolyTouchesPoly@@YAHPAVPoly@@0@Z 004bec60 f   Poly.obj
 0001:000bdf00       ?Triangulate@Poly@@QAEHAAV?$vvector@VPoly@@@@@Z 004bef00 f   Poly.obj
 0001:000be730       ?normalize@V3@@QAEMXZ      004bf730 f i Poly.obj
 0001:000be7d0       ?TrifanIt@Poly@@QAEHAAV?$vvector@VPoly@@@@@Z 004bf7d0 f   Poly.obj
 0001:000beac0       ?AddVertex@Poly@@QAEHABVV3@@AAV?$vvector@VPoly@@@@@Z 004bfac0 f   Poly.obj
 0001:000bf280       ?GetVxIndex@Poly@@QAEIABVVtx2@@@Z 004c0280 f   Poly.obj
 0001:000bf490       ??8Vtx@@QAEHABU0@@Z        004c0490 f i Poly.obj
 0001:000bf600       ?SnaptoPoint@Poly@@QAEXH@Z 004c0600 f   Poly.obj
 0001:000bf770       ?MinMaxUV@Poly@@QAEXHAAUUV@@0PAVV3@@@Z 004c0770 f   Poly.obj
 0001:000bfed0       ?ResetTexCoords@Poly@@QAEXH@Z 004c0ed0 f   Poly.obj
 0001:000c0090       ?InitCalcTC@Poly@@QAEXH@Z  004c1090 f   Poly.obj
 0001:000c0310       ?CopyTc0InAll@Poly@@QAEXXZ 004c1310 f   Poly.obj
 0001:000c0430       ??4?$vector@VVtx2@@V?$allocator@VVtx2@@@std@@@std@@QAEAAV01@ABV01@@Z 004c1430 f i Poly.obj
 0001:000c08c0       ?reserve@?$vector@VVtx2@@V?$allocator@VVtx2@@@std@@@std@@QAEXI@Z 004c18c0 f i Poly.obj
 0001:000c0c10       ??A?$vector@VVtx2@@V?$allocator@VVtx2@@@std@@@std@@QAEAAVVtx2@@I@Z 004c1c10 f i Poly.obj
 0001:000c0c50       ?back@?$vector@VVtx2@@V?$allocator@VVtx2@@@std@@@std@@QAEAAVVtx2@@XZ 004c1c50 f i Poly.obj
 0001:000c0cd0       ??A?$vector@VV3@@V?$allocator@VV3@@@std@@@std@@QAEAAVV3@@I@Z 004c1cd0 f i Poly.obj
 0001:000c0d10       ??G?$_Vector_iterator@VVtx2@@V?$allocator@VVtx2@@@std@@@std@@QBEHABV?$_Vector_const_iterator@VVtx2@@V?$allocator@VVtx2@@@std@@@1@@Z 004c1d10 f i Poly.obj
 0001:000c0d70       ??0?$vector@VVtx2@@V?$allocator@VVtx2@@@std@@@std@@QAE@XZ 004c1d70 f i Poly.obj
 0001:000c0e50       ?clear@?$vector@VVtx2@@V?$allocator@VVtx2@@@std@@@std@@QAEXXZ 004c1e50 f i Poly.obj
 0001:000c0f40       ?_Buy@?$vector@VVtx2@@V?$allocator@VVtx2@@@std@@@std@@IAE_NI@Z 004c1f40 f i Poly.obj
 0001:000c1000       ?_Tidy@?$vector@VVtx2@@V?$allocator@VVtx2@@@std@@@std@@IAEXXZ 004c2000 f i Poly.obj
 0001:000c10c0       ?erase@?$vector@VVtx2@@V?$allocator@VVtx2@@@std@@@std@@QAE?AV?$_Vector_iterator@VVtx2@@V?$allocator@VVtx2@@@std@@@2@V?$_Vector_const_iterator@VVtx2@@V?$allocator@VVtx2@@@std@@@2@0@Z 004c20c0 f i Poly.obj
 0001:000c11e0       ??$unchecked_copy@PAVVtx2@@PAV1@@stdext@@YAPAVVtx2@@PAV1@00@Z 004c21e0 f i Poly.obj
 0001:000c1260       ??$_Copy_opt@PAVVtx2@@PAV1@@std@@YAPAVVtx2@@PAV1@00Urandom_access_iterator_tag@0@U_Nonscalar_ptr_iterator_tag@0@U_Range_checked_iterator_tag@0@@Z 004c2260 f i Poly.obj
 0001:000c12c0       ??$_Unchecked_uninitialized_move@V?$_Vector_iterator@VVtx2@@V?$allocator@VVtx2@@@std@@@std@@PAVVtx2@@V?$allocator@VVtx2@@@2@@stdext@@YAPAVVtx2@@V?$_Vector_iterator@VVtx2@@V?$allocator@VVtx2@@@std@@@std@@0PAV1@AAV?$allocator@VVtx2@@@3@@Z 004c22c0 f i Poly.obj
 0001:000c1340       ??$_Copy_opt@PAVVtx2@@PAV1@Uforward_iterator_tag@std@@@std@@YAPAVVtx2@@PAV1@00Uforward_iterator_tag@0@U_Nonscalar_ptr_iterator_tag@0@U_Range_checked_iterator_tag@0@@Z 004c2340 f i Poly.obj
 0001:000c14a0       ??0SceItem@@QAE@XZ         004c24a0 f   SceItem.obj
 0001:000c1f30       ??0Vtx@@QAE@ABVV3@@ABUUV@@ABVCLR@@J@Z 004c2f30 f i SceItem.obj
 0001:000c2050       ??_GSceItem@@UAEPAXI@Z     004c3050 f i SceItem.obj
 0001:000c2050       ??_ESceItem@@UAEPAXI@Z     004c3050 f i SceItem.obj
 0001:000c2080       ??0SceItem@@QAE@ABV0@@Z    004c3080 f   SceItem.obj
 0001:000c26a0       ?GlDraw2D@SceItem@@UAEXPAVCZ_ed2View@@@Z 004c36a0 f   SceItem.obj
 0001:000c2910       ??1SceItem@@UAE@XZ         004c3910 f   SceItem.obj
 0001:000c2970       ?GetTexture@SceItem@@UAEAAVHtex@@XZ 004c3970 f   SceItem.obj
 0001:000c29b0       ?GlDraw@SceItem@@UAEXPAVz_ed3View@@@Z 004c39b0 f   SceItem.obj
 0001:000c2bd0       ?GlDrawSel@SceItem@@UAEXPAVz_ed3View@@@Z 004c3bd0 f   SceItem.obj
 0001:000c2e60       ?Rotate@SceItem@@UAEXAAVV3@@H@Z 004c3e60 f   SceItem.obj
 0001:000c3310       ?Create@SceItem@@SAPAV1@H@Z 004c4310 f   SceItem.obj
 0001:000c3540       ?Serialize@SceItem@@UAEXPAVFileWrap@baseg@@ABV?$vvector@UTexture@@@@AAV?$map@HHU?$less@H@std@@V?$allocator@U?$pair@$$CBHH@std@@@2@@std@@@Z 004c4540 f   SceItem.obj
 0001:000c3b10       ??$Serialize@W4_EITEM@@@FileWrap@baseg@@QAEHAAW4_EITEM@@@Z 004c4b10 f i SceItem.obj
 0001:000c3b10       ??$Serialize@VCLR@@@FileWrap@baseg@@QAEHAAVCLR@@@Z 004c4b10 f i LightBulb.obj
 0001:000c3b10       ??$Serialize@J@FileWrap@baseg@@QAEHAAJ@Z 004c4b10 f i SceItem.obj
 0001:000c3b10       ??$Serialize@I@FileWrap@baseg@@QAEHAAI@Z 004c4b10 f i BigTerrain.obj
 0001:000c3b10       ??$Serialize@H@FileWrap@baseg@@QAEHAAH@Z 004c4b10 f i SceItem.obj
 0001:000c3b10       ??$Serialize@K@FileWrap@baseg@@QAEHAAK@Z 004c4b10 f i BigTerrain.obj
 0001:000c3b10       ??$Serialize@M@FileWrap@baseg@@QAEHAAM@Z 004c4b10 f i LightBulb.obj
 0001:000c3b70       ??$Serialize@VV3@@@FileWrap@baseg@@QAEHAAVV3@@@Z 004c4b70 f i SceItem.obj
 0001:000c3bd0       ?GetPolyCnt@Scene@@QAEHXZ  004c4bd0 f   Scene.obj
 0001:000c3cf0       ?StringBetween@@YAHPADDD0@Z 004c4cf0 f   Scene.obj
 0001:000c3da0       ?TrimBoth@@YAXPAD@Z        004c4da0 f   Scene.obj
 0001:000c3e70       ?ExtractEquals@@YAHPADAAV?$vvector@V?$basic_string@DU?$char_traits@D@std@@V?$allocator@D@2@@std@@@@1@Z 004c4e70 f   Scene.obj
 0001:000c4270       ?ComaCount@@YAHPBD@Z       004c5270 f   Scene.obj
 0001:000c42b0       ?NameTypeSetValue@@YAXHAAUNameTypeValue@@AAV?$basic_string@DU?$char_traits@D@std@@V?$allocator@D@2@@std@@@Z 004c52b0 f   Scene.obj
 0001:000c4620       ?ParseSection@Scene@@AAEHAAV?$basic_string@DU?$char_traits@D@std@@V?$allocator@D@2@@std@@AAV?$vvector@PAD@@1@Z 004c5620 f   Scene.obj
 0001:000c4f50       ?FromSignature@@YA?AW4_VAR@@PBD@Z 004c5f50 f i Scene.obj
 0001:000c50a0       ??1ItemCat@@QAE@XZ         004c60a0 f i Scene.obj
 0001:000c5150       ?SearchCats@Scene@@QAEHPBD@Z 004c6150 f   Scene.obj
 0001:000c59a0       ?ClearCats@Scene@@QAEXXZ   004c69a0 f   Scene.obj
 0001:000c59e0       ?ClearPrimitives@Scene@@QAEXXZ 004c69e0 f   Scene.obj
 0001:000c5b60       ?ClearBrushes@Scene@@QAEXXZ 004c6b60 f   Scene.obj
 0001:000c5cd0       ??0?$vvector@UNameTypeValue@@@@QAE@XZ 004c6cd0 f i Scene.obj
 0001:000c5d10       ?clear@?$vector@VItemCat@@V?$allocator@VItemCat@@@std@@@std@@QAEXXZ 004c6d10 f i Scene.obj
 0001:000c5e00       ?push_back@?$vector@VItemCat@@V?$allocator@VItemCat@@@std@@@std@@QAEXABVItemCat@@@Z 004c6e00 f i Scene.obj
 0001:000c5f10       ?erase@?$vector@VItemCat@@V?$allocator@VItemCat@@@std@@@std@@QAE?AV?$_Vector_iterator@VItemCat@@V?$allocator@VItemCat@@@std@@@2@V?$_Vector_const_iterator@VItemCat@@V?$allocator@VItemCat@@@std@@@2@0@Z 004c6f10 f i Scene.obj
 0001:000c6090       ?insert@?$vector@VItemCat@@V?$allocator@VItemCat@@@std@@@std@@QAE?AV?$_Vector_iterator@VItemCat@@V?$allocator@VItemCat@@@std@@@2@V?$_Vector_const_iterator@VItemCat@@V?$allocator@VItemCat@@@std@@@2@ABVItemCat@@@Z 004c7090 f i Scene.obj
 0001:000c61d0       ?_Insert_n@?$vector@VItemCat@@V?$allocator@VItemCat@@@std@@@std@@IAEXV?$_Vector_const_iterator@VItemCat@@V?$allocator@VItemCat@@@std@@@2@IABVItemCat@@@Z 004c71d0 f i Scene.obj
 0001:000c6c20       ??0ItemCat@@QAE@ABV0@@Z    004c7c20 f i Scene.obj
 0001:000c6cf0       ??0?$vector@UNameTypeValue@@V?$allocator@UNameTypeValue@@@std@@@std@@QAE@ABV01@@Z 004c7cf0 f i Scene.obj
 0001:000c6f60       ??$unchecked_copy@PAVItemCat@@PAV1@@stdext@@YAPAVItemCat@@PAV1@00@Z 004c7f60 f i Scene.obj
 0001:000c7030       ??$_Allocate@VItemCat@@@std@@YAPAVItemCat@@IPAV1@@Z 004c8030 f i Scene.obj
 0001:000c7090       ??$_Find@PAPADV?$basic_string@DU?$char_traits@D@std@@V?$allocator@D@2@@std@@@std@@YAPAPADPAPAD0ABV?$basic_string@DU?$char_traits@D@std@@V?$allocator@D@2@@0@@Z 004c8090 f i Scene.obj
 0001:000c7100       ??$_Uninit_fill_n@PAVItemCat@@IV1@V?$allocator@VItemCat@@@std@@@std@@YAXPAVItemCat@@IABV1@AAV?$allocator@VItemCat@@@0@U_Nonscalar_ptr_iterator_tag@0@U_Range_checked_iterator_tag@0@@Z 004c8100 f i Scene.obj
 0001:000c7210       ??$_Unchecked_uninitialized_move@PAVItemCat@@PAV1@V?$allocator@VItemCat@@@std@@@stdext@@YAPAVItemCat@@PAV1@00AAV?$allocator@VItemCat@@@std@@@Z 004c8210 f i Scene.obj
 0001:000c7290       ??$_Move_backward_opt@PAVItemCat@@PAV1@Urandom_access_iterator_tag@std@@U_Undefined_move_tag@3@@std@@YAPAVItemCat@@PAV1@00Urandom_access_iterator_tag@0@U_Undefined_move_tag@0@U_Range_checked_iterator_tag@0@@Z 004c8290 f i Scene.obj
 0001:000c7360       ??4ItemCat@@QAEAAV0@ABV0@@Z 004c8360 f i Scene.obj
 0001:000c7460       ??$unchecked_uninitialized_copy@PAVItemCat@@PAV1@V?$allocator@VItemCat@@@std@@@stdext@@YAPAVItemCat@@PAV1@00AAV?$allocator@VItemCat@@@std@@@Z 004c8460 f i Scene.obj
 0001:000c74b0       ??$_Uninit_copy@PAVItemCat@@PAV1@V?$allocator@VItemCat@@@std@@@std@@YAPAVItemCat@@PAV1@00AAV?$allocator@VItemCat@@@0@U_Nonscalar_ptr_iterator_tag@0@U_Range_checked_iterator_tag@0@@Z 004c84b0 f i Scene.obj
 0001:000c75c0       ??1ScriptItem@@UAE@XZ      004c85c0 f   ScriptItem.obj
 0001:000c7630       ??_GScriptItem@@UAEPAXI@Z  004c8630 f i ScriptItem.obj
 0001:000c7630       ??_EScriptItem@@UAEPAXI@Z  004c8630 f i ScriptItem.obj
 0001:000c7660       ??0SkyDom@@QAE@XZ          004c8660 f   SkyDom.obj
 0001:000c7720       ??_GSkyDom@@UAEPAXI@Z      004c8720 f i SkyDom.obj
 0001:000c7720       ??_ESkyDom@@UAEPAXI@Z      004c8720 f i SkyDom.obj
 0001:000c7750       ??1SkyDom@@UAE@XZ          004c8750 f   SkyDom.obj
 0001:000c7770       ??0CSoundItem@@QAE@XZ      004c8770 f   SoundItem.obj
 0001:000c7890       ?GetBox@CSoundItem@@UAE?AVBox@@XZ 004c8890 f i SoundItem.obj
 0001:000c7890       ?GetBox@CLightBulb@@UAE?AVBox@@XZ 004c8890 f i LightBulb.obj
 0001:000c7960       ?Size@CSoundItem@@UAEHXZ   004c8960 f i SoundItem.obj
 0001:000c7970       ??_GCSoundItem@@UAEPAXI@Z  004c8970 f i SoundItem.obj
 0001:000c7970       ??_ECSoundItem@@UAEPAXI@Z  004c8970 f i SoundItem.obj
 0001:000c79a0       ??1CSoundItem@@UAE@XZ      004c89a0 f   SoundItem.obj
 0001:000c7a10       ?GlDraw2D@CSoundItem@@UAEXPAVCZ_ed2View@@@Z 004c8a10 f   SoundItem.obj
 0001:000c8ce0       ?GetTexture@CSoundItem@@UAEAAVHtex@@XZ 004c9ce0 f   SoundItem.obj
 0001:000c8cf0       ?Serialize@CSoundItem@@UAEXPAVFileWrap@baseg@@ABV?$vvector@UTexture@@@@AAV?$map@HHU?$less@H@std@@V?$allocator@U?$pair@$$CBHH@std@@@2@@std@@@Z 004c9cf0 f   SoundItem.obj
 0001:000c8e40       ?WriteStr@FileWrap@baseg@@QAEIPBD@Z 004c9e40 f i SoundItem.obj
 0001:000c8ea0       ?ReadStr@FileWrap@baseg@@QAEIPAD@Z 004c9ea0 f i SoundItem.obj
 0001:000c8f00       ??0CStartPlayItem@@QAE@XZ  004c9f00 f   StartPlayItem.obj
 0001:000c9020       ?Size@CStartPlayItem@@UAEHXZ 004ca020 f i StartPlayItem.obj
 0001:000c9030       ??_ECStartPlayItem@@UAEPAXI@Z 004ca030 f i StartPlayItem.obj
 0001:000c9030       ??_GCStartPlayItem@@UAEPAXI@Z 004ca030 f i StartPlayItem.obj
 0001:000c9060       ??1CStartPlayItem@@UAE@XZ  004ca060 f   StartPlayItem.obj
 0001:000c90d0       ?GlDraw2D@CStartPlayItem@@UAEXPAVCZ_ed2View@@@Z 004ca0d0 f   StartPlayItem.obj
 0001:000c9120       ?GetTexture@CStartPlayItem@@UAEAAVHtex@@XZ 004ca120 f   StartPlayItem.obj
 0001:000c9130       ?Serialize@CStartPlayItem@@UAEXPAVFileWrap@baseg@@ABV?$vvector@UTexture@@@@AAV?$map@HHU?$less@H@std@@V?$allocator@U?$pair@$$CBHH@std@@@2@@std@@@Z 004ca130 f   StartPlayItem.obj
 0001:000c9260       ??0TriggerItem@@QAE@XZ     004ca260 f   TriggerItem.obj
 0001:000c9450       ?Size@TriggerItem@@UAEHXZ  004ca450 f i TriggerItem.obj
 0001:000c9460       ?GetBox@TriggerItem@@UAE?AVBox@@XZ 004ca460 f i TriggerItem.obj
 0001:000c9550       ?GetWBox@TriggerItem@@UAE?AVBox@@XZ 004ca550 f i TriggerItem.obj
 0001:000c9590       ?Commit@TriggerItem@@UAEXXZ 004ca590 f i TriggerItem.obj
 0001:000c9600       ?InitCommit@TriggerItem@@UAEXXZ 004ca600 f i TriggerItem.obj
 0001:000c9620       ?SetPos@TriggerItem@@UAEXAAVV3@@@Z 004ca620 f i TriggerItem.obj
 0001:000c9750       ??_GTriggerItem@@UAEPAXI@Z 004ca750 f i TriggerItem.obj
 0001:000c9750       ??_ETriggerItem@@UAEPAXI@Z 004ca750 f i TriggerItem.obj
 0001:000c9780       ??1TriggerItem@@UAE@XZ     004ca780 f   TriggerItem.obj
 0001:000c9820       ?GlDraw2D@TriggerItem@@UAEXPAVCZ_ed2View@@@Z 004ca820 f   TriggerItem.obj
 0001:000c9b50       ?GlDrawSel@TriggerItem@@UAEXPAVz_ed3View@@@Z 004cab50 f   TriggerItem.obj
 0001:000c9b50       ?GlDraw@TriggerItem@@UAEXPAVz_ed3View@@@Z 004cab50 f   TriggerItem.obj
 0001:000c9b70       ?Move@TriggerItem@@UAEXAAVV3@@@Z 004cab70 f   TriggerItem.obj
 0001:000c9d60       ?Scale@TriggerItem@@UAEXAAVV3@@V2@M@Z 004cad60 f   TriggerItem.obj
 0001:000c9e50       ?FindTargetBrush@TriggerItem@@AAEXXZ 004cae50 f   TriggerItem.obj
 0001:000ca020       ?Serialize@TriggerItem@@UAEXPAVFileWrap@baseg@@ABV?$vvector@UTexture@@@@AAV?$map@HHU?$less@H@std@@V?$allocator@U?$pair@$$CBHH@std@@@2@@std@@@Z 004cb020 f   TriggerItem.obj
 0001:000ca290       ?GetBrushByID@Scene@@QAEPAVBrush@@H@Z 004cb290 f i TriggerItem.obj
 0001:000ca380       ?CreateObject@CZ_ed2View@@SGPAVCObject@@XZ 004cb380 f   z_ed2View.obj
 0001:000ca400       ?GetRuntimeClass@CZ_ed2View@@UBEPAUCRuntimeClass@@XZ 004cb400 f   z_ed2View.obj
 0001:000ca410       ?GetMessageMap@CZ_ed2View@@MBEPBUAFX_MSGMAP@@XZ 004cb410 f   z_ed2View.obj
 0001:000ca420       ?GetThisMessageMap@CZ_ed2View@@KGPBUAFX_MSGMAP@@XZ 004cb420 f   z_ed2View.obj
 0001:000ca430       ??0CZ_ed2View@@IAE@XZ      004cb430 f   z_ed2View.obj
 0001:000ca640       ??1C_Rebar@@UAE@XZ         004cb640 f i z_ed2View.obj
 0001:000ca660       ??_GC_Rebar@@UAEPAXI@Z     004cb660 f i z_ed2View.obj
 0001:000ca660       ??_EC_Rebar@@UAEPAXI@Z     004cb660 f i z_ed2View.obj
 0001:000ca6a0       ??1C_ToolBar@@UAE@XZ       004cb6a0 f i z_ed2View.obj
 0001:000ca6c0       ??_EC_ToolBar@@UAEPAXI@Z   004cb6c0 f i z_ed2View.obj
 0001:000ca6c0       ??_GC_ToolBar@@UAEPAXI@Z   004cb6c0 f i z_ed2View.obj
 0001:000ca700       ??_GCZ_ed2View@@UAEPAXI@Z  004cb700 f i z_ed2View.obj
 0001:000ca700       ??_ECZ_ed2View@@UAEPAXI@Z  004cb700 f i z_ed2View.obj
 0001:000ca730       ?Reinit@CZ_ed2View@@QAEXXZ 004cb730 f   z_ed2View.obj
 0001:000ca800       ??1CZ_ed2View@@UAE@XZ      004cb800 f   z_ed2View.obj
 0001:000ca8f0       ?PreCreateWindow@CZ_ed2View@@UAEHAAUtagCREATESTRUCTA@@@Z 004cb8f0 f   z_ed2View.obj
 0001:000ca930       ?OnPreparePrinting@CZ_ed2View@@MAEHPAUCPrintInfo@@@Z 004cb930 f   z_ed2View.obj
 0001:000ca930       ?OnPreparePrinting@CCrystalTextView@@MAEHPAUCPrintInfo@@@Z 004cb930 f   CCrystalTextView.obj
 0001:000ca950       ?Update@CBaseDlg@@UAEXPAVSceItem@@H@Z 004cb950 f   DlgConsole.obj
 0001:000ca950       ?OnUpdateCmdUI@CDlgBar@@MAEXPAVCFrameWnd@@H@Z 004cb950 f   DlgBar.obj
 0001:000ca950       ?OnBeginPrinting@CZ_ed2View@@MAEXPAVCDC@@PAUCPrintInfo@@@Z 004cb950 f   z_ed2View.obj
 0001:000ca950       ?OnEndPrinting@CZ_ed2View@@MAEXPAVCDC@@PAUCPrintInfo@@@Z 004cb950 f   z_ed2View.obj
 0001:000ca950       ?Retreive@CBaseDlg@@UAEXPAVSceItem@@H@Z 004cb950 f   DlgConsole.obj
 0001:000ca950       ?OnEditOperation@CCrystalTextView@@UAEXHPBD@Z 004cb950 f   CCrystalTextView.obj
 0001:000ca950       ?OnUpdateCmdUI@CDlgCompProgress@@UAEXPAVCFrameWnd@@H@Z 004cb950 f   DlgCompProgress.obj
 0001:000ca960       ?OnCreate@CZ_ed2View@@IAEHPAUtagCREATESTRUCTA@@@Z 004cb960 f   z_ed2View.obj
 0001:000ca9f0       ?ReleaseRDI@CZ_ed2View@@QAEXXZ 004cb9f0 f   z_ed2View.obj
 0001:000caac0       ?OnDestroy@CZ_ed2View@@IAEXXZ 004cbac0 f   z_ed2View.obj
 0001:000caaf0       ?RedrawDC@CZ_ed2View@@QAEXH@Z 004cbaf0 f   z_ed2View.obj
 0001:000cab20       ?OnPaint@CZ_ed2View@@IAEXXZ 004cbb20 f   z_ed2View.obj
 0001:000caba0       ?DrawView@CZ_ed2View@@IAEXPAUHDC__@@H@Z 004cbba0 f   z_ed2View.obj
 0001:000cabe0       ?DrawInHrc@CZ_ed2View@@IAEXPAUHDC__@@H@Z 004cbbe0 f   z_ed2View.obj
 0001:000cad90       ?OnSize@CZ_ed2View@@IAEXIHH@Z 004cbd90 f   z_ed2View.obj
 0001:000cadc0       ?Project2D@CZ_ed2View@@IAEXHH@Z 004cbdc0 f   z_ed2View.obj
 0001:000cb070       ?GLPaint@CZ_ed2View@@IAEXAAUtagRECT@@@Z 004cc070 f   z_ed2View.obj
 0001:000cb110       ?DrawGrid@CZ_ed2View@@IAEXAAUtagRECT@@@Z 004cc110 f   z_ed2View.obj
 0001:000cb170       ?OnLButtonDown@CZ_ed2View@@IAEXIVCPoint@@@Z 004cc170 f   z_ed2View.obj
 0001:000cb340       ?OnLButtonUp@CZ_ed2View@@IAEXIVCPoint@@@Z 004cc340 f   z_ed2View.obj
 0001:000cb5e0       ?ScrollView@CZ_ed2View@@IAEXAAVCPoint@@@Z 004cc5e0 f   z_ed2View.obj
 0001:000cb810       ?RaiseBrush@CZ_ed2View@@IAEXAAVCPoint@@@Z 004cc810 f   z_ed2View.obj
 0001:000cb930       ?MoveBrush@CZ_ed2View@@IAEXAAVCPoint@@@Z 004cc930 f   z_ed2View.obj
 0001:000cbbc0       ?MoveVertex@CZ_ed2View@@IAEXAAVCPoint@@@Z 004ccbc0 f   z_ed2View.obj
 0001:000cbd40       ?GetSelVxes@CZ_ed2Doc@@QAEPAPAVVtx2@@AAH@Z 004ccd40 f i z_ed2View.obj
 0001:000cbdb0       ?MovePoly@CZ_ed2View@@IAEXAAVCPoint@@@Z 004ccdb0 f   z_ed2View.obj
 0001:000cc730       ?MoveItem@CZ_ed2View@@IAEXAAVCPoint@@@Z 004cd730 f   z_ed2View.obj
 0001:000cc860       ?ScaleItem@CZ_ed2View@@IAEXAAVCPoint@@@Z 004cd860 f   z_ed2View.obj
 0001:000ccad0       ?ScaleBrush@CZ_ed2View@@IAEXAAVCPoint@@MM@Z 004cdad0 f   z_ed2View.obj
 0001:000cd070       ?ScalePoly@CZ_ed2View@@IAEXAAVCPoint@@@Z 004ce070 f   z_ed2View.obj
 0001:000cded0       ?RotateItem@CZ_ed2View@@IAEXAAVCPoint@@@Z 004ceed0 f   z_ed2View.obj
 0001:000ce0a0       ?RotateBrush@CZ_ed2View@@IAEXAAVCPoint@@@Z 004cf0a0 f   z_ed2View.obj
 0001:000ce370       ?RotatePoly@CZ_ed2View@@IAEXAAVCPoint@@@Z 004cf370 f   z_ed2View.obj
 0001:000cf270       ?OnMouseMove@CZ_ed2View@@IAEXIVCPoint@@@Z 004d0270 f   z_ed2View.obj
 0001:000cf300       ?MouseWorldMove@CZ_ed2View@@IAEXMMAAVCPoint@@@Z 004d0300 f   z_ed2View.obj
 0001:000cfb80       ?OnMouseWheel@CZ_ed2View@@IAEHIFVCPoint@@@Z 004d0b80 f   z_ed2View.obj
 0001:000cfe20       ?World2Wnd@CZ_ed2View@@IAEHMD@Z 004d0e20 f   z_ed2View.obj
 0001:000cff00       ?Wnd2World@CZ_ed2View@@IAEMMD@Z 004d0f00 f   z_ed2View.obj
 0001:000cffe0       ?OnSetCursor@CZ_ed2View@@IAEHPAVCWnd@@II@Z 004d0fe0 f   z_ed2View.obj
 0001:000d01c0       ?OnKeyDown@CZ_ed2View@@IAEXIII@Z 004d11c0 f   z_ed2View.obj
 0001:000d0480       ?IsBoxInViewPort@CZ_ed2View@@QAEHAAVBox@@@Z 004d1480 f   z_ed2View.obj
 0001:000d0640       ?DoSelection@CZ_ed2View@@IAEXAAVCPoint@@@Z 004d1640 f   z_ed2View.obj
 0001:000d06c0       ?MannageCursor@CZ_ed2View@@IAEHVCPoint@@H@Z 004d16c0 f   z_ed2View.obj
 0001:000d0c80       ?OnRButtonDown@CZ_ed2View@@IAEXIVCPoint@@@Z 004d1c80 f   z_ed2View.obj
 0001:000d0d10       ?OnRButtonUp@CZ_ed2View@@IAEXIVCPoint@@@Z 004d1d10 f   z_ed2View.obj
 0001:000d0d80       ?ResolveCurInBox@CZ_ed2View@@IAEXAAVBox@@AAH111@Z 004d1d80 f   z_ed2View.obj
 0001:000d1310       ?OnSetFocus@CZ_ed2View@@IAEXPAVCWnd@@@Z 004d2310 f   z_ed2View.obj
 0001:000d1380       ?OnKillFocus@CZ_ed2View@@IAEXPAVCWnd@@@Z 004d2380 f   z_ed2View.obj
 0001:000d1410       ?CheckCoordRestrains@CZ_ed2View@@IAEXXZ 004d2410 f   z_ed2View.obj
 0001:000d1510       ?OnLButtonDblClk@CZ_ed2View@@IAEXIVCPoint@@@Z 004d2510 f   z_ed2View.obj
 0001:000d1770       ?OnKeyUp@CZ_ed2View@@IAEXIII@Z 004d2770 f   z_ed2View.obj
 0001:000d1790       ?HideTheCursor@z_ed3View@@IAEXXZ 004d2790 f   z_ed3View.obj
 0001:000d1790       ?HideTheCursor@CZ_ed2View@@IAEXXZ 004d2790 f   z_ed2View.obj
 0001:000d17b0       ?Rollover@CZ_ed2View@@IAEXVCPoint@@@Z 004d27b0 f   z_ed2View.obj
 0001:000d1850       ?SetCursorText@CZ_ed2View@@IAEXAAUtagPOINT@@PBD@Z 004d2850 f   z_ed2View.obj
 0001:000d1900       ?GetMouseRotAngle@CZ_ed2View@@IAE?AVV3@@AAVCPoint@@@Z 004d2900 f   z_ed2View.obj
 0001:000d2590       ?GlAfterPaint@CZ_ed2View@@QAEXXZ 004d3590 f   z_ed2View.obj
 0001:000d26b0       ?GetSelectionItems@CZ_ed2View@@IAEHAAUtagPOINT@@@Z 004d36b0 f   z_ed2View.obj
 0001:000d28a0       ?GetSelCenter@CZ_ed2View@@IAEXPAPAVPoly@@H@Z 004d38a0 f   z_ed2View.obj
 0001:000d2970       ?GetSelCenter@CZ_ed2View@@IAEXPAPAVSceItem@@H@Z 004d3970 f   z_ed2View.obj
 0001:000d2a30       ?GetSelCenter@CZ_ed2View@@IAEXPAPAVBrush@@H@Z 004d3a30 f   z_ed2View.obj
 0001:000d2b00       ?OnPostInit@CZ_ed2View@@IAEJIJ@Z 004d3b00 f   z_ed2View.obj
 0001:000d2c10       ?_GetTranslation@CZ_ed2View@@IAE?AVV3@@ABVCPoint@@@Z 004d3c10 f   z_ed2View.obj
 0001:000d2ce0       ?_MoveBrushMotion@CZ_ed2View@@IAEHPAVCMotion@@AAVV3@@@Z 004d3ce0 f   z_ed2View.obj
 0001:000d2fd0       ?_GetScaleValues@CZ_ed2View@@IAEXAAVCPoint@@AAVV3@@1@Z 004d3fd0 f   z_ed2View.obj
 0001:000d3350       ?Add4Update@CZ_ed2View@@IAEXPAVBrush@@@Z 004d4350 f   z_ed2View.obj
 0001:000d33e0       ?DrawFrontGrid@CZ_ed2View@@IAEXAAUtagRECT@@@Z 004d43e0 f   z_ed2View.obj
 0001:000d37f0       ?DrawTopGrid@CZ_ed2View@@IAEXAAUtagRECT@@@Z 004d47f0 f   z_ed2View.obj
 0001:000d3c40       ?DrawSideGrid@CZ_ed2View@@IAEXAAUtagRECT@@@Z 004d4c40 f   z_ed2View.obj
 0001:000d4070       ?reserve@?$vector@PAVCLightBulb@@V?$allocator@PAVCLightBulb@@@std@@@std@@QAEXI@Z 004d5070 f i LMProc.obj
 0001:000d4070       ?reserve@?$vector@PAVBrush@@V?$allocator@PAVBrush@@@std@@@std@@QAEXI@Z 004d5070 f i Compiler.obj
 0001:000d4070       ?reserve@?$vector@HV?$allocator@H@std@@@std@@QAEXI@Z 004d5070 f i BspTree.obj
 0001:000d4070       ?reserve@?$vector@PAV?$map@HHU?$less@H@std@@V?$allocator@U?$pair@$$CBHH@std@@@2@@std@@V?$allocator@PAV?$map@HHU?$less@H@std@@V?$allocator@U?$pair@$$CBHH@std@@@2@@std@@@2@@std@@QAEXI@Z 004d5070 f i CompilerStream.obj
 0001:000d4070       ?reserve@?$vector@PAVV3@@V?$allocator@PAVV3@@@std@@@std@@QAEXI@Z 004d5070 f i z_ed2View.obj
 0001:000d4070       ?reserve@?$vector@PAVCBspTree@@V?$allocator@PAVCBspTree@@@std@@@std@@QAEXI@Z 004d5070 f i Compiler.obj
 0001:000d4070       ?reserve@?$vector@PAVTerLeaf@@V?$allocator@PAVTerLeaf@@@std@@@std@@QAEXI@Z 004d5070 f i TerTree.obj
 0001:000d4070       ?reserve@?$vector@MV?$allocator@M@std@@@std@@QAEXI@Z 004d5070 f i TerTree.obj
 0001:000d4070       ?reserve@?$vector@PAVCLeaf@@V?$allocator@PAVCLeaf@@@std@@@std@@QAEXI@Z 004d5070 f i CompilerStream.obj
 0001:000d4070       ?reserve@?$vector@PAVPoly@@V?$allocator@PAVPoly@@@std@@@std@@QAEXI@Z 004d5070 f i CompilerStream.obj
 0001:000d4070       ?reserve@?$vector@PAVCMiniNode@@V?$allocator@PAVCMiniNode@@@std@@@std@@QAEXI@Z 004d5070 f i BspTree.obj
 0001:000d4360       ??$_Unchecked_uninitialized_move@V?$_Vector_iterator@PAVCBspTree@@V?$allocator@PAVCBspTree@@@std@@@std@@PAPAVCBspTree@@V?$allocator@PAVCBspTree@@@2@@stdext@@YAPAPAVCBspTree@@V?$_Vector_iterator@PAVCBspTree@@V?$allocator@PAVCBspTree@@@std@@@std@@0PAPAV1@AAV?$allocator@PAVCBspTree@@@3@@Z 004d5360 f i Compiler.obj
 0001:000d4360       ??$_Unchecked_uninitialized_move@V?$_Vector_iterator@PAVCMiniNode@@V?$allocator@PAVCMiniNode@@@std@@@std@@PAPAVCMiniNode@@V?$allocator@PAVCMiniNode@@@2@@stdext@@YAPAPAVCMiniNode@@V?$_Vector_iterator@PAVCMiniNode@@V?$allocator@PAVCMiniNode@@@std@@@std@@0PAPAV1@AAV?$allocator@PAVCMiniNode@@@3@@Z 004d5360 f i BspTree.obj
 0001:000d4360       ??$_Unchecked_uninitialized_move@V?$_Vector_iterator@PAV?$map@HHU?$less@H@std@@V?$allocator@U?$pair@$$CBHH@std@@@2@@std@@V?$allocator@PAV?$map@HHU?$less@H@std@@V?$allocator@U?$pair@$$CBHH@std@@@2@@std@@@2@@std@@PAPAV?$map@HHU?$less@H@std@@V?$allocator@U?$pair@$$CBHH@std@@@2@@2@V?$allocator@PAV?$map@HHU?$less@H@std@@V?$allocator@U?$pair@$$CBHH@std@@@2@@std@@@2@@stdext@@YAPAPAV?$map@HHU?$less@H@std@@V?$allocator@U?$pair@$$CBHH@std@@@2@@std@@V?$_Vector_iterator@PAV?$map@HHU?$less@H@std@@V?$allocator@U?$pair@$$CBHH@std@@@2@@std@@V?$allocator@PAV?$map@HHU?$less@H@std@@V?$allocator@U?$pair@$$CBHH@std@@@2@@std@@@2@@2@0PAPAV12@AAV?$allocator@PAV?$map@HHU?$less@H@std@@V?$allocator@U?$pair@$$CBHH@std@@@2@@std@@@2@@Z 004d5360 f i CompilerStream.obj
 0001:000d4360       ??$_Unchecked_uninitialized_move@V?$_Vector_iterator@PAVBrush@@V?$allocator@PAVBrush@@@std@@@std@@PAPAVBrush@@V?$allocator@PAVBrush@@@2@@stdext@@YAPAPAVBrush@@V?$_Vector_iterator@PAVBrush@@V?$allocator@PAVBrush@@@std@@@std@@0PAPAV1@AAV?$allocator@PAVBrush@@@3@@Z 004d5360 f i Compiler.obj
 0001:000d4360       ??$_Unchecked_uninitialized_move@V?$_Vector_iterator@PAVV3@@V?$allocator@PAVV3@@@std@@@std@@PAPAVV3@@V?$allocator@PAVV3@@@2@@stdext@@YAPAPAVV3@@V?$_Vector_iterator@PAVV3@@V?$allocator@PAVV3@@@std@@@std@@0PAPAV1@AAV?$allocator@PAVV3@@@3@@Z 004d5360 f i z_ed2View.obj
 0001:000d4360       ??$_Unchecked_uninitialized_move@V?$_Vector_iterator@PAVTerLeaf@@V?$allocator@PAVTerLeaf@@@std@@@std@@PAPAVTerLeaf@@V?$allocator@PAVTerLeaf@@@2@@stdext@@YAPAPAVTerLeaf@@V?$_Vector_iterator@PAVTerLeaf@@V?$allocator@PAVTerLeaf@@@std@@@std@@0PAPAV1@AAV?$allocator@PAVTerLeaf@@@3@@Z 004d5360 f i TerTree.obj
 0001:000d4360       ??$_Unchecked_uninitialized_move@V?$_Vector_iterator@PAVPoly@@V?$allocator@PAVPoly@@@std@@@std@@PAPAVPoly@@V?$allocator@PAVPoly@@@2@@stdext@@YAPAPAVPoly@@V?$_Vector_iterator@PAVPoly@@V?$allocator@PAVPoly@@@std@@@std@@0PAPAV1@AAV?$allocator@PAVPoly@@@3@@Z 004d5360 f i CompilerStream.obj
 0001:000d4360       ??$_Unchecked_uninitialized_move@V?$_Vector_iterator@PAVCLightBulb@@V?$allocator@PAVCLightBulb@@@std@@@std@@PAPAVCLightBulb@@V?$allocator@PAVCLightBulb@@@2@@stdext@@YAPAPAVCLightBulb@@V?$_Vector_iterator@PAVCLightBulb@@V?$allocator@PAVCLightBulb@@@std@@@std@@0PAPAV1@AAV?$allocator@PAVCLightBulb@@@3@@Z 004d5360 f i LMProc.obj
 0001:000d4360       ??$_Unchecked_uninitialized_move@V?$_Vector_iterator@PAVCLeaf@@V?$allocator@PAVCLeaf@@@std@@@std@@PAPAVCLeaf@@V?$allocator@PAVCLeaf@@@2@@stdext@@YAPAPAVCLeaf@@V?$_Vector_iterator@PAVCLeaf@@V?$allocator@PAVCLeaf@@@std@@@std@@0PAPAV1@AAV?$allocator@PAVCLeaf@@@3@@Z 004d5360 f i CompilerStream.obj
 0001:000d4360       ??$_Unchecked_uninitialized_move@V?$_Vector_iterator@MV?$allocator@M@std@@@std@@PAMV?$allocator@M@2@@stdext@@YAPAMV?$_Vector_iterator@MV?$allocator@M@std@@@std@@0PAMAAV?$allocator@M@2@@Z 004d5360 f i TerTree.obj
 0001:000d4360       ??$_Unchecked_uninitialized_move@V?$_Vector_iterator@HV?$allocator@H@std@@@std@@PAHV?$allocator@H@2@@stdext@@YAPAHV?$_Vector_iterator@HV?$allocator@H@std@@@std@@0PAHAAV?$allocator@H@2@@Z 004d5360 f i BspTree.obj
 0001:000d43b0       ?CreateObject@CZ_ed2Doc@@SGPAVCObject@@XZ 004d53b0 f   z_ed2Doc.obj
 0001:000d4430       ?GetRuntimeClass@CZ_ed2Doc@@UBEPAUCRuntimeClass@@XZ 004d5430 f   z_ed2Doc.obj
 0001:000d4440       ?GetMessageMap@CZ_ed2Doc@@MBEPBUAFX_MSGMAP@@XZ 004d5440 f   z_ed2Doc.obj
 0001:000d4450       ?GetThisMessageMap@CZ_ed2Doc@@KGPBUAFX_MSGMAP@@XZ 004d5450 f   z_ed2Doc.obj
 0001:000d4460       ??0CZ_ed2Doc@@QAE@XZ       004d5460 f   z_ed2Doc.obj
 0001:000d4c70       ?IsModified@CDocument@@UAEHXZ 004d5c70 f i z_ed2Doc.obj
 0001:000d4c90       ?SetModifiedFlag@CDocument@@UAEXH@Z 004d5c90 f i z_ed2Doc.obj
 0001:000d4cb0       ??0Scene@@QAE@XZ           004d5cb0 f i z_ed2Doc.obj
 0001:000d4ec0       ?Initialize@Scene@@QAEXXZ  004d5ec0 f i z_ed2Doc.obj
 0001:000d5030       ??1Scene@@UAE@XZ           004d6030 f i z_ed2Doc.obj
 0001:000d52a0       ?Clear@Scene@@QAEXXZ       004d62a0 f i z_ed2Doc.obj
 0001:000d5380       ??_GScene@@UAEPAXI@Z       004d6380 f i z_ed2Doc.obj
 0001:000d5380       ??_EScene@@UAEPAXI@Z       004d6380 f i z_ed2Doc.obj
 0001:000d53c0       ??1?$vvector@VItemCat@@@@QAE@XZ 004d63c0 f i z_ed2Doc.obj
 0001:000d5430       ??1?$map@V?$basic_string@DU?$char_traits@D@std@@V?$allocator@D@2@@std@@V12@U?$less@V?$basic_string@DU?$char_traits@D@std@@V?$allocator@D@2@@std@@@2@V?$allocator@U?$pair@$$CBV?$basic_string@DU?$char_traits@D@std@@V?$allocator@D@2@@std@@V12@@std@@@2@@std@@QAE@XZ 004d6430 f i z_ed2Doc.obj
 0001:000d54b0       ??_ECUndo@@UAEPAXI@Z       004d64b0 f i z_ed2Doc.obj
 0001:000d54b0       ??_GCUndo@@UAEPAXI@Z       004d64b0 f i z_ed2Doc.obj
 0001:000d54e0       ??1CUndo@@UAE@XZ           004d64e0 f i z_ed2Doc.obj
 0001:000d5570       ??1?$vvector@URecord@CUndo@@@@QAE@XZ 004d6570 f i z_ed2Doc.obj
 0001:000d55e0       ??_GCZ_ed2Doc@@UAEPAXI@Z   004d65e0 f i z_ed2Doc.obj
 0001:000d55e0       ??_ECZ_ed2Doc@@UAEPAXI@Z   004d65e0 f i z_ed2Doc.obj
 0001:000d5610       ??1?$vector@VV3@@V?$allocator@VV3@@@std@@@std@@QAE@XZ 004d6610 f i CompilerStream.obj
 0001:000d5610       ??1?$vvector@VV3@@@@QAE@XZ 004d6610 f i CompilerStream.obj
 0001:000d5610       ??1?$vvector@UPolyEdge@@@@QAE@XZ 004d6610 f i z_ed2Doc.obj
 0001:000d5680       ??1CZ_ed2Doc@@UAE@XZ       004d6680 f   z_ed2Doc.obj
 0001:000d59d0       ?OnOpenDocument@CZ_ed2Doc@@UAEHPBD@Z 004d69d0 f   z_ed2Doc.obj
 0001:000d5a80       ?OnNewDocument@CZ_ed2Doc@@UAEHXZ 004d6a80 f   z_ed2Doc.obj
 0001:000d5ba0       ?InitDocVars@CZ_ed2Doc@@IAEXXZ 004d6ba0 f   z_ed2Doc.obj
 0001:000d6180       ?OnDraw@CZ_ed2View@@UAEXPAVCDC@@@Z 004d7180 f   z_ed2View.obj
 0001:000d6180       ?OnUpdateToXml@CZ_ed2Doc@@QAEXPAVCCmdUI@@@Z 004d7180 f   z_ed2Doc.obj
 0001:000d6180       ?OnKillFocus@CVertDlgDlg@@IAEXPAVCWnd@@@Z 004d7180 f   VertDlgDlg.obj
 0001:000d6180       ?ShowSelItmDlg@CDlgBar@@QAEXH@Z 004d7180 f   DlgBar.obj
 0001:000d6180       ?CameraPointTo@CZ_ed2Doc@@QAEXAAVV3@@@Z 004d7180 f   z_ed2Doc.obj
 0001:000d6180       ?DoDataExchange@CAboutDlg@@MAEXPAVCDataExchange@@@Z 004d7180 f   AboutDlg.obj
 0001:000d6180       ?SetSelection@CMyStatusBar@@QAEXH@Z 004d7180 f   MyStatusBar.obj
 0001:000d6180       ?OnUpdateShowgrid@CZ_ed2Doc@@QAEXPAVCCmdUI@@@Z 004d7180 f   z_ed2Doc.obj
 0001:000d6180       ?Activate@DlgItems@@QAEXH@Z 004d7180 f   DlgItems.obj
 0001:000d6180       ?Show@CBaseDlg@@UAEXH@Z    004d7180 f   DlgConsole.obj
 0001:000d6180       ?Serialize@CObject@@UAEXAAVCArchive@@@Z 004d7180 f   bTbarCombo.obj
 0001:000d6180       ?AttachItemScriptFile@DlgBarScript@@QAEXPBD@Z 004d7180 f   DlgBarScript.obj
 0001:000d6180       ?OnUpdateFileSaveAs@CZ_ed2Doc@@QAEXPAVCCmdUI@@@Z 004d7180 f   z_ed2Doc.obj
 0001:000d6180       ?OnUpdateFileSave@CZ_ed2Doc@@QAEXPAVCCmdUI@@@Z 004d7180 f   z_ed2Doc.obj
 0001:000d6180       ?Serialize@CZ_ed2Doc@@UAEXAAVCArchive@@@Z 004d7180 f   z_ed2Doc.obj
 0001:000d6180       ?DomFliptexture@CDlgTextures@@IAEXD@Z 004d7180 f   DlgTextures.obj
 0001:000d6180       ?DoDataExchange@DlbRB@@MAEXPAVCDataExchange@@@Z 004d7180 f   PrpLb.obj
 0001:000d6180       ?ReadFromBSP@CZ_ed2Doc@@IAEXPBD@Z 004d7180 f   z_ed2DocSave.obj
 0001:000d6180       ?DoDataExchange@CWnd@@MAEXPAVCDataExchange@@@Z 004d7180 f   bTbarCombo.obj
 0001:000d6180       ?OnUpdateSpline@CZ_ed2Doc@@QAEXPAVCCmdUI@@@Z 004d7180 f   z_ed2DocMk.obj
 0001:000d6180       ?OnDraw@z_ed3View@@MAEXPAVCDC@@@Z 004d7180 f   z_ed3View.obj
 0001:000d6180       ?Serialize@CSampleDoc@@UAEXAAVCArchive@@@Z 004d7180 f   SampleDoc.obj
 0001:000d6180       ?OnUpdateClosedspline@CZ_ed2Doc@@QAEXPAVCCmdUI@@@Z 004d7180 f   z_ed2DocMk.obj
 0001:000d6180       ?DoDataExchange@DlgMurrChs@@MAEXPAVCDataExchange@@@Z 004d7180 f   DlgMurrChs.obj
 0001:000d6180       ?DoDataExchange@CBaseDlg@@UAEXPAVCDataExchange@@@Z 004d7180 f   UiEnhancer.obj
 0001:000d6180       ?GetTextureSubPaths@CarryTex@@UAEXAAV?$vvector@V?$basic_string@DU?$char_traits@D@std@@V?$allocator@D@2@@std@@@@@Z 004d7180 f   DlgResBrowser.obj
 0001:000d6180       ?OnDropSource@CCrystalTextView@@MAEXK@Z 004d7180 f   CCrystalTextView.obj
 0001:000d6180       ?SelectSubPath@CarryTex@@UAEXH@Z 004d7180 f   DlgResBrowser.obj
 0001:000d6190       ?OnTbLockxyz@CZ_ed2Doc@@QAEXXZ 004d7190 f   z_ed2Doc.obj
 0001:000d62a0       ?OnUpdateTbLockxyz@CZ_ed2Doc@@QAEXPAVCCmdUI@@@Z 004d72a0 f   z_ed2Doc.obj
 0001:000d62e0       ?SetShift@CZ_ed2Doc@@QAEXPAVCZ_ed2View@@@Z 004d72e0 f   z_ed2Doc.obj
 0001:000d64c0       ?SetZoom@CZ_ed2Doc@@QAEXPAVCZ_ed2View@@@Z 004d74c0 f   z_ed2Doc.obj
 0001:000d6610       ?Invalidate@CZ_ed2Doc@@QAEXH@Z 004d7610 f   z_ed2Doc.obj
 0001:000d6740       ?Invalidate3D@CZ_ed2Doc@@QAEXH@Z 004d7740 f   z_ed2Doc.obj
 0001:000d67a0       ?OnBuriselow@CZ_ed2Doc@@QAEXXZ 004d77a0 f   z_ed2Doc.obj
 0001:000d67d0       ?OnBurotate@CZ_ed2Doc@@QAEXXZ 004d77d0 f   z_ed2Doc.obj
 0001:000d6800       ?OnUpdateBurotate@CZ_ed2Doc@@QAEXPAVCCmdUI@@@Z 004d7800 f   z_ed2Doc.obj
 0001:000d68f0       ?OnBumove@CZ_ed2Doc@@QAEXXZ 004d78f0 f   z_ed2Doc.obj
 0001:000d6920       ?OnUpdateBumove@CZ_ed2Doc@@QAEXPAVCCmdUI@@@Z 004d7920 f   z_ed2Doc.obj
 0001:000d6ad0       ?OnBUScale@CZ_ed2Doc@@QAEXXZ 004d7ad0 f   z_ed2Doc.obj
 0001:000d6b00       ?OnUpdateBUScale@CZ_ed2Doc@@QAEXPAVCCmdUI@@@Z 004d7b00 f   z_ed2Doc.obj
 0001:000d6bf0       ?DoSelection2D@CZ_ed2Doc@@QAEXMMPAVCZ_ed2View@@W4_EL_SEL@@@Z 004d7bf0 f   z_ed2Doc.obj
 0001:000d6d40       ?DoSelection3D@CZ_ed2Doc@@QAEXAAVCPoint@@PAVz_ed3View@@W4_EL_SEL@@@Z 004d7d40 f   z_ed2Doc.obj
 0001:000d6f70       ?RayIntersectItems@CZ_ed2Doc@@QAEXAAVV3@@0@Z 004d7f70 f   z_ed2Doc.obj
 0001:000d78e0       ?DeselectItem@CZ_ed2Doc@@QAEXPAVSceItem@@H@Z 004d88e0 f   z_ed2Doc.obj
 0001:000d7970       ?SelectItem@CZ_ed2Doc@@QAEHPAVSceItem@@H@Z 004d8970 f   z_ed2Doc.obj
 0001:000d7aa0       ?DeselectItems@CZ_ed2Doc@@QAEXH@Z 004d8aa0 f   z_ed2Doc.obj
 0001:000d7c50       ?RayIntersectBrush@CZ_ed2Doc@@QAEXAAVV3@@0W4_EL_SEL@@@Z 004d8c50 f   z_ed2Doc.obj
 0001:000d7dc0       ?GetPrimitive@Scene@@QAEPAVBrush@@H@Z 004d8dc0 f i z_ed2Doc.obj
 0001:000d7e30       ?GetBrush@Scene@@QAEPAVBrush@@H@Z 004d8e30 f i z_ed2Doc.obj
 0001:000d7ea0       ?Make3dCursorPos@CZ_ed2Doc@@QAEXPAVz_ed3View@@AAVCPoint@@UtagRECT@@AAVV3@@@Z 004d8ea0 f   z_ed2Doc.obj
 0001:000d9270       ?BrushIntersect@CZ_ed2Doc@@QAEHAAVV3@@0AAH11@Z 004da270 f   z_ed2Doc.obj
 0001:000da1a0       ?OnBushcam@CZ_ed2Doc@@QAEXXZ 004db1a0 f   z_ed2Doc.obj
 0001:000da1d0       ?OnUpdateBushcam@CZ_ed2Doc@@QAEXPAVCCmdUI@@@Z 004db1d0 f   z_ed2Doc.obj
 0001:000da210       ?OnBusnapgrid@CZ_ed2Doc@@QAEXXZ 004db210 f   z_ed2Doc.obj
 0001:000da230       ?OnUpdateBusnapgrid@CZ_ed2Doc@@QAEXPAVCCmdUI@@@Z 004db230 f   z_ed2Doc.obj
 0001:000da270       ?OnSelitem@CZ_ed2Doc@@QAEXXZ 004db270 f   z_ed2Doc.obj
 0001:000da3b0       ?OnButselbrush@CZ_ed2Doc@@QAEXXZ 004db3b0 f   z_ed2Doc.obj
 0001:000da500       ?OnSeledge@CZ_ed2Doc@@QAEXXZ 004db500 f   z_ed2Doc.obj
 0001:000da650       ?OnUpdateSeledge@CZ_ed2Doc@@QAEXPAVCCmdUI@@@Z 004db650 f   z_ed2Doc.obj
 0001:000da6d0       ?OnSelvertex@CZ_ed2Doc@@QAEXXZ 004db6d0 f   z_ed2Doc.obj
 0001:000da820       ?OnBufacesel@CZ_ed2Doc@@QAEXXZ 004db820 f   z_ed2Doc.obj
 0001:000da970       ?OnUpdateButselbrush@CZ_ed2Doc@@QAEXPAVCCmdUI@@@Z 004db970 f   z_ed2Doc.obj
 0001:000daa10       ?OnUpdateSelitem@CZ_ed2Doc@@QAEXPAVCCmdUI@@@Z 004dba10 f   z_ed2Doc.obj
 0001:000daaa0       ?OnUpdateSelvertex@CZ_ed2Doc@@QAEXPAVCCmdUI@@@Z 004dbaa0 f   z_ed2Doc.obj
 0001:000dab30       ?OnUpdateBufacesel@CZ_ed2Doc@@QAEXPAVCCmdUI@@@Z 004dbb30 f   z_ed2Doc.obj
 0001:000dabd0       ?SelectBrush@CZ_ed2Doc@@IAEXHH@Z 004dbbd0 f   z_ed2Doc.obj
 0001:000dacb0       ?SelectAllBrushVertexes@CZ_ed2Doc@@IAEXAAVBrush@@AAVVtx2@@@Z 004dbcb0 f   z_ed2Doc.obj
 0001:000dafd0       ?SelectVertex@CZ_ed2Doc@@IAEXPAVVtx2@@PAVPoly@@@Z 004dbfd0 f   z_ed2Doc.obj
 0001:000db010       ?SelectVertex@CZ_ed2Doc@@IAEXHHH@Z 004dc010 f   z_ed2Doc.obj
 0001:000db1c0       ?isnot0@V3@@QBEHXZ         004dc1c0 f i z_ed2Doc.obj
 0001:000db260       ?GetForm@CZ_ed2Doc@@QAEPAVBrush@@H@Z 004dc260 f i z_ed2Doc.obj
 0001:000db2b0       ?SelectEdge@CZ_ed2Doc@@QAEXHHH@Z 004dc2b0 f   z_ed2Doc.obj
 0001:000db450       ?SelectFace@CZ_ed2Doc@@IAEPAVPoly@@HH@Z 004dc450 f   z_ed2Doc.obj
 0001:000db610       ?DeselectBrushes@CZ_ed2Doc@@QAEXXZ 004dc610 f   z_ed2Doc.obj
 0001:000db7d0       ?DeselectPolys@CZ_ed2Doc@@QAEXH@Z 004dc7d0 f   z_ed2Doc.obj
 0001:000db900       ?DeselectVertexes@CZ_ed2Doc@@QAEXXZ 004dc900 f   z_ed2Doc.obj
 0001:000dba40       ?DeselectAll@CZ_ed2Doc@@QAEXH@Z 004dca40 f   z_ed2Doc.obj
 0001:000dbb30       ?OnFileSave@CZ_ed2Doc@@QAEXXZ 004dcb30 f   z_ed2Doc.obj
 0001:000dbc70       ?OnFileSaveAs@CZ_ed2Doc@@QAEXXZ 004dcc70 f   z_ed2Doc.obj
 0001:000dbfe0       ?OnEditPaste@CZ_ed2Doc@@QAEXXZ 004dcfe0 f   z_ed2Doc.obj
 0001:000dc4c0       ??1SelModeSave@@QAE@XZ     004dd4c0 f i z_ed2Doc.obj
 0001:000dc4f0       ?OnBushowback@CZ_ed2Doc@@QAEXXZ 004dd4f0 f   z_ed2Doc.obj
 0001:000dc530       ?OnUpdateBushowback@CZ_ed2Doc@@QAEXPAVCCmdUI@@@Z 004dd530 f   z_ed2Doc.obj
 0001:000dc570       ?OnBuwireframe@CZ_ed2Doc@@QAEXXZ 004dd570 f   z_ed2Doc.obj
 0001:000dc5b0       ?OnUpdateBuwireframe@CZ_ed2Doc@@QAEXPAVCCmdUI@@@Z 004dd5b0 f   z_ed2Doc.obj
 0001:000dc5f0       ?DeleteContents@CZ_ed2Doc@@UAEXXZ 004dd5f0 f   z_ed2Doc.obj
 0001:000dc790       ?OnBushowcsg@CZ_ed2Doc@@QAEXXZ 004dd790 f   z_ed2Doc.obj
 0001:000dc8f0       ?OnUpdateBushowcsg@CZ_ed2Doc@@QAEXPAVCCmdUI@@@Z 004dd8f0 f   z_ed2Doc.obj
 0001:000dc970       ?Recut@CZ_ed2Doc@@QAEXPAV?$vvector@PAVBrush@@@@@Z 004dd970 f   z_ed2Doc.obj
 0001:000dca70       ?HasSomeSelected@CZ_ed2Doc@@QAEHXZ 004dda70 f i z_ed2Doc.obj
 0001:000dcaf0       ?OnUpdateEditPaste@CZ_ed2Doc@@QAEXPAVCCmdUI@@@Z 004ddaf0 f   z_ed2Doc.obj
 0001:000dcb80       ?OnUpdateCut@CZ_ed2Doc@@QAEXPAVCCmdUI@@@Z 004ddb80 f   z_ed2Doc.obj
 0001:000dcb80       ?OnUpdateDelete@CZ_ed2Doc@@QAEXPAVCCmdUI@@@Z 004ddb80 f   z_ed2Doc.obj
 0001:000dcb80       ?OnUpdateEditCopy@CZ_ed2Doc@@QAEXPAVCCmdUI@@@Z 004ddb80 f   z_ed2Doc.obj
 0001:000dcbc0       ?HideSelBox@CZ_ed2Doc@@QAEXXZ 004ddbc0 f   z_ed2Doc.obj
 0001:000dcc00       ?GetViewXYZWidths@CZ_ed2Doc@@IAE?AVV3@@XZ 004ddc00 f   z_ed2Doc.obj
 0001:000dce70       ?CreateSelBox@CZ_ed2Doc@@QAEXAAVCPoint@@@Z 004dde70 f   z_ed2Doc.obj
 0001:000dd110       ?Escape@CZ_ed2Doc@@QAEXH@Z 004de110 f   z_ed2Doc.obj
 0001:000dd2f0       ?OnEscape@CZ_ed2Doc@@QAEXXZ 004de2f0 f   z_ed2Doc.obj
 0001:000dd320       ?OnEditCopy@CZ_ed2Doc@@QAEXXZ 004de320 f   z_ed2Doc.obj
 0001:000dd750       ?OnCut@CZ_ed2Doc@@QAEXXZ   004de750 f   z_ed2Doc.obj
 0001:000dd770       ?DeleteBrush@CZ_ed2Doc@@QAEHPAVBrush@@H@Z 004de770 f   z_ed2Doc.obj
 0001:000ddd60       ?OnDelete@CZ_ed2Doc@@QAEXXZ 004ded60 f   z_ed2Doc.obj
 0001:000de530       ?OnUpdateMirror@CZ_ed2Doc@@QAEXPAVCCmdUI@@@Z 004df530 f   z_ed2Doc.obj
 0001:000de590       ?OnEnter@CZ_ed2Doc@@QAEXXZ 004df590 f   z_ed2Doc.obj
 0001:000dec50       ?AddItem@Scene@@QAEHPAVSceItem@@@Z 004dfc50 f i z_ed2Doc.obj
 0001:000decb0       ?OnUpdateEnter@CZ_ed2Doc@@QAEXPAVCCmdUI@@@Z 004dfcb0 f   z_ed2Doc.obj
 0001:000dece0       ?SelectBrush@CZ_ed2Doc@@QAEHPAVBrush@@@Z 004dfce0 f   z_ed2Doc.obj
 0001:000dedf0       ?DeSelectBrush@CZ_ed2Doc@@QAEXPAVBrush@@@Z 004dfdf0 f   z_ed2Doc.obj
 0001:000dee80       ?SelectFace@CZ_ed2Doc@@QAEHPAVPoly@@PAVBrush@@@Z 004dfe80 f   z_ed2Doc.obj
 0001:000deef0       ?DeSelectFace@CZ_ed2Doc@@QAEXPAVPoly@@@Z 004dfef0 f   z_ed2Doc.obj
 0001:000def30       ?OnFinalRelease@CZ_ed2Doc@@UAEXXZ 004dff30 f   z_ed2Doc.obj
 0001:000def50       ?OnStartMoveRotScale@CZ_ed2Doc@@QAEHXZ 004dff50 f   z_ed2Doc.obj
 0001:000df0b0       ?OnFinishMoveRotScale@CZ_ed2Doc@@QAEXHPAV?$vvector@PAVBrush@@@@@Z 004e00b0 f   z_ed2Doc.obj
 0001:000df980       ?OnEditUndo@CZ_ed2Doc@@QAEXXZ 004e0980 f   z_ed2Doc.obj
 0001:000df9a0       ?OnUpdateEditUndo@CZ_ed2Doc@@QAEXPAVCCmdUI@@@Z 004e09a0 f   z_ed2Doc.obj
 0001:000df9e0       ?OnTabPrevsel@CZ_ed2Doc@@QAEXXZ 004e09e0 f   z_ed2Doc.obj
 0001:000dfa10       ?OnTabNextsel@CZ_ed2Doc@@QAEXXZ 004e0a10 f   z_ed2Doc.obj
 0001:000dfaa0       ?OnTabSelnext@CZ_ed2Doc@@QAEXXZ 004e0aa0 f   z_ed2Doc.obj
 0001:000dfad0       ?OnTabSelprev@CZ_ed2Doc@@QAEXXZ 004e0ad0 f   z_ed2Doc.obj
 0001:000dfb30       ?SelectTabBrush@CZ_ed2Doc@@QAEXHH@Z 004e0b30 f   z_ed2Doc.obj
 0001:000e1190       ?OnCompbsp@CZ_ed2Doc@@QAEXXZ 004e2190 f   z_ed2Doc.obj
 0001:000e1520       ?OnZones@CZ_ed2Doc@@QAEXXZ 004e2520 f   z_ed2Doc.obj
 0001:000e1570       ?OnUpdateZones@CZ_ed2Doc@@QAEXPAVCCmdUI@@@Z 004e2570 f   z_ed2Doc.obj
 0001:000e15c0       ?OnViewGraph@CZ_ed2Doc@@QAEXXZ 004e25c0 f   z_ed2Doc.obj
 0001:000e1850       ?OnUpdateViewGraph@CZ_ed2Doc@@QAEXPAVCCmdUI@@@Z 004e2850 f   z_ed2Doc.obj
 0001:000e18a0       ?OnViewLeafByLeaf@CZ_ed2Doc@@QAEXXZ 004e28a0 f   z_ed2Doc.obj
 0001:000e1a30       ?OnUpdateViewLeafByLeaf@CZ_ed2Doc@@QAEXPAVCCmdUI@@@Z 004e2a30 f   z_ed2Doc.obj
 0001:000e1aa0       ?OnViewLightmaps@CZ_ed2Doc@@QAEXXZ 004e2aa0 f   z_ed2Doc.obj
 0001:000e1c30       ?OnUpdateViewLightmaps@CZ_ed2Doc@@QAEXPAVCCmdUI@@@Z 004e2c30 f   z_ed2Doc.obj
 0001:000e1ca0       ?OnViewFullBSP@CZ_ed2Doc@@QAEXXZ 004e2ca0 f   z_ed2Doc.obj
 0001:000e1e20       ?OnUpdateOnViewFullBSP@CZ_ed2Doc@@QAEXPAVCCmdUI@@@Z 004e2e20 f   z_ed2Doc.obj
 0001:000e1e90       ?OnViewPortals@CZ_ed2Doc@@QAEXXZ 004e2e90 f   z_ed2Doc.obj
 0001:000e2010       ?OnUpdateOnViewPortals@CZ_ed2Doc@@QAEXPAVCCmdUI@@@Z 004e3010 f   z_ed2Doc.obj
 0001:000e2080       ?OnViewWhite@CZ_ed2Doc@@QAEXXZ 004e3080 f   z_ed2Doc.obj
 0001:000e2200       ?OnViewByFar@CZ_ed2Doc@@QAEXXZ 004e3200 f   z_ed2Doc.obj
 0001:000e2380       ?OnViewByFarUpdate@CZ_ed2Doc@@QAEXPAVCCmdUI@@@Z 004e3380 f   z_ed2Doc.obj
 0001:000e2410       ?OnViewWhiteUpdate@CZ_ed2Doc@@QAEXPAVCCmdUI@@@Z 004e3410 f   z_ed2Doc.obj
 0001:000e24a0       ?OnViewColorLeafs@CZ_ed2Doc@@QAEXXZ 004e34a0 f   z_ed2Doc.obj
 0001:000e2620       ?OnUpdateOnViewColorLeafs@CZ_ed2Doc@@QAEXPAVCCmdUI@@@Z 004e3620 f   z_ed2Doc.obj
 0001:000e2690       ?OnSelnondetbrushes@CZ_ed2Doc@@QAEXXZ 004e3690 f   z_ed2Doc.obj
 0001:000e27e0       ?OnDetbrushes@CZ_ed2Doc@@QAEXXZ 004e37e0 f   z_ed2Doc.obj
 0001:000e2930       ?OnSelectall@CZ_ed2Doc@@QAEXXZ 004e3930 f   z_ed2Doc.obj
 0001:000e2f30       ?OnSelsameasselface@CZ_ed2Doc@@QAEXXZ 004e3f30 f   z_ed2Doc.obj
 0001:000e33e0       ?OnCmdMsg@CZ_ed2Doc@@UAEHIHPAXPAUAFX_CMDHANDLERINFO@@@Z 004e43e0 f   z_ed2Doc.obj
 0001:000e3420       ?DisableAll@CZ_ed2Doc@@QAEXH@Z 004e4420 f   z_ed2Doc.obj
 0001:000e3490       ?OnUpdateSelsameasselface@CZ_ed2Doc@@QAEXPAVCCmdUI@@@Z 004e4490 f   z_ed2Doc.obj
 0001:000e3520       ?OnUpdateSelectall@CZ_ed2Doc@@QAEXPAVCCmdUI@@@Z 004e4520 f   z_ed2Doc.obj
 0001:000e35c0       ?OnBureverse@CZ_ed2Doc@@QAEXXZ 004e45c0 f   z_ed2Doc.obj
 0001:000e3930       ?OnUpdateBureverse@CZ_ed2Doc@@QAEXPAVCCmdUI@@@Z 004e4930 f   z_ed2Doc.obj
 0001:000e39d0       ?OnUpdateBucsg@CZ_ed2Doc@@QAEXPAVCCmdUI@@@Z 004e49d0 f   z_ed2Doc.obj
 0001:000e3a40       ?AddItem@CZ_ed2Doc@@QAEHPAVSceItem@@@Z 004e4a40 f   z_ed2Doc.obj
 0001:000e3ab0       ?DelItem@CZ_ed2Doc@@QAEXPAVSceItem@@@Z 004e4ab0 f   z_ed2Doc.obj
 0001:000e3b10       ?DelItem@Scene@@QAEXPAVSceItem@@@Z 004e4b10 f i z_ed2Doc.obj
 0001:000e3c50       ?OnSaveDocument@CZ_ed2Doc@@UAEHPBD@Z 004e4c50 f   z_ed2Doc.obj
 0001:000e3c50       ?ExportBSP@Compiler@@QAEHPBD@Z 004e4c50 f   CompilerStream.obj
 0001:000e3c50       ?AllocMemory@LMProc@@QAEHAAV?$vvector@PAVCBspTree@@@@@Z 004e4c50 f   LMProc.obj
 0001:000e3c70       ?OnCloseDocument@CZ_ed2Doc@@UAEXXZ 004e4c70 f   z_ed2Doc.obj
 0001:000e3cd0       ?MoveCamera@CZ_ed2Doc@@QAEXAAVV3@@@Z 004e4cd0 f   z_ed2Doc.obj
 0001:000e3e60       ?OnAddModel@CZ_ed2Doc@@QAEXXZ 004e4e60 f   z_ed2Doc.obj
 0001:000e3ea0       ?DeleteBrushMotion@CZ_ed2Doc@@QAEXPAVBrush@@@Z 004e4ea0 f   z_ed2Doc.obj
 0001:000e3f00       ?DelMotion@Scene@@QAEXPAVCMotion@@@Z 004e4f00 f i z_ed2Doc.obj
 0001:000e40d0       ?AddBrushMotion@CZ_ed2Doc@@QAEHPAVBrush@@PAVCMotion@@@Z 004e50d0 f   z_ed2Doc.obj
 0001:000e4120       ?AddMotion@Scene@@QAEHPAVCMotion@@@Z 004e5120 f i z_ed2Doc.obj
 0001:000e4180       ?UpdateDynamicObjPos@CZ_ed2Doc@@IAEXPAVBrush@@@Z 004e5180 f   z_ed2Doc.obj
 0001:000e41c0       ?OnTexrefdlg@CZ_ed2Doc@@QAEXXZ 004e51c0 f   z_ed2Doc.obj
 0001:000e4280       ??1CDlgTexRefs@@UAE@XZ     004e5280 f i z_ed2Doc.obj
 0001:000e4300       ?DeleteBrushItemLinks@CZ_ed2Doc@@IAEXPAVBrush@@@Z 004e5300 f   z_ed2Doc.obj
 0001:000e4370       ?UpdateBrushLinks@CZ_ed2Doc@@IAEXPAVBrush@@@Z 004e5370 f   z_ed2Doc.obj
 0001:000e44e0       ?OnShowselbbox@CZ_ed2Doc@@QAEXXZ 004e54e0 f   z_ed2Doc.obj
 0001:000e45a0       ?DetachTrigger@CZ_ed2Doc@@QAEXPAVBrush@@@Z 004e55a0 f   z_ed2Doc.obj
 0001:000e46a0       ?ModifyBrushes@CZ_ed2Doc@@IAEXAAV?$vvector@PAVBrush@@@@@Z 004e56a0 f   z_ed2Doc.obj
 0001:000e48c0       ?SplitBySplitterBrush@CZ_ed2Doc@@QAEXPAVBrush@@@Z 004e58c0 f   z_ed2Doc.obj
 0001:000e5120       ?OnTriangulate@CZ_ed2Doc@@QAEXXZ 004e6120 f   z_ed2Doc.obj
 0001:000e5230       ?OnTriFan@CZ_ed2Doc@@QAEXXZ 004e6230 f   z_ed2Doc.obj
 0001:000e5320       ?OnUpdateTriangulate@CZ_ed2Doc@@QAEXPAVCCmdUI@@@Z 004e6320 f   z_ed2Doc.obj
 0001:000e5320       ?OnUpdateTriFan@CZ_ed2Doc@@QAEXPAVCCmdUI@@@Z 004e6320 f   z_ed2Doc.obj
 0001:000e53a0       ?AddVertex@CZ_ed2Doc@@IAEXPAVPoly@@ABVV3@@@Z 004e63a0 f   z_ed2Doc.obj
 0001:000e5480       ?OnSametexface@CZ_ed2Doc@@QAEXXZ 004e6480 f   z_ed2Doc.obj
 0001:000e57f0       ?OnSamenormface@CZ_ed2Doc@@QAEXXZ 004e67f0 f   z_ed2Doc.obj
 0001:000e5e70       ?OnUpdateZoy@CZ_ed2Doc@@QAEXPAVCCmdUI@@@Z 004e6e70 f   z_ed2Doc.obj
 0001:000e5e70       ?OnUpdateXoz@CZ_ed2Doc@@QAEXPAVCCmdUI@@@Z 004e6e70 f   z_ed2Doc.obj
 0001:000e5e70       ?OnUpdateXoy@CZ_ed2Doc@@QAEXPAVCCmdUI@@@Z 004e6e70 f   z_ed2Doc.obj
 0001:000e5ed0       ?OnUpdateExtrude@CZ_ed2Doc@@QAEXPAVCCmdUI@@@Z 004e6ed0 f   z_ed2Doc.obj
 0001:000e5f10       ?OnExtrude@CZ_ed2Doc@@QAEXXZ 004e6f10 f   z_ed2Doc.obj
 0001:000e6bb0       ?OnMerge@CZ_ed2Doc@@QAEXXZ 004e7bb0 f   z_ed2Doc.obj
 0001:000e6cd0       ?OnUpdateMerge@CZ_ed2Doc@@QAEXPAVCCmdUI@@@Z 004e7cd0 f   z_ed2Doc.obj
 0001:000e6cd0       ?OnUpdatePermcut@CZ_ed2Doc@@QAEXPAVCCmdUI@@@Z 004e7cd0 f   z_ed2Doc.obj
 0001:000e6d10       ?CleanProjections@CZ_ed2Doc@@QAEXAAVBrush@@H@Z 004e7d10 f   z_ed2Doc.obj
 0001:000e75b0       ?ProjectTexture@CZ_ed2Doc@@QAEXAAVBrush@@@Z 004e85b0 f   z_ed2Doc.obj
 0001:000e8700       ?UpdateCutsCollisionList@CZ_ed2Doc@@QAEXPAPAVBrush@@H@Z 004e9700 f   z_ed2Doc.obj
 0001:000e8e70       ?UpdateTouches@CZ_ed2Doc@@QAEHPAVBrush@@0AAV?$map@PAVBrush@@HU?$less@PAVBrush@@@std@@V?$allocator@U?$pair@QAVBrush@@H@std@@@3@@std@@@Z 004e9e70 f   z_ed2Doc.obj
 0001:000e9140       ?OnPermcut@CZ_ed2Doc@@QAEXXZ 004ea140 f   z_ed2Doc.obj
 0001:000e9e50       ?OnUndo@CZ_ed2Doc@@QAEXXZ  004eae50 f   z_ed2Doc.obj
 0001:000e9e70       ?OnUpdateTervol@CZ_ed2Doc@@QAEXPAVCCmdUI@@@Z 004eae70 f   z_ed2Doc.obj
 0001:000e9f00       ?OnTervol@CZ_ed2Doc@@QAEXXZ 004eaf00 f   z_ed2Doc.obj
 0001:000ea0c0       ?OnManTex@CZ_ed2Doc@@QAEXXZ 004eb0c0 f   z_ed2Doc.obj
 0001:000ea140       ?OnToXml@CZ_ed2Doc@@QAEXXZ 004eb140 f   z_ed2Doc.obj
 0001:000ea3d0       ?OnExtractfaces@CZ_ed2Doc@@QAEXXZ 004eb3d0 f   z_ed2Doc.obj
 0001:000ea840       ?OnUpdateExtractfaces@CZ_ed2Doc@@QAEXPAVCCmdUI@@@Z 004eb840 f   z_ed2Doc.obj
 0001:000ea890       ?OnEvaldets@CZ_ed2Doc@@QAEXXZ 004eb890 f   z_ed2Doc.obj
 0001:000ea920       ?OnUpdateEvaldets@CZ_ed2Doc@@QAEXPAVCCmdUI@@@Z 004eb920 f   z_ed2Doc.obj
 0001:000ea950       ?OnHome@CZ_ed2Doc@@QAEXXZ  004eb950 f   z_ed2Doc.obj
 0001:000eab40       ?OnCreatesb@CZ_ed2Doc@@QAEXXZ 004ebb40 f   z_ed2Doc.obj
 0001:000eac20       ?OnUpdateCreatesb@CZ_ed2Doc@@QAEXPAVCCmdUI@@@Z 004ebc20 f   z_ed2Doc.obj
 0001:000eac50       ?SaveTempFile@CZ_ed2Doc@@QAEXXZ 004ebc50 f   z_ed2Doc.obj
 0001:000eb430       ?TestBackupFile@CZ_ed2Doc@@QAEXXZ 004ec430 f   z_ed2Doc.obj
 0001:000eb910       ?OnLoadlastbackip@CZ_ed2Doc@@QAEXXZ 004ec910 f   z_ed2Doc.obj
 0001:000eb960       ?OnUpdateLoadlastbackip@CZ_ed2Doc@@QAEXPAVCCmdUI@@@Z 004ec960 f   z_ed2Doc.obj
 0001:000eb990       ?RoundToNear@CZ_ed2Doc@@QAEXAAVV3@@H@Z 004ec990 f   z_ed2Doc.obj
 0001:000eba40       ?OnSnapvxes@CZ_ed2Doc@@QAEXXZ 004eca40 f   z_ed2Doc.obj
 0001:000ebd00       ?OnUpdateFileSaveselAs@CZ_ed2Doc@@QAEXPAVCCmdUI@@@Z 004ecd00 f   z_ed2Doc.obj
 0001:000ebd00       ?OnUpdateSnapvxes@CZ_ed2Doc@@QAEXPAVCCmdUI@@@Z 004ecd00 f   z_ed2Doc.obj
 0001:000ebd40       ?OnShowgrid@CZ_ed2Doc@@QAEXXZ 004ecd40 f   z_ed2Doc.obj
 0001:000ebd70       ?OnTrpolys@CZ_ed2Doc@@QAEXXZ 004ecd70 f   z_ed2Doc.obj
 0001:000ebda0       ?OnRepoint@CZ_ed2Doc@@QAEXXZ 004ecda0 f   z_ed2Doc.obj
 0001:000ec550       ?OnUpdateRepoint@CZ_ed2Doc@@QAEXPAVCCmdUI@@@Z 004ed550 f   z_ed2Doc.obj
 0001:000ec5a0       ?OnRepointbrsh@CZ_ed2Doc@@QAEXXZ 004ed5a0 f   z_ed2Doc.obj
 0001:000ec920       ?OnUpdateRepointbrsh@CZ_ed2Doc@@QAEXPAVCCmdUI@@@Z 004ed920 f   z_ed2Doc.obj
 0001:000ecae0       ?OnCamLspot@CZ_ed2Doc@@QAEXXZ 004edae0 f   z_ed2Doc.obj
 0001:000ecb10       ?HasExtension@CZ_ed2Doc@@IAEHPBD@Z 004edb10 f   z_ed2Doc.obj
 0001:000ecb50       ?OnFileSaveselAs@CZ_ed2Doc@@QAEXXZ 004edb50 f   z_ed2Doc.obj
 0001:000ece90       ?OnInsface@CZ_ed2Doc@@QAEXXZ 004ede90 f   z_ed2Doc.obj
 0001:000ed510       ?OnUpdateInsface@CZ_ed2Doc@@QAEXPAVCCmdUI@@@Z 004ee510 f   z_ed2Doc.obj
 0001:000ed5a0       ?OnCutwithbrush@CZ_ed2Doc@@QAEXXZ 004ee5a0 f   z_ed2Doc.obj
 0001:000ed9d0       ?OnUpdateCutwithbrush@CZ_ed2Doc@@QAEXPAVCCmdUI@@@Z 004ee9d0 f   z_ed2Doc.obj
 0001:000eda60       ?AddBrush@CZ_ed2Doc@@QAEXPAVBrush@@@Z 004eea60 f   z_ed2Doc.obj
 0001:000edab0       ?OnWbck@CZ_ed2Doc@@QAEXXZ  004eeab0 f   z_ed2Doc.obj
 0001:000edf10       ?OnPaintimer@CZ_ed2Doc@@QAEXXZ 004eef10 f   z_ed2Doc.obj
 0001:000edf80       ?RecreateAmbLmap@CZ_ed2Doc@@QAE?AVHtex@@XZ 004eef80 f   z_ed2Doc.obj
 0001:000ee0b0       ?OnUpdateCombo@CZ_ed2Doc@@QAEXPAVCCmdUI@@@Z 004ef0b0 f   z_ed2Doc.obj
 0001:000ee110       ?OnUpdateCombots@CZ_ed2Doc@@QAEXPAVCCmdUI@@@Z 004ef110 f   z_ed2Doc.obj
 0001:000ee170       ?OnImpp@CZ_ed2Doc@@QAEXXZ  004ef170 f   z_ed2Doc.obj
 0001:000ee5c0       ?OnExpp@CZ_ed2Doc@@QAEXXZ  004ef5c0 f   z_ed2Doc.obj
 0001:000eed30       ?Release@CStringData@ATL@@QAEXXZ 004efd30 f i z_ed2Doc.obj
 0001:000eed70       ?OnUpdateExpp@CZ_ed2Doc@@QAEXPAVCCmdUI@@@Z 004efd70 f   z_ed2Doc.obj
 0001:000eedf0       ?ResFile@CZ_ed2Doc@@QAE?AV?$CStringT@DV?$StrTraitMFC@DV?$ChTraitsCRT@D@ATL@@@@@ATL@@PBD@Z 004efdf0 f   z_ed2Doc.obj
 0001:000ef1c0       ?DuplicateFile@CZ_ed2Doc@@QAEHPBDH@Z 004f01c0 f   z_ed2Doc.obj
 0001:000ef460       ?CopyResources@CZ_ed2Doc@@QAEXPBD@Z 004f0460 f   z_ed2Doc.obj
 0001:000ef610       ?OnLeafs@CZ_ed2Doc@@QAEXXZ 004f0610 f   z_ed2Doc.obj
 0001:000ef650       ?OnUpdateLeafs@CZ_ed2Doc@@QAEXPAVCCmdUI@@@Z 004f0650 f   z_ed2Doc.obj
 0001:000ef6a0       ?OnUpdateColor@CZ_ed2Doc@@QAEXPAVCCmdUI@@@Z 004f06a0 f   z_ed2Doc.obj
 0001:000ef830       ?OnColor@CZ_ed2Doc@@QAEXXZ 004f0830 f   z_ed2Doc.obj
 0001:000efa40       ?_SeColor@CZ_ed2Doc@@IAEXKAAV?$vvector@PAVBrush@@@@@Z 004f0a40 f   z_ed2Doc.obj
 0001:000efd70       ?_SeColor@CZ_ed2Doc@@IAEXKAAV?$vvector@PAVSceItem@@@@@Z 004f0d70 f   z_ed2Doc.obj
 0001:000efe90       ?_SeColor@CZ_ed2Doc@@IAEXKAAV?$vvector@PAVVtx2@@@@@Z 004f0e90 f   z_ed2Doc.obj
 0001:000effa0       ?_SeColor@CZ_ed2Doc@@IAEXKAAV?$vvector@PAVPoly@@@@@Z 004f0fa0 f   z_ed2Doc.obj
 0001:000f0170       ??9ATL@@YA_NABV?$CStringT@DV?$StrTraitMFC@DV?$ChTraitsCRT@D@ATL@@@@@0@PBD@Z 004f1170 f i z_ed2Doc.obj
 0001:000f01d0       ?substr@?$basic_string@DU?$char_traits@D@std@@V?$allocator@D@2@@std@@QBE?AV12@II@Z 004f11d0 f i z_ed2Doc.obj
 0001:000f0220       ?push_unique@?$vvector@PAVPoly@@@@QAEHAAPAVPoly@@PAI@Z 004f1220 f i z_ed2Doc.obj
 0001:000f0220       ?push_unique@?$vvector@PAVVtx2@@@@QAEHAAPAVVtx2@@PAI@Z 004f1220 f i z_ed2Doc.obj
 0001:000f0220       ?push_unique@?$vvector@PAVSceItem@@@@QAEHAAPAVSceItem@@PAI@Z 004f1220 f i z_ed2Doc.obj
 0001:000f0220       ?push_unique@?$vvector@PAVBrush@@@@QAEHAAPAVBrush@@PAI@Z 004f1220 f i brush.obj
 0001:000f0430       ?front@?$vector@PAVPoly@@V?$allocator@PAVPoly@@@std@@@std@@QAEAAPAVPoly@@XZ 004f1430 f i z_ed2Doc.obj
 0001:000f0490       ??4?$vector@PAVSceItem@@V?$allocator@PAVSceItem@@@std@@@std@@QAEAAV01@ABV01@@Z 004f1490 f i z_ed2Doc.obj
 0001:000f0490       ??4?$vector@PAVBrush@@V?$allocator@PAVBrush@@@std@@@std@@QAEAAV01@ABV01@@Z 004f1490 f i z_ed2Doc.obj
 0001:000f0490       ??4?$vector@HV?$allocator@H@std@@@std@@QAEAAV01@ABV01@@Z 004f1490 f i PortalMerge.obj
 0001:000f0760       ?deleteelements@?$vvector@PAVCMotion@@@@QAEXXZ 004f1760 f i z_ed2Doc.obj
 0001:000f0920       ?deleteelements@?$vvector@PAVCMiniNode@@@@QAEXXZ 004f1920 f i MiniBsp.obj
 0001:000f0920       ?deleteelements@?$vvector@PAVSceItem@@@@QAEXXZ 004f1920 f i z_ed2Doc.obj
 0001:000f0920       ?deleteelements@?$vvector@PAVScriptItem@@@@QAEXXZ 004f1920 f i z_ed2Doc.obj
 0001:000f0920       ?deleteelements@?$vvector@PAVCBspTree@@@@QAEXXZ 004f1920 f i Compiler.obj
 0001:000f0920       ?deleteelements@?$vvector@PAVCSoundItem@@@@QAEXXZ 004f1920 f i z_ed2Doc.obj
 0001:000f0a40       ?clear@?$_Tree@V?$_Tmap_traits@V?$basic_string@DU?$char_traits@D@std@@V?$allocator@D@2@@std@@V12@U?$less@V?$basic_string@DU?$char_traits@D@std@@V?$allocator@D@2@@std@@@2@V?$allocator@U?$pair@$$CBV?$basic_string@DU?$char_traits@D@std@@V?$allocator@D@2@@std@@V12@@std@@@2@$0A@@std@@@std@@QAEXXZ 004f1a40 f i z_ed2Doc.obj
 0001:000f0aa0       ?push_unique@?$vvector@VV3@@@@QAEHAAVV3@@PAI@Z 004f1aa0 f i z_ed2Doc.obj
 0001:000f0cd0       ?Compare@?$CStringT@DV?$StrTraitMFC@DV?$ChTraitsCRT@D@ATL@@@@@ATL@@QBEHPBD@Z 004f1cd0 f i z_ed2Doc.obj
 0001:000f0d20       ??0?$CSimpleStringT@D$0A@@ATL@@QAE@ABV01@@Z 004f1d20 f i z_ed2Doc.obj
 0001:000f0d60       ?replace@?$basic_string@DU?$char_traits@D@std@@V?$allocator@D@2@@std@@QAEAAV12@IIPBDI@Z 004f1d60 f i z_ed2Doc.obj
 0001:000f10d0       ?erase@?$vector@PAVPlane@@V?$allocator@PAVPlane@@@std@@@std@@QAE?AV?$_Vector_iterator@PAVPlane@@V?$allocator@PAVPlane@@@std@@@2@V?$_Vector_const_iterator@PAVPlane@@V?$allocator@PAVPlane@@@std@@@2@@Z 004f20d0 f i MiniBsp.obj
 0001:000f10d0       ?erase@?$vector@PAVPoly@@V?$allocator@PAVPoly@@@std@@@std@@QAE?AV?$_Vector_iterator@PAVPoly@@V?$allocator@PAVPoly@@@std@@@2@V?$_Vector_const_iterator@PAVPoly@@V?$allocator@PAVPoly@@@std@@@2@@Z 004f20d0 f i z_ed2Doc.obj
 0001:000f10d0       ?erase@?$vector@PAVCMotion@@V?$allocator@PAVCMotion@@@std@@@std@@QAE?AV?$_Vector_iterator@PAVCMotion@@V?$allocator@PAVCMotion@@@std@@@2@V?$_Vector_const_iterator@PAVCMotion@@V?$allocator@PAVCMotion@@@std@@@2@@Z 004f20d0 f i z_ed2Doc.obj
 0001:000f10d0       ?erase@?$vector@PAVBrush@@V?$allocator@PAVBrush@@@std@@@std@@QAE?AV?$_Vector_iterator@PAVBrush@@V?$allocator@PAVBrush@@@std@@@2@V?$_Vector_const_iterator@PAVBrush@@V?$allocator@PAVBrush@@@std@@@2@@Z 004f20d0 f i brush.obj
 0001:000f10d0       ?erase@?$vector@PAVSceItem@@V?$allocator@PAVSceItem@@@std@@@std@@QAE?AV?$_Vector_iterator@PAVSceItem@@V?$allocator@PAVSceItem@@@std@@@2@V?$_Vector_const_iterator@PAVSceItem@@V?$allocator@PAVSceItem@@@std@@@2@@Z 004f20d0 f i z_ed2Doc.obj
 0001:000f1180       ??0?$vector@VItemCat@@V?$allocator@VItemCat@@@std@@@std@@QAE@XZ 004f2180 f i z_ed2Doc.obj
 0001:000f1260       ?_Tidy@?$vector@VItemCat@@V?$allocator@VItemCat@@@std@@@std@@IAEXXZ 004f2260 f i z_ed2Doc.obj
 0001:000f1330       ??0?$_Tree@V?$_Tmap_traits@V?$basic_string@DU?$char_traits@D@std@@V?$allocator@D@2@@std@@V12@U?$less@V?$basic_string@DU?$char_traits@D@std@@V?$allocator@D@2@@std@@@2@V?$allocator@U?$pair@$$CBV?$basic_string@DU?$char_traits@D@std@@V?$allocator@D@2@@std@@V12@@std@@@2@$0A@@std@@@std@@QAE@ABU?$less@V?$basic_string@DU?$char_traits@D@std@@V?$allocator@D@2@@std@@@1@ABV?$allocator@U?$pair@$$CBV?$basic_string@DU?$char_traits@D@std@@V?$allocator@D@2@@std@@V12@@std@@@1@@Z 004f2330 f i z_ed2Doc.obj
 0001:000f13d0       ?_Erase@?$_Tree@V?$_Tmap_traits@V?$basic_string@DU?$char_traits@D@std@@V?$allocator@D@2@@std@@V12@U?$less@V?$basic_string@DU?$char_traits@D@std@@V?$allocator@D@2@@std@@@2@V?$allocator@U?$pair@$$CBV?$basic_string@DU?$char_traits@D@std@@V?$allocator@D@2@@std@@V12@@std@@@2@$0A@@std@@@std@@IAEXPAU_Node@?$_Tree_nod@V?$_Tmap_traits@V?$basic_string@DU?$char_traits@D@std@@V?$allocator@D@2@@std@@V12@U?$less@V?$basic_string@DU?$char_traits@D@std@@V?$allocator@D@2@@std@@@2@V?$allocator@U?$pair@$$CBV?$basic_string@DU?$char_traits@D@std@@V?$allocator@D@2@@std@@V12@@std@@@2@$0A@@std@@@2@@Z 004f23d0 f i z_ed2Doc.obj
 0001:000f1440       ?_Tidy@?$_Tree@V?$_Tmap_traits@V?$basic_string@DU?$char_traits@D@std@@V?$allocator@D@2@@std@@V12@U?$less@V?$basic_string@DU?$char_traits@D@std@@V?$allocator@D@2@@std@@@2@V?$allocator@U?$pair@$$CBV?$basic_string@DU?$char_traits@D@std@@V?$allocator@D@2@@std@@V12@@std@@@2@$0A@@std@@@std@@IAEXXZ 004f2440 f i z_ed2Doc.obj
 0001:000f1550       ??F?$_Vector_const_iterator@PAVSceItem@@V?$allocator@PAVSceItem@@@std@@@std@@QAEAAV01@XZ 004f2550 f i z_ed2Doc.obj
 0001:000f1550       ??F?$_Vector_const_iterator@PAVBrush@@V?$allocator@PAVBrush@@@std@@@std@@QAEAAV01@XZ 004f2550 f i z_ed2Doc.obj
 0001:000f15d0       ?findelement@?$vvector@VV3@@@@QAE?AV?$_Vector_iterator@VV3@@V?$allocator@VV3@@@std@@@std@@AAVV3@@@Z 004f25d0 f i z_ed2Doc.obj
 0001:000f16c0       ?push_back@?$vector@UPolyEdge@@V?$allocator@UPolyEdge@@@std@@@std@@QAEXABUPolyEdge@@@Z 004f26c0 f i z_ed2Doc.obj
 0001:000f17d0       ?clear@?$vector@UPolyEdge@@V?$allocator@UPolyEdge@@@std@@@std@@QAEXXZ 004f27d0 f i z_ed2Doc.obj
 0001:000f18c0       ?replace@?$basic_string@DU?$char_traits@D@std@@V?$allocator@D@2@@std@@QAEAAV12@IIABV12@II@Z 004f28c0 f i z_ed2Doc.obj
 0001:000f2120       ?_Buy@?$vector@VItemCat@@V?$allocator@VItemCat@@@std@@@std@@IAE_NI@Z 004f3120 f i z_ed2Doc.obj
 0001:000f21e0       ?erase@?$_Tree@V?$_Tmap_traits@V?$basic_string@DU?$char_traits@D@std@@V?$allocator@D@2@@std@@V12@U?$less@V?$basic_string@DU?$char_traits@D@std@@V?$allocator@D@2@@std@@@2@V?$allocator@U?$pair@$$CBV?$basic_string@DU?$char_traits@D@std@@V?$allocator@D@2@@std@@V12@@std@@@2@$0A@@std@@@std@@QAE?AViterator@12@Vconst_iterator@12@0@Z 004f31e0 f i z_ed2Doc.obj
 0001:000f23e0       ?_Init@?$_Tree@V?$_Tmap_traits@V?$basic_string@DU?$char_traits@D@std@@V?$allocator@D@2@@std@@V12@U?$less@V?$basic_string@DU?$char_traits@D@std@@V?$allocator@D@2@@std@@@2@V?$allocator@U?$pair@$$CBV?$basic_string@DU?$char_traits@D@std@@V?$allocator@D@2@@std@@V12@@std@@@2@$0A@@std@@@std@@IAEXXZ 004f33e0 f i z_ed2Doc.obj
 0001:000f2450       ?_Buy@?$vector@URecord@CUndo@@V?$allocator@URecord@CUndo@@@std@@@std@@IAE_NI@Z 004f3450 f i z_ed2Doc.obj
 0001:000f2450       ?_Buy@?$vector@VCRect@@V?$allocator@VCRect@@@std@@@std@@IAE_NI@Z 004f3450 f i VertDlgDlg.obj
 0001:000f2510       ?insert@?$vector@UPolyEdge@@V?$allocator@UPolyEdge@@@std@@@std@@QAE?AV?$_Vector_iterator@UPolyEdge@@V?$allocator@UPolyEdge@@@std@@@2@V?$_Vector_const_iterator@UPolyEdge@@V?$allocator@UPolyEdge@@@std@@@2@ABUPolyEdge@@@Z 004f3510 f i z_ed2Doc.obj
 0001:000f2650       ?erase@?$vector@UPolyEdge@@V?$allocator@UPolyEdge@@@std@@@std@@QAE?AV?$_Vector_iterator@UPolyEdge@@V?$allocator@UPolyEdge@@@std@@@2@V?$_Vector_const_iterator@UPolyEdge@@V?$allocator@UPolyEdge@@@std@@@2@0@Z 004f3650 f i z_ed2Doc.obj
 0001:000f2750       ?erase@?$_Tree@V?$_Tmap_traits@V?$basic_string@DU?$char_traits@D@std@@V?$allocator@D@2@@std@@V12@U?$less@V?$basic_string@DU?$char_traits@D@std@@V?$allocator@D@2@@std@@@2@V?$allocator@U?$pair@$$CBV?$basic_string@DU?$char_traits@D@std@@V?$allocator@D@2@@std@@V12@@std@@@2@$0A@@std@@@std@@QAE?AViterator@12@Vconst_iterator@12@@Z 004f3750 f i z_ed2Doc.obj
 0001:000f2d70       ?_Buynode@?$_Tree@V?$_Tmap_traits@V?$basic_string@DU?$char_traits@D@std@@V?$allocator@D@2@@std@@V12@U?$less@V?$basic_string@DU?$char_traits@D@std@@V?$allocator@D@2@@std@@@2@V?$allocator@U?$pair@$$CBV?$basic_string@DU?$char_traits@D@std@@V?$allocator@D@2@@std@@V12@@std@@@2@$0A@@std@@@std@@IAEPAU_Node@?$_Tree_nod@V?$_Tmap_traits@V?$basic_string@DU?$char_traits@D@std@@V?$allocator@D@2@@std@@V12@U?$less@V?$basic_string@DU?$char_traits@D@std@@V?$allocator@D@2@@std@@@2@V?$allocator@U?$pair@$$CBV?$basic_string@DU?$char_traits@D@std@@V?$allocator@D@2@@std@@V12@@std@@@2@$0A@@std@@@2@XZ 004f3d70 f i z_ed2Doc.obj
 0001:000f2ec0       ?_Insert_n@?$vector@UPolyEdge@@V?$allocator@UPolyEdge@@@std@@@std@@IAEXV?$_Vector_const_iterator@UPolyEdge@@V?$allocator@UPolyEdge@@@std@@@2@IABUPolyEdge@@@Z 004f3ec0 f i z_ed2Doc.obj
 0001:000f3740       ?allocate@?$allocator@U_Node@?$_Tree_nod@V?$_Tmap_traits@V?$basic_string@DU?$char_traits@D@std@@V?$allocator@D@2@@std@@V12@U?$less@V?$basic_string@DU?$char_traits@D@std@@V?$allocator@D@2@@std@@@2@V?$allocator@U?$pair@$$CBV?$basic_string@DU?$char_traits@D@std@@V?$allocator@D@2@@std@@V12@@std@@@2@$0A@@std@@@std@@@std@@QAEPAU_Node@?$_Tree_nod@V?$_Tmap_traits@V?$basic_string@DU?$char_traits@D@std@@V?$allocator@D@2@@std@@V12@U?$less@V?$basic_string@DU?$char_traits@D@std@@V?$allocator@D@2@@std@@@2@V?$allocator@U?$pair@$$CBV?$basic_string@DU?$char_traits@D@std@@V?$allocator@D@2@@std@@V12@@std@@@2@$0A@@std@@@2@I@Z 004f4740 f i z_ed2Doc.obj
 0001:000f3760       ??Y?$_Vector_const_iterator@UPolyEdge@@V?$allocator@UPolyEdge@@@std@@@std@@QAEAAV01@H@Z 004f4760 f i z_ed2Doc.obj
 0001:000f3760       ??Y?$_Vector_const_iterator@VV3@@V?$allocator@VV3@@@std@@@std@@QAEAAV01@H@Z 004f4760 f i MiniBsp.obj
 0001:000f3820       ??$append@V?$vvector@PAVBrush@@@@V1@@@YAXAAV?$vvector@PAVBrush@@@@0@Z 004f4820 f i z_ed2Doc.obj
 0001:000f3900       ??$append@V?$vvector@PAVBrush@@@@V?$set@PAVBrush@@U?$less@PAVBrush@@@std@@V?$allocator@PAVBrush@@@3@@std@@@@YAXAAV?$vvector@PAVBrush@@@@AAV?$set@PAVBrush@@U?$less@PAVBrush@@@std@@V?$allocator@PAVBrush@@@3@@std@@@Z 004f4900 f i z_ed2Doc.obj
 0001:000f39d0       ??$forall2@V?$vvector@PAVBrush@@@@VCZ_ed2Doc@@P82@AEHPAVBrush@@0AAV?$map@PAVBrush@@HU?$less@PAVBrush@@@std@@V?$allocator@U?$pair@QAVBrush@@H@std@@@3@@std@@@ZPAV3@V45@@@YAXAAV?$vvector@PAVBrush@@@@PAVCZ_ed2Doc@@P81@AEHPAVBrush@@2AAV?$map@PAVBrush@@HU?$less@PAVBrush@@@std@@V?$allocator@U?$pair@QAVBrush@@H@std@@@3@@std@@@ZAAPAV2@3@Z 004f49d0 f i z_ed2Doc.obj
 0001:000f3a50       ??$unchecked_copy@PAUPolyEdge@@PAU1@@stdext@@YAPAUPolyEdge@@PAU1@00@Z 004f4a50 f i z_ed2Doc.obj
 0001:000f3b00       ??$_Unchecked_move_backward@PAPAVTerNode@@PAPAV1@@stdext@@YAPAPAVTerNode@@PAPAV1@00@Z 004f4b00 f i TerTree.obj
 0001:000f3b00       ??$_Unchecked_move_backward@PAPAVV3@@PAPAV1@@stdext@@YAPAPAVV3@@PAPAV1@00@Z 004f4b00 f i z_ed2View.obj
 0001:000f3b00       ??$_Unchecked_move_backward@PAPAVCLeaf@@PAPAV1@@stdext@@YAPAPAVCLeaf@@PAPAV1@00@Z 004f4b00 f i BspTree.obj
 0001:000f3b00       ??$_Unchecked_move_backward@PAPADPAPAD@stdext@@YAPAPADPAPAD00@Z 004f4b00 f i Scene.obj
 0001:000f3b00       ??$_Unchecked_move_backward@PAKPAK@stdext@@YAPAKPAK00@Z 004f4b00 f i CompilerStream.obj
 0001:000f3b00       ??$_Unchecked_move_backward@PAPAVBrush@@PAPAV1@@stdext@@YAPAPAVBrush@@PAPAV1@00@Z 004f4b00 f i Compiler.obj
 0001:000f3b00       ??$_Unchecked_move_backward@PAPAVCMiniNode@@PAPAV1@@stdext@@YAPAPAVCMiniNode@@PAPAV1@00@Z 004f4b00 f i BspTree.obj
 0001:000f3b00       ??$_Unchecked_move_backward@PAPAULmSizeBuff@@PAPAU1@@stdext@@YAPAPAULmSizeBuff@@PAPAU1@00@Z 004f4b00 f i LMProc.obj
 0001:000f3b00       ??$_Unchecked_move_backward@PAPAVScriptItem@@PAPAV1@@stdext@@YAPAPAVScriptItem@@PAPAV1@00@Z 004f4b00 f i z_ed2DocSave.obj
 0001:000f3b00       ??$_Unchecked_move_backward@PAPAUHWND__@@PAPAU1@@stdext@@YAPAPAUHWND__@@PAPAU1@00@Z 004f4b00 f i VertDlgDlg.obj
 0001:000f3b00       ??$_Unchecked_move_backward@PAPAVCLightBulb@@PAPAV1@@stdext@@YAPAPAVCLightBulb@@PAPAV1@00@Z 004f4b00 f i LMProc.obj
 0001:000f3b00       ??$_Unchecked_move_backward@PAPAUPortalData@@PAPAU1@@stdext@@YAPAPAUPortalData@@PAPAU1@00@Z 004f4b00 f i PVSPrc.obj
 0001:000f3b00       ??$_Unchecked_move_backward@PAPAV?$map@HHU?$less@H@std@@V?$allocator@U?$pair@$$CBHH@std@@@2@@std@@PAPAV12@@stdext@@YAPAPAV?$map@HHU?$less@H@std@@V?$allocator@U?$pair@$$CBHH@std@@@2@@std@@PAPAV12@00@Z 004f4b00 f i CompilerStream.obj
 0001:000f3b00       ??$_Unchecked_move_backward@PAPAVCBspTree@@PAPAV1@@stdext@@YAPAPAVCBspTree@@PAPAV1@00@Z 004f4b00 f i BspTree.obj
 0001:000f3b00       ??$_Unchecked_move_backward@PAHPAH@stdext@@YAPAHPAH00@Z 004f4b00 f i BspTree.obj
 0001:000f3b00       ??$_Unchecked_move_backward@PAPAVSceItem@@PAPAV1@@stdext@@YAPAPAVSceItem@@PAPAV1@00@Z 004f4b00 f i z_ed2Doc.obj
 0001:000f3b00       ??$_Unchecked_move_backward@PAPAVTerLeaf@@PAPAV1@@stdext@@YAPAPAVTerLeaf@@PAPAV1@00@Z 004f4b00 f i TerTree.obj
 0001:000f3b00       ??$_Unchecked_move_backward@PAPAVCMotion@@PAPAV1@@stdext@@YAPAPAVCMotion@@PAPAV1@00@Z 004f4b00 f i z_ed2Doc.obj
 0001:000f3b00       ??$_Unchecked_move_backward@PAPAUGroup@CVertDlgDlg@@PAPAU12@@stdext@@YAPAPAUGroup@CVertDlgDlg@@PAPAU12@00@Z 004f4b00 f i VertDlgDlg.obj
 0001:000f3b00       ??$_Unchecked_move_backward@PAMPAM@stdext@@YAPAMPAM00@Z 004f4b00 f i TerTree.obj
 0001:000f3b00       ??$_Unchecked_move_backward@PAPAVPoly@@PAPAV1@@stdext@@YAPAPAVPoly@@PAPAV1@00@Z 004f4b00 f i BspTree.obj
 0001:000f3b00       ??$_Unchecked_move_backward@PAPAVVtx2@@PAPAV1@@stdext@@YAPAPAVVtx2@@PAPAV1@00@Z 004f4b00 f i z_ed2Doc.obj
 0001:000f3ba0       ??$_Unchecked_move_backward@PAUPolyEdge@@PAU1@@stdext@@YAPAUPolyEdge@@PAU1@00@Z 004f4ba0 f i z_ed2Doc.obj
 0001:000f3bf0       ??1_Node@?$_Tree_nod@V?$_Tmap_traits@V?$basic_string@DU?$char_traits@D@std@@V?$allocator@D@2@@std@@V12@U?$less@V?$basic_string@DU?$char_traits@D@std@@V?$allocator@D@2@@std@@@2@V?$allocator@U?$pair@$$CBV?$basic_string@DU?$char_traits@D@std@@V?$allocator@D@2@@std@@V12@@std@@@2@$0A@@std@@@std@@QAE@XZ 004f4bf0 f i z_ed2Doc.obj
 0001:000f3c60       ??$unchecked_uninitialized_copy@V?$_Vector_const_iterator@PAVBrush@@V?$allocator@PAVBrush@@@std@@@std@@PAPAVBrush@@V?$allocator@PAVBrush@@@2@@stdext@@YAPAPAVBrush@@V?$_Vector_const_iterator@PAVBrush@@V?$allocator@PAVBrush@@@std@@@std@@0PAPAV1@AAV?$allocator@PAVBrush@@@3@@Z 004f4c60 f i z_ed2Doc.obj
 0001:000f3c60       ??$unchecked_uninitialized_copy@V?$_Vector_const_iterator@HV?$allocator@H@std@@@std@@PAHV?$allocator@H@2@@stdext@@YAPAHV?$_Vector_const_iterator@HV?$allocator@H@std@@@std@@0PAHAAV?$allocator@H@2@@Z 004f4c60 f i z_ed2DocSave.obj
 0001:000f3c60       ??$unchecked_uninitialized_copy@V?$_Vector_const_iterator@PAVCLeaf@@V?$allocator@PAVCLeaf@@@std@@@std@@PAPAVCLeaf@@V?$allocator@PAVCLeaf@@@2@@stdext@@YAPAPAVCLeaf@@V?$_Vector_const_iterator@PAVCLeaf@@V?$allocator@PAVCLeaf@@@std@@@std@@0PAPAV1@AAV?$allocator@PAVCLeaf@@@3@@Z 004f4c60 f i Compiler.obj
 0001:000f3cd0       ??$_Uninit_fill_n@PAUPolyEdge@@IU1@V?$allocator@UPolyEdge@@@std@@@std@@YAXPAUPolyEdge@@IABU1@AAV?$allocator@UPolyEdge@@@0@U_Nonscalar_ptr_iterator_tag@0@U_Range_checked_iterator_tag@0@@Z 004f4cd0 f i z_ed2Doc.obj
 0001:000f3db0       ??$_Unchecked_uninitialized_move@PAUPolyEdge@@PAU1@V?$allocator@UPolyEdge@@@std@@@stdext@@YAPAUPolyEdge@@PAU1@00AAV?$allocator@UPolyEdge@@@std@@@Z 004f4db0 f i z_ed2Doc.obj
 0001:000f3e30       ??$_Move_backward_opt@PAUPolyEdge@@PAU1@Urandom_access_iterator_tag@std@@U_Undefined_move_tag@3@@std@@YAPAUPolyEdge@@PAU1@00Urandom_access_iterator_tag@0@U_Undefined_move_tag@0@U_Range_checked_iterator_tag@0@@Z 004f4e30 f i z_ed2Doc.obj
 0001:000f3ed0       ??$unchecked_uninitialized_copy@PAUPolyEdge@@PAU1@V?$allocator@UPolyEdge@@@std@@@stdext@@YAPAUPolyEdge@@PAU1@00AAV?$allocator@UPolyEdge@@@std@@@Z 004f4ed0 f i z_ed2Doc.obj
 0001:000f3f20       ??$_Uninit_copy@PAUPolyEdge@@PAU1@V?$allocator@UPolyEdge@@@std@@@std@@YAPAUPolyEdge@@PAU1@00AAV?$allocator@UPolyEdge@@@0@U_Nonscalar_ptr_iterator_tag@0@U_Range_checked_iterator_tag@0@@Z 004f4f20 f i z_ed2Doc.obj
 0001:000f4000       ?GetReferenceBrushBox@CZ_ed2Doc@@IAE?AVBox@@XZ 004f5000 f   z_ed2DocAlign.obj
 0001:000f40c0       ?OnXalign@CZ_ed2Doc@@QAEXXZ 004f50c0 f   z_ed2DocAlign.obj
 0001:000f4520       ?OnYalign@CZ_ed2Doc@@QAEXXZ 004f5520 f   z_ed2DocAlign.obj
 0001:000f4960       ?OnZalign@CZ_ed2Doc@@QAEXXZ 004f5960 f   z_ed2DocAlign.obj
 0001:000f4da0       ?OnUpdateZdim@CZ_ed2Doc@@QAEXPAVCCmdUI@@@Z 004f5da0 f   z_ed2DocAlign.obj
 0001:000f4da0       ?OnUpdateYdim@CZ_ed2Doc@@QAEXPAVCCmdUI@@@Z 004f5da0 f   z_ed2DocAlign.obj
 0001:000f4da0       ?OnUpdateXdim@CZ_ed2Doc@@QAEXPAVCCmdUI@@@Z 004f5da0 f   z_ed2DocAlign.obj
 0001:000f4da0       ?OnUpdateXalign@CZ_ed2Doc@@QAEXPAVCCmdUI@@@Z 004f5da0 f   z_ed2DocAlign.obj
 0001:000f4da0       ?OnUpdateXyzdim@CZ_ed2Doc@@QAEXPAVCCmdUI@@@Z 004f5da0 f   z_ed2DocAlign.obj
 0001:000f4da0       ?OnUpdateZalign@CZ_ed2Doc@@QAEXPAVCCmdUI@@@Z 004f5da0 f   z_ed2DocAlign.obj
 0001:000f4da0       ?OnUpdateYalign@CZ_ed2Doc@@QAEXPAVCCmdUI@@@Z 004f5da0 f   z_ed2DocAlign.obj
 0001:000f4da0       ?OnUpdateXinter@CZ_ed2Doc@@QAEXPAVCCmdUI@@@Z 004f5da0 f   z_ed2DocAlign.obj
 0001:000f4e30       ?SortByX@@YAHPBX0@Z        004f5e30 f   z_ed2DocAlign.obj
 0001:000f4ea0       ?SortByY@@YAHPBX0@Z        004f5ea0 f   z_ed2DocAlign.obj
 0001:000f4f10       ?SortByZ@@YAHPBX0@Z        004f5f10 f   z_ed2DocAlign.obj
 0001:000f4f80       ?OnXinter@CZ_ed2Doc@@QAEXXZ 004f5f80 f   z_ed2DocAlign.obj
 0001:000f58f0       ?OnYinter@CZ_ed2Doc@@QAEXXZ 004f68f0 f   z_ed2DocAlign.obj
 0001:000f6070       ?OnZinter@CZ_ed2Doc@@QAEXXZ 004f7070 f   z_ed2DocAlign.obj
 0001:000f67f0       ?OnUpdateZinter@CZ_ed2Doc@@QAEXPAVCCmdUI@@@Z 004f77f0 f   z_ed2DocAlign.obj
 0001:000f67f0       ?OnUpdateYinter@CZ_ed2Doc@@QAEXPAVCCmdUI@@@Z 004f77f0 f   z_ed2DocAlign.obj
 0001:000f6890       ?OnXdim@CZ_ed2Doc@@QAEXXZ  004f7890 f   z_ed2DocAlign.obj
 0001:000f6a40       ?OnYdim@CZ_ed2Doc@@QAEXXZ  004f7a40 f   z_ed2DocAlign.obj
 0001:000f6bf0       ?OnZdim@CZ_ed2Doc@@QAEXXZ  004f7bf0 f   z_ed2DocAlign.obj
 0001:000f6db0       ?OnXyzdim@CZ_ed2Doc@@QAEXXZ 004f7db0 f   z_ed2DocAlign.obj
 0001:000f6fc0       ?DeleteUncomittedNewBrushes@CZ_ed2Doc@@QAEXXZ 004f7fc0 f   z_ed2DocAlign.obj
 0001:000f7210       ?DeleteUncomittedNewItems@CZ_ed2Doc@@QAEXXZ 004f8210 f   z_ed2DocAlign.obj
 0001:000f74b0       ?OnLr@CZ_ed2Doc@@QAEXXZ    004f84b0 f   z_ed2DocAlign.obj
 0001:000f79f0       ?OnTb@CZ_ed2Doc@@QAEXXZ    004f89f0 f   z_ed2DocAlign.obj
 0001:000f7f30       ?OnUpdateLr@CZ_ed2Doc@@QAEXPAVCCmdUI@@@Z 004f8f30 f   z_ed2DocAlign.obj
 0001:000f7f30       ?OnUpdateTb@CZ_ed2Doc@@QAEXPAVCCmdUI@@@Z 004f8f30 f   z_ed2DocAlign.obj
 0001:000f7f30       ?OnUpdateFb@CZ_ed2Doc@@QAEXPAVCCmdUI@@@Z 004f8f30 f   z_ed2DocAlign.obj
 0001:000f7f90       ?OnFb@CZ_ed2Doc@@QAEXXZ    004f8f90 f   z_ed2DocAlign.obj
 0001:000f84d0       ?SelectByBox@CZ_ed2Doc@@QAEXXZ 004f94d0 f   z_ed2DocAlign.obj
 0001:000f8e20       ?OnXoy@CZ_ed2Doc@@QAEXXZ   004f9e20 f   z_ed2DocAlign.obj
 0001:000f92d0       ?OnXoz@CZ_ed2Doc@@QAEXXZ   004fa2d0 f   z_ed2DocAlign.obj
 0001:000f9780       ?OnZoy@CZ_ed2Doc@@QAEXXZ   004fa780 f   z_ed2DocAlign.obj
 0001:000f9c20       ?OnMirror@CZ_ed2Doc@@QAEXXZ 004fac20 f   z_ed2DocAlign.obj
 0001:000f9d70       ??1DlgMurrChs@@UAE@XZ      004fad70 f i z_ed2DocAlign.obj
 0001:000f9d90       ?OnAlignRightHit@CZ_ed2Doc@@QAEXXZ 004fad90 f   z_ed2DocAlign.obj
 0001:000fa0a0       ?OnAlighLefthit@CZ_ed2Doc@@QAEXXZ 004fb0a0 f   z_ed2DocAlign.obj
 0001:000fa350       ?OnAlighTophit@CZ_ed2Doc@@QAEXXZ 004fb350 f   z_ed2DocAlign.obj
 0001:000fa600       ?OnAlighBothit@CZ_ed2Doc@@QAEXXZ 004fb600 f   z_ed2DocAlign.obj
 0001:000fa750       ?OnMatchwidth@CZ_ed2Doc@@QAEXXZ 004fb750 f   z_ed2DocAlign.obj
 0001:000faad0       ?OnAlbybox@CZ_ed2Doc@@QAEXXZ 004fbad0 f   z_ed2DocAlign.obj
 0001:000fab70       ?OnUpdateAlbybox@CZ_ed2Doc@@QAEXPAVCCmdUI@@@Z 004fbb70 f   z_ed2DocAlign.obj
 0001:000faba0       ?LocalDrawBspTreeGraph@CZ_ed2Doc@@QAEXAAVCompiler@@AAHPAVz_ed3View@@@Z 004fbba0 f   z_ed2DocDraw.obj
 0001:000faf00       ?LocalDrawReadyBSP@CZ_ed2Doc@@QAEXAAVCompiler@@AAVScene@@PAVz_ed3View@@@Z 004fbf00 f   z_ed2DocDraw.obj
 0001:000fb1d0       ?InitGL@CZ_ed2Doc@@QAEHHPAUHDC__@@AAPAUHGLRC__@@@Z 004fc1d0 f   z_ed2DocDraw.obj
 0001:000fb410       ?SetLightMode@CZ_ed2Doc@@QAEXH@Z 004fc410 f   z_ed2DocDraw.obj
 0001:000fb4b0       ?RecalcBrushes@CZ_ed2Doc@@IAEXXZ 004fc4b0 f   z_ed2DocDraw.obj
 0001:000fb600       ?Draw2DBrushes@CZ_ed2Doc@@IAEXPAVCZ_ed2View@@@Z 004fc600 f   z_ed2DocDraw.obj
 0001:000fd0d0       ?Draw3DScene@CZ_ed2Doc@@QAEXPAVz_ed3View@@@Z 004fe0d0 f   z_ed2DocDraw.obj
 0001:000fd370       ?DrawDebugPointsAndPolys@CZ_ed2Doc@@IAEXXZ 004fe370 f   z_ed2DocDraw.obj
 0001:000fd9d0       ?Draw3DRawScene@CZ_ed2Doc@@IAEXPAVz_ed3View@@@Z 004fe9d0 f   z_ed2DocDraw.obj
 0001:000fdb10       ?DrawTextured@CZ_ed2Doc@@IAEXPAVz_ed3View@@@Z 004feb10 f   z_ed2DocDraw.obj
 0001:000fe370       ?DrawItems@CZ_ed2Doc@@IAEXXZ 004ff370 f   z_ed2DocDraw.obj
 0001:000fe560       ?DrawProjectorBrush@CZ_ed2Doc@@IAEXAAVBrush@@@Z 004ff560 f   z_ed2DocDraw.obj
 0001:000fec40       ?DrawCutBrush@CZ_ed2Doc@@IAEXAAVBrush@@@Z 004ffc40 f   z_ed2DocDraw.obj
 0001:000fee60       ?DrawSolidBrush@CZ_ed2Doc@@QAEXAAVBrush@@AAV?$vvector@PAVPoly@@@@1111H@Z 004ffe60 f   z_ed2DocDraw.obj
 0001:000ff150       ?ApplyCloserLights@CZ_ed2Doc@@IAEXABVPoly@@@Z 00500150 f   z_ed2DocDraw.obj
 0001:000ffca0       ?DrawSpecialPolygons@CZ_ed2Doc@@QAEXPAVz_ed3View@@KAAV?$vvector@PAVPoly@@@@1111@Z 00500ca0 f   z_ed2DocDraw.obj
 0001:00100620       ?DrawSelBrushes@CZ_ed2Doc@@IAEXPAVz_ed3View@@@Z 00501620 f   z_ed2DocDraw.obj
 0001:00100740       ?DrawSelFaces@CZ_ed2Doc@@IAEXPAVz_ed3View@@@Z 00501740 f   z_ed2DocDraw.obj
 0001:00100aa0       ?DrawAxis@CZ_ed2Doc@@QAEXAAVV3@@M@Z 00501aa0 f   z_ed2DocDraw.obj
 0001:00100d20       ?DrawGridLines@CZ_ed2Doc@@QAEXXZ 00501d20 f   z_ed2DocDraw.obj
 0001:001010d0       ?ReposCamLight@CZ_ed2Doc@@QAEXKHMVCLR@@@Z 005020d0 f   z_ed2DocDraw.obj
 0001:00101360       ?DrawMotionsPaths@CZ_ed2Doc@@IAEXXZ 00502360 f   z_ed2DocDraw.obj
 0001:00101490       ?DrawErrorPoint@CZ_ed2Doc@@QAEXXZ 00502490 f   z_ed2DocDraw.obj
 0001:00101580       ?Draw2DScene@CZ_ed2Doc@@QAEXPAVCZ_ed2View@@@Z 00502580 f   z_ed2DocDraw.obj
 0001:001016d0       ?Draw2dItems@CZ_ed2Doc@@IAEXPAVCZ_ed2View@@@Z 005026d0 f   z_ed2DocDraw.obj
 0001:00101900       ?DrawCameraRay@CZ_ed2Doc@@IAEXPAVCZ_ed2View@@@Z 00502900 f   z_ed2DocDraw.obj
 0001:001019b0       ?DrawCamFrustrum@CZ_ed2Doc@@IAEXPAVCZ_ed2View@@@Z 005029b0 f   z_ed2DocDraw.obj
 0001:00101ec0       ?GLDrawBox@CZ_ed2Doc@@QAEXAAVBox@@HQAE@Z 00502ec0 f   z_ed2DocDraw.obj
 0001:001021b0       ?SetFaceMode@CZ_ed2Doc@@QAEKH@Z 005031b0 f   z_ed2DocDraw.obj
 0001:00102310       ?DrawPolygon@CZ_ed2Doc@@QAEXAAVPoly@@H@Z 00503310 f   z_ed2DocDraw.obj
 0001:00102420       ?PrintCoords@CZ_ed2Doc@@QAEXAAUtagRECT@@AAUFRECT@@AAVV3@@DHPBDPAUtagPOINT@@@Z 00503420 f   z_ed2DocDraw.obj
 0001:00102d80       ?SelectTextCtx@CZ_ed2Doc@@QAEXAAUtagRECT@@@Z 00503d80 f   z_ed2DocDraw.obj
 0001:00102e20       ?DeSelectTextCtx@CZ_ed2Doc@@QAEXXZ 00503e20 f   z_ed2DocDraw.obj
 0001:00102e40       ?PrintOut@CZ_ed2Doc@@QAEXAAVV3@@DPBDAAVCLR@@@Z 00503e40 f   z_ed2DocDraw.obj
 0001:00102ee0       ?PrintOut@CZ_ed2Doc@@QAEXHHPBDAAVCLR@@@Z 00503ee0 f   z_ed2DocDraw.obj
 0001:00102f60       ?DrawOrtho@CZ_ed2Doc@@QAEXABVV3@@0MM@Z 00503f60 f   z_ed2DocDraw.obj
 0001:00103b60       ?DrawPolyVertexes@CZ_ed2Doc@@QAEXKAAVPoly@@HK@Z 00504b60 f   z_ed2DocDraw.obj
 0001:00104540       ??0?$set@PAVV3@@U?$less@PAVV3@@@std@@V?$allocator@PAVV3@@@3@@std@@QAE@XZ 00505540 f i z_ed2DocDraw.obj
 0001:00104560       ?insert@?$_Tree@V?$_Tset_traits@PAVPoly@@U?$less@PAVPoly@@@std@@V?$allocator@PAVPoly@@@3@$0A@@std@@@std@@QAE?AU?$pair@Viterator@?$_Tree@V?$_Tset_traits@PAVPoly@@U?$less@PAVPoly@@@std@@V?$allocator@PAVPoly@@@3@$0A@@std@@@std@@_N@2@ABQAVPoly@@@Z 00505560 f i DialogEvalDets.obj
 0001:00104560       ?insert@?$_Tree@V?$_Tset_traits@PAVBrush@@U?$less@PAVBrush@@@std@@V?$allocator@PAVBrush@@@3@$0A@@std@@@std@@QAE?AU?$pair@Viterator@?$_Tree@V?$_Tset_traits@PAVBrush@@U?$less@PAVBrush@@@std@@V?$allocator@PAVBrush@@@3@$0A@@std@@@std@@_N@2@ABQAVBrush@@@Z 00505560 f i DialogEvalDets.obj
 0001:00104560       ?insert@?$_Tree@V?$_Tset_traits@PAVV3@@U?$less@PAVV3@@@std@@V?$allocator@PAVV3@@@3@$0A@@std@@@std@@QAE?AU?$pair@Viterator@?$_Tree@V?$_Tset_traits@PAVV3@@U?$less@PAVV3@@@std@@V?$allocator@PAVV3@@@3@$0A@@std@@@std@@_N@2@ABQAVV3@@@Z 00505560 f i z_ed2DocDraw.obj
 0001:00104560       ?insert@?$_Tree@V?$_Tset_traits@IU?$less@I@std@@V?$allocator@I@2@$0A@@std@@@std@@QAE?AU?$pair@Viterator@?$_Tree@V?$_Tset_traits@IU?$less@I@std@@V?$allocator@I@2@$0A@@std@@@std@@_N@2@ABI@Z 00505560 f i DlgBrshProp.obj
 0001:001047a0       ?_Lrotate@?$_Tree@V?$_Tset_traits@PAVV3@@U?$less@PAVV3@@@std@@V?$allocator@PAVV3@@@3@$0A@@std@@@std@@IAEXPAU_Node@?$_Tree_nod@V?$_Tset_traits@PAVV3@@U?$less@PAVV3@@@std@@V?$allocator@PAVV3@@@3@$0A@@std@@@2@@Z 005057a0 f i z_ed2DocDraw.obj
 0001:001047a0       ?_Lrotate@?$_Tree@V?$_Tset_traits@IU?$less@I@std@@V?$allocator@I@2@$0A@@std@@@std@@IAEXPAU_Node@?$_Tree_nod@V?$_Tset_traits@IU?$less@I@std@@V?$allocator@I@2@$0A@@std@@@2@@Z 005057a0 f i DlgConsole.obj
 0001:001047a0       ?_Lrotate@?$_Tree@V?$_Tset_traits@PAVPoly@@U?$less@PAVPoly@@@std@@V?$allocator@PAVPoly@@@3@$0A@@std@@@std@@IAEXPAU_Node@?$_Tree_nod@V?$_Tset_traits@PAVPoly@@U?$less@PAVPoly@@@std@@V?$allocator@PAVPoly@@@3@$0A@@std@@@2@@Z 005057a0 f i DialogEvalDets.obj
 0001:001047a0       ?_Lrotate@?$_Tree@V?$_Tset_traits@PAVBrush@@U?$less@PAVBrush@@@std@@V?$allocator@PAVBrush@@@3@$0A@@std@@@std@@IAEXPAU_Node@?$_Tree_nod@V?$_Tset_traits@PAVBrush@@U?$less@PAVBrush@@@std@@V?$allocator@PAVBrush@@@3@$0A@@std@@@2@@Z 005057a0 f i DialogEvalDets.obj
 0001:001047a0       ?_Lrotate@?$_Tree@V?$_Tset_traits@HU?$less@H@std@@V?$allocator@H@2@$0A@@std@@@std@@IAEXPAU_Node@?$_Tree_nod@V?$_Tset_traits@HU?$less@H@std@@V?$allocator@H@2@$0A@@std@@@2@@Z 005057a0 f i BspTree.obj
 0001:00104850       ?_Rrotate@?$_Tree@V?$_Tset_traits@PAVBrush@@U?$less@PAVBrush@@@std@@V?$allocator@PAVBrush@@@3@$0A@@std@@@std@@IAEXPAU_Node@?$_Tree_nod@V?$_Tset_traits@PAVBrush@@U?$less@PAVBrush@@@std@@V?$allocator@PAVBrush@@@3@$0A@@std@@@2@@Z 00505850 f i DialogEvalDets.obj
 0001:00104850       ?_Rrotate@?$_Tree@V?$_Tset_traits@PAVV3@@U?$less@PAVV3@@@std@@V?$allocator@PAVV3@@@3@$0A@@std@@@std@@IAEXPAU_Node@?$_Tree_nod@V?$_Tset_traits@PAVV3@@U?$less@PAVV3@@@std@@V?$allocator@PAVV3@@@3@$0A@@std@@@2@@Z 00505850 f i z_ed2DocDraw.obj
 0001:00104850       ?_Rrotate@?$_Tree@V?$_Tset_traits@HU?$less@H@std@@V?$allocator@H@2@$0A@@std@@@std@@IAEXPAU_Node@?$_Tree_nod@V?$_Tset_traits@HU?$less@H@std@@V?$allocator@H@2@$0A@@std@@@2@@Z 00505850 f i BspTree.obj
 0001:00104850       ?_Rrotate@?$_Tree@V?$_Tset_traits@PAVPoly@@U?$less@PAVPoly@@@std@@V?$allocator@PAVPoly@@@3@$0A@@std@@@std@@IAEXPAU_Node@?$_Tree_nod@V?$_Tset_traits@PAVPoly@@U?$less@PAVPoly@@@std@@V?$allocator@PAVPoly@@@3@$0A@@std@@@2@@Z 00505850 f i DialogEvalDets.obj
 0001:00104850       ?_Rrotate@?$_Tree@V?$_Tset_traits@IU?$less@I@std@@V?$allocator@I@2@$0A@@std@@@std@@IAEXPAU_Node@?$_Tree_nod@V?$_Tset_traits@IU?$less@I@std@@V?$allocator@I@2@$0A@@std@@@2@@Z 00505850 f i DlgConsole.obj
 0001:00104900       ?clear@?$_Tree@V?$_Tset_traits@PAVPoly@@U?$less@PAVPoly@@@std@@V?$allocator@PAVPoly@@@3@$0A@@std@@@std@@QAEXXZ 00505900 f i DialogEvalDets.obj
 0001:00104900       ?clear@?$_Tree@V?$_Tset_traits@IU?$less@I@std@@V?$allocator@I@2@$0A@@std@@@std@@QAEXXZ 00505900 f i DlgConsole.obj
 0001:00104900       ?clear@?$_Tree@V?$_Tset_traits@PAVV3@@U?$less@PAVV3@@@std@@V?$allocator@PAVV3@@@3@$0A@@std@@@std@@QAEXXZ 00505900 f i z_ed2DocDraw.obj
 0001:00104900       ?clear@?$_Tree@V?$_Tset_traits@HU?$less@H@std@@V?$allocator@H@2@$0A@@std@@@std@@QAEXXZ 00505900 f i BspTree.obj
 0001:00104900       ?clear@?$_Tree@V?$_Tset_traits@PAVBrush@@U?$less@PAVBrush@@@std@@V?$allocator@PAVBrush@@@3@$0A@@std@@@std@@QAEXXZ 00505900 f i DialogEvalDets.obj
 0001:00104960       ?_Erase@?$_Tree@V?$_Tset_traits@PAVV3@@U?$less@PAVV3@@@std@@V?$allocator@PAVV3@@@3@$0A@@std@@@std@@IAEXPAU_Node@?$_Tree_nod@V?$_Tset_traits@PAVV3@@U?$less@PAVV3@@@std@@V?$allocator@PAVV3@@@3@$0A@@std@@@2@@Z 00505960 f i z_ed2DocDraw.obj
 0001:00104960       ?_Erase@?$_Tree@V?$_Tset_traits@HU?$less@H@std@@V?$allocator@H@2@$0A@@std@@@std@@IAEXPAU_Node@?$_Tree_nod@V?$_Tset_traits@HU?$less@H@std@@V?$allocator@H@2@$0A@@std@@@2@@Z 00505960 f i BspTree.obj
 0001:00104960       ?_Erase@?$_Tree@V?$_Tset_traits@PAVBrush@@U?$less@PAVBrush@@@std@@V?$allocator@PAVBrush@@@3@$0A@@std@@@std@@IAEXPAU_Node@?$_Tree_nod@V?$_Tset_traits@PAVBrush@@U?$less@PAVBrush@@@std@@V?$allocator@PAVBrush@@@3@$0A@@std@@@2@@Z 00505960 f i DialogEvalDets.obj
 0001:00104960       ?_Erase@?$_Tree@V?$_Tset_traits@PAVPoly@@U?$less@PAVPoly@@@std@@V?$allocator@PAVPoly@@@3@$0A@@std@@@std@@IAEXPAU_Node@?$_Tree_nod@V?$_Tset_traits@PAVPoly@@U?$less@PAVPoly@@@std@@V?$allocator@PAVPoly@@@3@$0A@@std@@@2@@Z 00505960 f i DialogEvalDets.obj
 0001:00104960       ?_Erase@?$_Tree@V?$_Tset_traits@IU?$less@I@std@@V?$allocator@I@2@$0A@@std@@@std@@IAEXPAU_Node@?$_Tree_nod@V?$_Tset_traits@IU?$less@I@std@@V?$allocator@I@2@$0A@@std@@@2@@Z 00505960 f i DlgConsole.obj
 0001:001049b0       ?ApplyFlags@CZ_ed2Doc@@IAEXPAVBrush@@@Z 005059b0 f   z_ed2DocMk.obj
 0001:001051e0       ?OnMkBox@CZ_ed2Doc@@QAEXXZ 005061e0 f   z_ed2DocMk.obj
 0001:00105810       ??4SNewBrush@@QAEAAU0@ABU0@@Z 00506810 f i z_ed2DocMk.obj
 0001:001059a0       ?MkCylinder@CZ_ed2Doc@@QAEXXZ 005069a0 f   z_ed2DocMk.obj
 0001:00105ed0       ?OnBucone@CZ_ed2Doc@@QAEXXZ 00506ed0 f   z_ed2DocMk.obj
 0001:00106400       ?OnBusphere@CZ_ed2Doc@@QAEXXZ 00507400 f   z_ed2DocMk.obj
 0001:00106920       ?OnBustairs@CZ_ed2Doc@@QAEXXZ 00507920 f   z_ed2DocMk.obj
 0001:00106b80       ?OnBusheet@CZ_ed2Doc@@QAEXXZ 00507b80 f   z_ed2DocMk.obj
 0001:00106e00       ?OnInspref@CZ_ed2Doc@@QAEXXZ 00507e00 f   z_ed2DocMk.obj
 0001:00106f80       ?OnUpdateInsertMesh@CZ_ed2Doc@@QAEXPAVCCmdUI@@@Z 00507f80 f   z_ed2DocMk.obj
 0001:00106f80       ?OnUpdateTerian@CZ_ed2Doc@@QAEXPAVCCmdUI@@@Z 00507f80 f   z_ed2DocMk.obj
 0001:00106f80       ?OnUpdateProjBrush@CZ_ed2Doc@@QAEXPAVCCmdUI@@@Z 00507f80 f   z_ed2DocMk.obj
 0001:00106f80       ?OnUpdateInsgameitem@CZ_ed2Doc@@QAEXPAVCCmdUI@@@Z 00507f80 f   z_ed2DocMk.obj
 0001:00106f80       ?OnUpdateTerianbig@CZ_ed2Doc@@QAEXPAVCCmdUI@@@Z 00507f80 f   z_ed2DocMk.obj
 0001:00106fd0       ?OnUpdateAddModel@CZ_ed2Doc@@QAEXPAVCCmdUI@@@Z 00507fd0 f   z_ed2DocMk.obj
 0001:00107000       ?OnTerian@CZ_ed2Doc@@QAEXXZ 00508000 f   z_ed2DocMk.obj
 0001:00107460       ?OnTerianbig@CZ_ed2Doc@@QAEXXZ 00508460 f   z_ed2DocMk.obj
 0001:00107570       ?InvokePlugIn@CZ_ed2Doc@@QAEXPBDH@Z 00508570 f   z_ed2DocMk.obj
 0001:00107db0       ?ExportFile@CZ_ed2Doc@@QAEXAAV?$PlugInDll@VIGeticPlug@@@baseg@@PBD@Z 00508db0 f   z_ed2DocMk.obj
 0001:00108ab0       ?Inl_GetTexCount@@YAHXZ    00509ab0 f i z_ed2DocMk.obj
 0001:00108b50       ??0_Plg_Poly@@QAE@XZ       00509b50 f i z_ed2DocMk.obj
 0001:00108c00       ?ImportFile@CZ_ed2Doc@@QAEXAAV?$PlugInDll@VIGeticPlug@@@baseg@@PBD@Z 00509c00 f   z_ed2DocMk.obj
 0001:00109cb0       ?OnParskin@CZ_ed2Doc@@QAEXXZ 0050acb0 f   z_ed2DocMk.obj
 0001:00109d80       ?OnInsgameitem@CZ_ed2Doc@@QAEXXZ 0050ad80 f   z_ed2DocMk.obj
 0001:00109e30       ?OnProjBrush@CZ_ed2Doc@@QAEXXZ 0050ae30 f   z_ed2DocMk.obj
 0001:0010a3f0       ?CommitBrush@CZ_ed2Doc@@IAEXPAVBrush@@@Z 0050b3f0 f   z_ed2DocMk.obj
 0001:0010a5f0       ?OnInsitem@CZ_ed2Doc@@QAEXXZ 0050b5f0 f   z_ed2DocMk.obj
 0001:0010a6e0       ?DoHSR@CZ_ed2Doc@@QAEXXZ   0050b6e0 f   z_ed2DocProc.obj
 0001:0010ab40       ?OnCompileroptions@CZ_ed2Doc@@QAEXXZ 0050bb40 f   z_ed2DocProc.obj
 0001:0010b1f0       ?OnBucompile@CZ_ed2Doc@@QAEXXZ 0050c1f0 f   z_ed2DocProc.obj
 0001:0010b3d0       ?OnCompileDone@CZ_ed2Doc@@QAEJIJ@Z 0050c3d0 f   z_ed2DocProc.obj
 0001:0010b8d0       ?OnUpdateBucompile@CZ_ed2Doc@@QAEXPAVCCmdUI@@@Z 0050c8d0 f   z_ed2DocProc.obj
 0001:0010b930       ?OnUpdateCompileroptions@CZ_ed2Doc@@QAEXPAVCCmdUI@@@Z 0050c930 f   z_ed2DocProc.obj
 0001:0010b960       ?OnBspcursel@CZ_ed2Doc@@QAEXXZ 0050c960 f   z_ed2DocProc.obj
 0001:0010bb10       ?OnReclmaps@CZ_ed2Doc@@QAEXXZ 0050cb10 f   z_ed2DocProc.obj
 0001:0010bbf0       ?OnUpdateReclmaps@CZ_ed2Doc@@QAEXPAVCCmdUI@@@Z 0050cbf0 f   z_ed2DocProc.obj
 0001:0010bc30       ?SaveFinalBSP@CZ_ed2Doc@@IAEXXZ 0050cc30 f   z_ed2DocProc.obj
 0001:0010bd60       ?__FixBadName@@YAHPAD@Z    0050cd60 f   z_ed2DocSave.obj
 0001:0010be10       ?SerializeDoc@CDocSaver@@QAEXH@Z 0050ce10 f   z_ed2DocSave.obj
 0001:0010c310       ?SerializeHeader@CDocSaver@@QAEXXZ 0050d310 f   z_ed2DocSave.obj
 0001:0010c400       ?Serialize@FileWrap@baseg@@QAEIPAXH@Z 0050d400 f i z_ed2DocSave.obj
 0001:0010c460       ?SerializeScene@CDocSaver@@QAEXXZ 0050d460 f   z_ed2DocSave.obj
 0001:0010c500       ?SerializeSettings@CDocSaver@@QAEXXZ 0050d500 f   z_ed2DocSave.obj
 0001:0010c6a0       ?SerializeCompSettings@CDocSaver@@QAEXXZ 0050d6a0 f   z_ed2DocSave.obj
 0001:0010ca50       ?SerializeTextures@CDocSaver@@QAEXXZ 0050da50 f   z_ed2DocSave.obj
 0001:0010ce50       ?SerializeBrushes@CDocSaver@@QAEXXZ 0050de50 f   z_ed2DocSave.obj
 0001:0010d0d0       ?SerializeBrush@CDocSaver@@QAEXPAVBrush@@@Z 0050e0d0 f   z_ed2DocSave.obj
 0001:0010d6a0       ?SerializePolygon@CDocSaver@@QAEXPAVBrush@@PAVPoly@@@Z 0050e6a0 f   z_ed2DocSave.obj
 0001:0010ded0       ?SerializeItems@CDocSaver@@QAEXXZ 0050eed0 f   z_ed2DocSave.obj
 0001:0010e0e0       ?SerializeItem@CDocSaver@@QAEPAVSceItem@@PAV2@@Z 0050f0e0 f   z_ed2DocSave.obj
 0001:0010e170       ?SerializeMotions@CDocSaver@@QAEXXZ 0050f170 f   z_ed2DocSave.obj
 0001:0010e880       ?SerializeScripts@CDocSaver@@QAEXXZ 0050f880 f   z_ed2DocSave.obj
 0001:0010ee40       ??0ScriptItem@@QAE@XZ      0050fe40 f i z_ed2DocSave.obj
 0001:0010eed0       ?AddScript@Scene@@QAEHPAVScriptItem@@@Z 0050fed0 f i z_ed2DocSave.obj
 0001:0010ef30       ?SerializeCatFiles@CDocSaver@@QAEXXZ 0050ff30 f   z_ed2DocSave.obj
 0001:0010f0b0       ?SerializeTerrain@CDocSaver@@QAEXXZ 005100b0 f   z_ed2DocSave.obj
 0001:0010f150       ?SerializeDescriptions@CDocSaver@@QAEXXZ 00510150 f   z_ed2DocSave.obj
 0001:0010f540       ?SavePrefFile@CZ_ed2Doc@@IAEXXZ 00510540 f   z_ed2DocSave.obj
 0001:0010f930       ??0CDocSaver@@QAE@PBDHH@Z  00510930 f i z_ed2DocSave.obj
 0001:0010fa80       ?Open@CDocSaver@@QAEHXZ    00510a80 f i z_ed2DocSave.obj
 0001:0010fb00       ??_GCDocSaver@@UAEPAXI@Z   00510b00 f i z_ed2DocSave.obj
 0001:0010fb00       ??_ECDocSaver@@UAEPAXI@Z   00510b00 f i z_ed2DocSave.obj
 0001:0010fb40       ??1CDocSaver@@UAE@XZ       00510b40 f i z_ed2DocSave.obj
 0001:0010fc90       ?LoadPrefFile@CZ_ed2Doc@@QAEHPBDPAPAVBrush@@@Z 00510c90 f   z_ed2DocSave.obj
 0001:00110000       ?OnFileOpen@CZ_ed2Doc@@QAEXXZ 00511000 f   z_ed2DocSave.obj
 0001:00110410       ?OnFileMerge@CZ_ed2Doc@@QAEXXZ 00511410 f   z_ed2DocSave.obj
 0001:00110710       ?SaveInXML@CZ_ed2Doc@@IAEXPBDH@Z 00511710 f   z_ed2DocSave.obj
 0001:00112a30       ?WriteTextAsIs@FileWrap@baseg@@QAEIPBD@Z 00513a30 f i z_ed2DocSave.obj
 0001:00112a70       ?Write@VRMLWritter@@QAAXPBDZZ 00513a70 f i z_ed2DocSave.obj
 0001:00112b80       ?WriteValNoCR@VRMLWritter@@QAAXPBDZZ 00513b80 f i z_ed2DocSave.obj
 0001:00112bf0       ?WriteValue@VRMLWritter@@QAEXPBDPAD@Z 00513bf0 f i z_ed2DocSave.obj
 0001:00112d80       ?WriteValue@VRMLWritter@@QAEXPBD@Z 00513d80 f i z_ed2DocSave.obj
 0001:00112e80       ?WriteValue@VRMLWritter@@QAEXPBDAAUUV@@@Z 00513e80 f i z_ed2DocSave.obj
 0001:00113050       ?WriteValue@VRMLWritter@@QAEXPBDAAVCLR@@@Z 00514050 f i z_ed2DocSave.obj
 0001:00113370       ?WriteValue@VRMLWritter@@QAEXPBDAAVV3@@@Z 00514370 f i z_ed2DocSave.obj
 0001:00113620       ?WriteValue@VRMLWritter@@QAEXPBDH@Z 00514620 f i z_ed2DocSave.obj
 0001:001137e0       ?WriteValue@VRMLWritter@@QAEXPBDM@Z 005147e0 f i z_ed2DocSave.obj
 0001:001139a0       ?Open@VRMLWritter@@QAEXPAD@Z 005149a0 f i z_ed2DocSave.obj
 0001:00113b50       ?Close@VRMLWritter@@QAEXXZ 00514b50 f i z_ed2DocSave.obj
 0001:00113c60       ??0XmlFace@@QAE@XZ         00514c60 f i z_ed2DocSave.obj
 0001:00113d80       ??1XmlFace@@QAE@XZ         00514d80 f i z_ed2DocSave.obj
 0001:00113ea0       ?SaveInFile@CZ_ed2Doc@@IAEXPBDH@Z 00514ea0 f   z_ed2DocSave.obj
 0001:00113f90       ?ReadFromFile@CZ_ed2Doc@@QAEXPBD@Z 00514f90 f   z_ed2DocSave.obj
 0001:001143b0       ?push_unique@?$vvector@V?$basic_string@DU?$char_traits@D@std@@V?$allocator@D@2@@std@@@@QAEHAAV?$basic_string@DU?$char_traits@D@std@@V?$allocator@D@2@@std@@PAI@Z 005153b0 f i z_ed2DocSave.obj
 0001:001145d0       ??A?$map@HPAVBrush@@U?$less@H@std@@V?$allocator@U?$pair@$$CBHPAVBrush@@@std@@@3@@std@@QAEAAPAVBrush@@ABH@Z 005155d0 f i z_ed2DocSave.obj
 0001:001145d0       ??A?$map@HHU?$less@H@std@@V?$allocator@U?$pair@$$CBHH@std@@@2@@std@@QAEAAHABH@Z 005155d0 f i BspTree.obj
 0001:001146e0       ??1?$vector@UXmlFace@@V?$allocator@UXmlFace@@@std@@@std@@QAE@XZ 005156e0 f i z_ed2DocSave.obj
 0001:001146e0       ??1?$vvector@UXmlFace@@@@QAE@XZ 005156e0 f i z_ed2DocSave.obj
 0001:00114750       ?push_unique@?$vvector@VCLR@@@@QAEHAAVCLR@@PAI@Z 00515750 f i z_ed2DocSave.obj
 0001:00114960       ??1?$vvector@VCLR@@@@QAE@XZ 00515960 f i z_ed2DocSave.obj
 0001:00114960       ??1?$vector@VCLR@@V?$allocator@VCLR@@@std@@@std@@QAE@XZ 00515960 f i z_ed2DocSave.obj
 0001:001149d0       ?push_unique@?$vvector@UUV@@@@QAEHAAUUV@@PAI@Z 005159d0 f i z_ed2DocSave.obj
 0001:00114bf0       ??1?$vector@UUV@@V?$allocator@UUV@@@std@@@std@@QAE@XZ 00515bf0 f i z_ed2DocSave.obj
 0001:00114bf0       ??1?$vvector@UUV@@@@QAE@XZ 00515bf0 f i z_ed2DocSave.obj
 0001:00114c60       ?push_back@?$vector@UTexture@@V?$allocator@UTexture@@@std@@@std@@QAEXABUTexture@@@Z 00515c60 f i z_ed2DocSave.obj
 0001:00114d70       ?insert@?$_Tree@V?$_Tmap_traits@HPAVBrush@@U?$less@H@std@@V?$allocator@U?$pair@$$CBHPAVBrush@@@std@@@3@$0A@@std@@@std@@QAE?AViterator@12@Vconst_iterator@12@ABU?$pair@$$CBHPAVBrush@@@2@@Z 00515d70 f i z_ed2DocSave.obj
 0001:00114d70       ?insert@?$_Tree@V?$_Tmap_traits@HHU?$less@H@std@@V?$allocator@U?$pair@$$CBHH@std@@@2@$0A@@std@@@std@@QAE?AViterator@12@Vconst_iterator@12@ABU?$pair@$$CBHH@2@@Z 00515d70 f i BspTree.obj
 0001:001154c0       ??0?$vector@UXmlFace@@V?$allocator@UXmlFace@@@std@@@std@@QAE@XZ 005164c0 f i z_ed2DocSave.obj
 0001:001154c0       ??0?$vector@VPortal@@V?$allocator@VPortal@@@std@@@std@@QAE@XZ 005164c0 f i Compiler.obj
 0001:001155a0       ?reserve@?$vector@UXmlFace@@V?$allocator@UXmlFace@@@std@@@std@@QAEXI@Z 005165a0 f i z_ed2DocSave.obj
 0001:001158f0       ?_Tidy@?$vector@UXmlFace@@V?$allocator@UXmlFace@@@std@@@std@@IAEXXZ 005168f0 f i z_ed2DocSave.obj
 0001:00115a00       ??1?$_Vector_val@UTexture@@V?$allocator@UTexture@@@std@@@std@@QAE@XZ 00516a00 f i DlgNewPref.obj
 0001:00115a00       ??1?$_Vector_val@PAUHWND__@@V?$allocator@PAUHWND__@@@std@@@std@@QAE@XZ 00516a00 f i VertDlgDlg.obj
 0001:00115a00       ??1?$_Vector_val@HV?$allocator@H@std@@@std@@QAE@XZ 00516a00 f i BspTree.obj
 0001:00115a00       ??1?$_Tree_val@V?$_Tmap_traits@V?$basic_string@DU?$char_traits@D@std@@V?$allocator@D@2@@std@@UTexture@@U?$less@V?$basic_string@DU?$char_traits@D@std@@V?$allocator@D@2@@std@@@2@V?$allocator@U?$pair@$$CBV?$basic_string@DU?$char_traits@D@std@@V?$allocator@D@2@@std@@UTexture@@@std@@@2@$0A@@std@@@std@@QAE@XZ 00516a00 f i z_edmap.obj
 0001:00115a00       ??1?$_Tree_val@V?$_Tmap_traits@HPAVBrush@@U?$less@H@std@@V?$allocator@U?$pair@$$CBHPAVBrush@@@std@@@3@$0A@@std@@@std@@QAE@XZ 00516a00 f i z_ed2DocSave.obj
 0001:00115a00       ??1?$_Container_base_aux_alloc_real@V?$allocator@PAVCLeaf@@@std@@@std@@IAE@XZ 00516a00 f i CompilerStream.obj
 0001:00115a00       ??1?$_Container_base_aux_alloc_real@V?$allocator@UXmlFace@@@std@@@std@@IAE@XZ 00516a00 f i z_ed2DocSave.obj
 0001:00115a00       ??1?$_List_val@VPoly@@V?$allocator@VPoly@@@std@@@std@@QAE@XZ 00516a00 f i MiniBsp.obj
 0001:00115a00       ??1?$_Vector_val@V?$basic_string@DU?$char_traits@D@std@@V?$allocator@D@2@@std@@V?$allocator@V?$basic_string@DU?$char_traits@D@std@@V?$allocator@D@2@@std@@@2@@std@@QAE@XZ 00516a00 f i CompilerStream.obj
 0001:00115a00       ??1?$_Vector_val@PAVCSoundItem@@V?$allocator@PAVCSoundItem@@@std@@@std@@QAE@XZ 00516a00 f i z_ed2Doc.obj
 0001:00115a00       ??1?$_Container_base_aux_alloc_real@V?$allocator@VPoly@@@std@@@std@@IAE@XZ 00516a00 f i Compiler.obj
 0001:00115a00       ??1?$_Vector_val@PADV?$allocator@PAD@std@@@std@@QAE@XZ 00516a00 f i Scene.obj
 0001:00115a00       ??1?$_Vector_val@PAVCMiniNode@@V?$allocator@PAVCMiniNode@@@std@@@std@@QAE@XZ 00516a00 f i BspTree.obj
 0001:00115a00       ??1?$_Container_base_aux_alloc_real@V?$allocator@U?$pair@QAVBrush@@H@std@@@std@@@std@@IAE@XZ 00516a00 f i DlgBar.obj
 0001:00115a00       ??1?$_Vector_val@PAULmSizeBuff@@V?$allocator@PAULmSizeBuff@@@std@@@std@@QAE@XZ 00516a00 f i Compiler.obj
 0001:00115a00       ??1?$_Container_base_aux_alloc_real@V?$allocator@PAVSceItem@@@std@@@std@@IAE@XZ 00516a00 f i z_ed2Doc.obj
 0001:00115a00       ??1?$_Container_base_aux_alloc_real@V?$allocator@VItemCat@@@std@@@std@@IAE@XZ 00516a00 f i z_ed2Doc.obj
 0001:00115a00       ??1?$_Vector_val@USPlugIn@CZ_ed2App@@V?$allocator@USPlugIn@CZ_ed2App@@@std@@@std@@QAE@XZ 00516a00 f i z_edmap.obj
 0001:00115a00       ??1?$_Container_base_aux_alloc_real@V?$allocator@PAD@std@@@std@@IAE@XZ 00516a00 f i Scene.obj
 0001:00115a00       ??1?$_Vector_val@PAVCLightBulb@@V?$allocator@PAVCLightBulb@@@std@@@std@@QAE@XZ 00516a00 f i LMProc.obj
 0001:00115a00       ??1?$_Vector_val@VItemCat@@V?$allocator@VItemCat@@@std@@@std@@QAE@XZ 00516a00 f i z_ed2Doc.obj
 0001:00115a00       ??1?$_Vector_val@UFlowNode@@V?$allocator@UFlowNode@@@std@@@std@@QAE@XZ 00516a00 f i Compiler.obj
 0001:00115a00       ??1?$_Vector_val@PAVVtx2@@V?$allocator@PAVVtx2@@@std@@@std@@QAE@XZ 00516a00 f i z_ed2Doc.obj
 0001:00115a00       ??1?$_Vector_val@PAVBrush@@V?$allocator@PAVBrush@@@std@@@std@@QAE@XZ 00516a00 f i Compiler.obj
 0001:00115a00       ??1?$_Vector_val@VCLRNOA@@V?$allocator@VCLRNOA@@@std@@@std@@QAE@XZ 00516a00 f i TerTree.obj
 0001:00115a00       ??1?$_Container_base_aux_alloc_real@V?$allocator@H@std@@@std@@IAE@XZ 00516a00 f i PortalPRC.obj
 0001:00115a00       ??1?$_Tree_val@V?$_Tmap_traits@PAVCDialog@@IU?$less@PAVCDialog@@@std@@V?$allocator@U?$pair@QAVCDialog@@I@std@@@3@$0A@@std@@@std@@QAE@XZ 00516a00 f i TabDlgSel.obj
 0001:00115a00       ??1?$_Tree_val@V?$_Tset_traits@IU?$less@I@std@@V?$allocator@I@2@$0A@@std@@@std@@QAE@XZ 00516a00 f i DlgConsole.obj
 0001:00115a00       ??1?$_Vector_val@PAVCMotion@@V?$allocator@PAVCMotion@@@std@@@std@@QAE@XZ 00516a00 f i z_ed2Doc.obj
 0001:00115a00       ??1?$_Vector_val@PAUPortalData@@V?$allocator@PAUPortalData@@@std@@@std@@QAE@XZ 00516a00 f i Compiler.obj
 0001:00115a00       ??1?$_Vector_val@KV?$allocator@K@std@@@std@@QAE@XZ 00516a00 f i CompilerStream.obj
 0001:00115a00       ??1?$_Tree_val@V?$_Tmap_traits@V?$basic_string@DU?$char_traits@D@std@@V?$allocator@D@2@@std@@V12@U?$less@V?$basic_string@DU?$char_traits@D@std@@V?$allocator@D@2@@std@@@2@V?$allocator@U?$pair@$$CBV?$basic_string@DU?$char_traits@D@std@@V?$allocator@D@2@@std@@V12@@std@@@2@$0A@@std@@@std@@QAE@XZ 00516a00 f i z_ed2Doc.obj
 0001:00115a00       ??1?$_Vector_val@V?$vvector@VV3@@@@V?$allocator@V?$vvector@VV3@@@@@std@@@std@@QAE@XZ 00516a00 f i DlgEditor2D.obj
 0001:00115a00       ??1?$_Container_base_aux_alloc_real@V?$allocator@VPortal@@@std@@@std@@IAE@XZ 00516a00 f i Compiler.obj
 0001:00115a00       ??1?$_Container_base_aux_alloc_real@V?$allocator@VCLR@@@std@@@std@@IAE@XZ 00516a00 f i z_ed2DocSave.obj
 0001:00115a00       ??1?$_Vector_val@VPoly@@V?$allocator@VPoly@@@std@@@std@@QAE@XZ 00516a00 f i BspTree.obj
 0001:00115a00       ??1?$_Tree_val@V?$_Tmap_traits@PAVBrush@@HU?$less@PAVBrush@@@std@@V?$allocator@U?$pair@QAVBrush@@H@std@@@3@$0A@@std@@@std@@QAE@XZ 00516a00 f i DlgBar.obj
 0001:00115a00       ??1?$_Tree_val@V?$_Tset_traits@PAVV3@@U?$less@PAVV3@@@std@@V?$allocator@PAVV3@@@3@$0A@@std@@@std@@QAE@XZ 00516a00 f i z_ed2DocDraw.obj
 0001:00115a00       ??1?$_Vector_val@VV3@@V?$allocator@VV3@@@std@@@std@@QAE@XZ 00516a00 f i CompilerStream.obj
 0001:00115a00       ??1?$_Tree_val@V?$_Tmap_traits@HHU?$less@H@std@@V?$allocator@U?$pair@$$CBHH@std@@@2@$0A@@std@@@std@@QAE@XZ 00516a00 f i CompilerStream.obj
 0001:00115a00       ??1?$_Container_base_aux_alloc_real@V?$allocator@PAVV3@@@std@@@std@@IAE@XZ 00516a00 f i z_ed2View.obj
 0001:00115a00       ??1?$_Vector_val@VCRect@@V?$allocator@VCRect@@@std@@@std@@QAE@XZ 00516a00 f i VertDlgDlg.obj
 0001:00115a00       ??1?$_Container_base_aux_alloc_real@V?$allocator@UUV@@@std@@@std@@IAE@XZ 00516a00 f i z_ed2DocSave.obj
 0001:00115a00       ??1?$_Vector_val@MV?$allocator@M@std@@@std@@QAE@XZ 00516a00 f i TerTree.obj
 0001:00115a00       ??1?$_Vector_val@UPolyEdge@@V?$allocator@UPolyEdge@@@std@@@std@@QAE@XZ 00516a00 f i z_ed2Doc.obj
 0001:00115a00       ??1?$_Container_base_aux_alloc_real@V?$allocator@PAVCSoundItem@@@std@@@std@@IAE@XZ 00516a00 f i z_ed2Doc.obj
 0001:00115a00       ??1?$_Container_base_aux_alloc_real@V?$allocator@URecord@CUndo@@@std@@@std@@IAE@XZ 00516a00 f i z_ed2Doc.obj
 0001:00115a00       ??1?$_Tree_val@V?$_Tmap_traits@V?$basic_string@DU?$char_traits@D@std@@V?$allocator@D@2@@std@@U_Plg_Texture@@U?$less@V?$basic_string@DU?$char_traits@D@std@@V?$allocator@D@2@@std@@@2@V?$allocator@U?$pair@$$CBV?$basic_string@DU?$char_traits@D@std@@V?$allocator@D@2@@std@@U_Plg_Texture@@@std@@@2@$0A@@std@@@std@@QAE@XZ 00516a00 f i z_edmap.obj
 0001:00115a00       ??1?$_Vector_val@PAVScriptItem@@V?$allocator@PAVScriptItem@@@std@@@std@@QAE@XZ 00516a00 f i z_ed2Doc.obj
 0001:00115a00       ??1?$_Container_base_aux_alloc_real@V?$allocator@U?$pair@$$CBHPAVBrush@@@std@@@std@@@std@@IAE@XZ 00516a00 f i z_ed2DocSave.obj
 0001:00115a00       ??1?$_Tree_val@V?$_Tmap_traits@HV?$vector@PAVCLeaf@@V?$allocator@PAVCLeaf@@@std@@@std@@U?$less@H@2@V?$allocator@U?$pair@$$CBHV?$vector@PAVCLeaf@@V?$allocator@PAVCLeaf@@@std@@@std@@@std@@@2@$0A@@std@@@std@@QAE@XZ 00516a00 f i Compiler.obj
 0001:00115a00       ??1?$_Vector_val@PAVCBaseDlg@@V?$allocator@PAVCBaseDlg@@@std@@@std@@QAE@XZ 00516a00 f i DlgBar.obj
 0001:00115a00       ??1?$_Tree_val@V?$_Tset_traits@PAVBrush@@U?$less@PAVBrush@@@std@@V?$allocator@PAVBrush@@@3@$0A@@std@@@std@@QAE@XZ 00516a00 f i DialogEvalDets.obj
 0001:00115a00       ??1?$_Vector_val@UNameTypeValue@@V?$allocator@UNameTypeValue@@@std@@@std@@QAE@XZ 00516a00 f i DlgNewItem.obj
 0001:00115a00       ??1?$_Deque_val@USpr@?$TaskClass@VBrush@@@@V?$allocator@USpr@?$TaskClass@VBrush@@@@@std@@@std@@QAE@XZ 00516a00 f i z_edmap.obj
 0001:00115a00       ??1?$_Vector_val@PAVTerNode@@V?$allocator@PAVTerNode@@@std@@@std@@QAE@XZ 00516a00 f i TerTree.obj
 0001:00115a00       ??1?$_Vector_val@UMState@@V?$allocator@UMState@@@std@@@std@@QAE@XZ 00516a00 f i DlgBrshProp.obj
 0001:00115a00       ??1?$_Vector_val@URecord@CUndo@@V?$allocator@URecord@CUndo@@@std@@@std@@QAE@XZ 00516a00 f i z_ed2Doc.obj
 0001:00115a00       ??1?$_Vector_val@UXmlFace@@V?$allocator@UXmlFace@@@std@@@std@@QAE@XZ 00516a00 f i z_ed2DocSave.obj
 0001:00115a00       ??1?$_Vector_val@PAVPoly@@V?$allocator@PAVPoly@@@std@@@std@@QAE@XZ 00516a00 f i BspTree.obj
 0001:00115a00       ??1?$_Container_base_aux_alloc_real@V?$allocator@PAVCMotion@@@std@@@std@@IAE@XZ 00516a00 f i z_ed2Doc.obj
 0001:00115a00       ??1?$_Vector_val@PAVCLeaf@@V?$allocator@PAVCLeaf@@@std@@@std@@QAE@XZ 00516a00 f i BspTree.obj
 0001:00115a00       ??1?$_Vector_val@UUV@@V?$allocator@UUV@@@std@@@std@@QAE@XZ 00516a00 f i z_ed2DocSave.obj
 0001:00115a00       ??1?$_Container_base_aux_alloc_real@V?$allocator@U?$pair@$$CBHH@std@@@std@@@std@@IAE@XZ 00516a00 f i CompilerStream.obj
 0001:00115a00       ??1?$_Vector_val@PAVCBspTree@@V?$allocator@PAVCBspTree@@@std@@@std@@QAE@XZ 00516a00 f i BspTree.obj
 0001:00115a00       ??1?$_Vector_val@VVtx2@@V?$allocator@VVtx2@@@std@@@std@@QAE@XZ 00516a00 f i Poly.obj
 0001:00115a00       ??1?$_Vector_val@PAUGroup@CVertDlgDlg@@V?$allocator@PAUGroup@CVertDlgDlg@@@std@@@std@@QAE@XZ 00516a00 f i VertDlgDlg.obj
 0001:00115a00       ??1?$_Vector_val@PAVSceItem@@V?$allocator@PAVSceItem@@@std@@@std@@QAE@XZ 00516a00 f i z_ed2Doc.obj
 0001:00115a00       ??1?$_Tree_val@V?$_Tmap_traits@HVV3@@U?$less@H@std@@V?$allocator@U?$pair@$$CBHVV3@@@std@@@3@$0A@@std@@@std@@QAE@XZ 00516a00 f i DlgCompProgress.obj
 0001:00115a00       ??1?$_Tree_val@V?$_Tset_traits@PAVPoly@@U?$less@PAVPoly@@@std@@V?$allocator@PAVPoly@@@3@$0A@@std@@@std@@QAE@XZ 00516a00 f i DialogEvalDets.obj
 0001:00115a00       ??1?$_Container_base_aux_alloc_real@V?$allocator@PAVCLightBulb@@@std@@@std@@IAE@XZ 00516a00 f i LMProc.obj
 0001:00115a00       ??1?$_Container_base_aux_alloc_real@V?$allocator@USPlugIn@CZ_ed2App@@@std@@@std@@IAE@XZ 00516a00 f i z_edmap.obj
 0001:00115a00       ??1?$_Vector_val@PAVV3@@V?$allocator@PAVV3@@@std@@@std@@QAE@XZ 00516a00 f i z_ed2View.obj
 0001:00115a00       ??1?$_Container_base_aux_alloc_real@V?$allocator@PAV?$map@HHU?$less@H@std@@V?$allocator@U?$pair@$$CBHH@std@@@2@@std@@@std@@@std@@IAE@XZ 00516a00 f i CompilerStream.obj
 0001:00115a00       ??1?$_Vector_val@UVNT@@V?$allocator@UVNT@@@std@@@std@@QAE@XZ 00516a00 f i DlgEditor2D.obj
 0001:00115a00       ??1?$_Vector_val@PAV?$map@HHU?$less@H@std@@V?$allocator@U?$pair@$$CBHH@std@@@2@@std@@V?$allocator@PAV?$map@HHU?$less@H@std@@V?$allocator@U?$pair@$$CBHH@std@@@2@@std@@@2@@std@@QAE@XZ 00516a00 f i CompilerStream.obj
 0001:00115a00       ??1?$_Vector_val@VPortal@@V?$allocator@VPortal@@@std@@@std@@QAE@XZ 00516a00 f i Compiler.obj
 0001:00115a00       ??1?$_Container_base_aux_alloc_real@V?$allocator@PAVPoly@@@std@@@std@@IAE@XZ 00516a00 f i BspTree.obj
 0001:00115a00       ??1?$_Vector_val@VPlane@@V?$allocator@VPlane@@@std@@@std@@QAE@XZ 00516a00 f i BspTree.obj
 0001:00115a00       ??1?$_Vector_val@PAVPlane@@V?$allocator@PAVPlane@@@std@@@std@@QAE@XZ 00516a00 f i BspTree.obj
 0001:00115a00       ??1?$_Vector_val@PAUSBytes@@V?$allocator@PAUSBytes@@@std@@@std@@QAE@XZ 00516a00 f i Compiler.obj
 0001:00115a00       ??1?$_Vector_val@VCLR@@V?$allocator@VCLR@@@std@@@std@@QAE@XZ 00516a00 f i z_ed2DocSave.obj
 0001:00115a00       ??1?$_Container_base_aux_alloc_real@V?$allocator@VV3@@@std@@@std@@IAE@XZ 00516a00 f i DlgEditor2D.obj
 0001:00115a00       ??1?$_Container_base_aux_alloc_real@V?$allocator@U?$pair@$$CBV?$basic_string@DU?$char_traits@D@std@@V?$allocator@D@2@@std@@U_Plg_Texture@@@std@@@std@@@std@@IAE@XZ 00516a00 f i z_edmap.obj
